   1               		.file	"main.c"
   2               	__SREG__ = 0x3f
   3               	__SP_H__ = 0x3e
   4               	__SP_L__ = 0x3d
   5               	__CCP__  = 0x34
   6               	__tmp_reg__ = 0
   7               	__zero_reg__ = 1
  15               	.Ltext0:
  16               	.global	__vector_20
  18               	__vector_20:
  19               	.LFB3:
  20               	.LM1:
  21 0000 1F92      		push __zero_reg__
  22 0002 0F92      		push r0
  23 0004 0FB6      		in r0,__SREG__
  24 0006 0F92      		push r0
  25 0008 1124      		clr __zero_reg__
  26 000a 2F93      		push r18
  27 000c 8F93      		push r24
  28 000e 9F93      		push r25
  29 0010 EF93      		push r30
  30 0012 FF93      		push r31
  31               	/* prologue: Signal */
  32               	/* frame size = 0 */
  33               	.LM2:
  34 0014 E091 0000 		lds r30,read_spot
  35 0018 F091 0000 		lds r31,(read_spot)+1
  36 001c 8091 C600 		lds r24,198
  37 0020 E050      		subi r30,lo8(-(input_buffer))
  38 0022 F040      		sbci r31,hi8(-(input_buffer))
  39 0024 8083      		st Z,r24
  40               	.LM3:
  41 0026 8091 0000 		lds r24,read_spot
  42 002a 9091 0000 		lds r25,(read_spot)+1
  43 002e 0196      		adiw r24,1
  44 0030 9093 0000 		sts (read_spot)+1,r25
  45 0034 8093 0000 		sts read_spot,r24
  46               	.LM4:
  47 0038 85B1      		in r24,37-32
  48 003a 91E0      		ldi r25,lo8(1)
  49 003c 8927      		eor r24,r25
  50 003e 85B9      		out 37-32,r24
  51               	.LM5:
  52 0040 8091 0000 		lds r24,read_spot
  53 0044 9091 0000 		lds r25,(read_spot)+1
  54 0048 8050      		subi r24,lo8(1024)
  55 004a 9440      		sbci r25,hi8(1024)
  56 004c 01F4      		brne .L3
  57 004e 1092 0000 		sts (read_spot)+1,__zero_reg__
  58 0052 1092 0000 		sts read_spot,__zero_reg__
  59               	.L3:
  60               	/* epilogue start */
  61               	.LM6:
  62 0056 FF91      		pop r31
  63 0058 EF91      		pop r30
  64 005a 9F91      		pop r25
  65 005c 8F91      		pop r24
  66 005e 2F91      		pop r18
  67 0060 0F90      		pop r0
  68 0062 0FBE      		out __SREG__,r0
  69 0064 0F90      		pop r0
  70 0066 1F90      		pop __zero_reg__
  71 0068 1895      		reti
  72               	.LFE3:
  74               	.global	set_default_settings
  76               	set_default_settings:
  77               	.LFB8:
  78               	.LM7:
  79               	/* prologue: function */
  80               	/* frame size = 0 */
  81               	.L5:
  82               	.LBB240:
  83               	.LBB241:
  84               	.LM8:
  85 006a F999      		sbic 63-32,1
  86 006c 00C0      		rjmp .L5
  87               	.LM9:
  88 006e 12BC      		out 66-32,__zero_reg__
  89               	.LM10:
  90 0070 81E0      		ldi r24,lo8(1)
  91 0072 81BD      		out 65-32,r24
  92               	.LM11:
  93 0074 80BD      		out 64-32,r24
  94               	.LM12:
  95 0076 FA9A      		sbi 63-32,2
  96               	.LM13:
  97 0078 F99A      		sbi 63-32,1
  98               	.L6:
  99               	.LBE241:
 100               	.LBE240:
 101               	.LBB242:
 102               	.LBB243:
 103               	.LM14:
 104 007a F999      		sbic 63-32,1
 105 007c 00C0      		rjmp .L6
 106               	.LM15:
 107 007e 12BC      		out 66-32,__zero_reg__
 108               	.LM16:
 109 0080 82E0      		ldi r24,lo8(2)
 110 0082 81BD      		out 65-32,r24
 111               	.LM17:
 112 0084 10BC      		out 64-32,__zero_reg__
 113               	.LM18:
 114 0086 FA9A      		sbi 63-32,2
 115               	.LM19:
 116 0088 F99A      		sbi 63-32,1
 117               	.L7:
 118               	.LBE243:
 119               	.LBE242:
 120               	.LBB244:
 121               	.LBB245:
 122               	.LM20:
 123 008a F999      		sbic 63-32,1
 124 008c 00C0      		rjmp .L7
 125               	.LM21:
 126 008e 12BC      		out 66-32,__zero_reg__
 127               	.LM22:
 128 0090 85E0      		ldi r24,lo8(5)
 129 0092 81BD      		out 65-32,r24
 130               	.LM23:
 131 0094 8AE1      		ldi r24,lo8(26)
 132 0096 80BD      		out 64-32,r24
 133               	.LM24:
 134 0098 FA9A      		sbi 63-32,2
 135               	.LM25:
 136 009a F99A      		sbi 63-32,1
 137               	.L8:
 138               	.LBE245:
 139               	.LBE244:
 140               	.LBB246:
 141               	.LBB247:
 142               	.LM26:
 143 009c F999      		sbic 63-32,1
 144 009e 00C0      		rjmp .L8
 145               	.LM27:
 146 00a0 12BC      		out 66-32,__zero_reg__
 147               	.LM28:
 148 00a2 86E0      		ldi r24,lo8(6)
 149 00a4 81BD      		out 65-32,r24
 150               	.LM29:
 151 00a6 83E0      		ldi r24,lo8(3)
 152 00a8 80BD      		out 64-32,r24
 153               	.LM30:
 154 00aa FA9A      		sbi 63-32,2
 155               	.LM31:
 156 00ac F99A      		sbi 63-32,1
 157               	/* epilogue start */
 158               	.LBE247:
 159               	.LBE246:
 160               	.LM32:
 161 00ae 0895      		ret
 162               	.LFE8:
 164               	.global	read_system_settings
 166               	read_system_settings:
 167               	.LFB9:
 168               	.LM33:
 169               	/* prologue: function */
 170               	/* frame size = 0 */
 171               	.L15:
 172               	.LBB248:
 173               	.LBB249:
 174               	.LM34:
 175 00b0 F999      		sbic 63-32,1
 176 00b2 00C0      		rjmp .L15
 177               	.LM35:
 178 00b4 12BC      		out 66-32,__zero_reg__
 179               	.LM36:
 180 00b6 91E0      		ldi r25,lo8(1)
 181 00b8 91BD      		out 65-32,r25
 182               	.LM37:
 183 00ba F89A      		sbi 63-32,0
 184               	.LM38:
 185 00bc 80B5      		in r24,64-32
 186               	.LBE249:
 187               	.LBE248:
 188               	.LM39:
 189 00be 8093 0000 		sts setting_uart_speed,r24
 190               	.LM40:
 191 00c2 8B30      		cpi r24,lo8(11)
 192 00c4 00F0      		brlo .L27
 193               	.LM41:
 194 00c6 9093 0000 		sts setting_uart_speed,r25
 195               	.L17:
 196               	.LBB250:
 197               	.LBB251:
 198               	.LM42:
 199 00ca F999      		sbic 63-32,1
 200 00cc 00C0      		rjmp .L17
 201               	.LM43:
 202 00ce 12BC      		out 66-32,__zero_reg__
 203               	.LM44:
 204 00d0 81E0      		ldi r24,lo8(1)
 205 00d2 81BD      		out 65-32,r24
 206               	.LM45:
 207 00d4 80BD      		out 64-32,r24
 208               	.LM46:
 209 00d6 FA9A      		sbi 63-32,2
 210               	.LM47:
 211 00d8 F99A      		sbi 63-32,1
 212               	.L27:
 213               	.LBE251:
 214               	.LBE250:
 215               	.LBB252:
 216               	.LBB253:
 217               	.LM48:
 218 00da F999      		sbic 63-32,1
 219 00dc 00C0      		rjmp .L27
 220               	.LM49:
 221 00de 12BC      		out 66-32,__zero_reg__
 222               	.LM50:
 223 00e0 82E0      		ldi r24,lo8(2)
 224 00e2 81BD      		out 65-32,r24
 225               	.LM51:
 226 00e4 F89A      		sbi 63-32,0
 227               	.LM52:
 228 00e6 80B5      		in r24,64-32
 229               	.LBE253:
 230               	.LBE252:
 231               	.LM53:
 232 00e8 8093 0000 		sts setting_system_mode,r24
 233               	.LM54:
 234 00ec 8630      		cpi r24,lo8(6)
 235 00ee 00F0      		brlo .L26
 236               	.LM55:
 237 00f0 1092 0000 		sts setting_system_mode,__zero_reg__
 238               	.L19:
 239               	.LBB254:
 240               	.LBB255:
 241               	.LM56:
 242 00f4 F999      		sbic 63-32,1
 243 00f6 00C0      		rjmp .L19
 244               	.LM57:
 245 00f8 12BC      		out 66-32,__zero_reg__
 246               	.LM58:
 247 00fa 82E0      		ldi r24,lo8(2)
 248 00fc 81BD      		out 65-32,r24
 249               	.LM59:
 250 00fe 10BC      		out 64-32,__zero_reg__
 251               	.LM60:
 252 0100 FA9A      		sbi 63-32,2
 253               	.LM61:
 254 0102 F99A      		sbi 63-32,1
 255               	.L26:
 256               	.LBE255:
 257               	.LBE254:
 258               	.LBB256:
 259               	.LBB257:
 260               	.LM62:
 261 0104 F999      		sbic 63-32,1
 262 0106 00C0      		rjmp .L26
 263               	.LM63:
 264 0108 12BC      		out 66-32,__zero_reg__
 265               	.LM64:
 266 010a 85E0      		ldi r24,lo8(5)
 267 010c 81BD      		out 65-32,r24
 268               	.LM65:
 269 010e F89A      		sbi 63-32,0
 270               	.LM66:
 271 0110 80B5      		in r24,64-32
 272               	.LBE257:
 273               	.LBE256:
 274               	.LM67:
 275 0112 8093 0000 		sts setting_escape_character,r24
 276               	.LM68:
 277 0116 8150      		subi r24,lo8(-(-1))
 278 0118 8E3F      		cpi r24,lo8(-2)
 279 011a 00F0      		brlo .L25
 280               	.LM69:
 281 011c 8AE1      		ldi r24,lo8(26)
 282 011e 8093 0000 		sts setting_escape_character,r24
 283               	.L21:
 284               	.LBB258:
 285               	.LBB259:
 286               	.LM70:
 287 0122 F999      		sbic 63-32,1
 288 0124 00C0      		rjmp .L21
 289               	.LM71:
 290 0126 12BC      		out 66-32,__zero_reg__
 291               	.LM72:
 292 0128 85E0      		ldi r24,lo8(5)
 293 012a 81BD      		out 65-32,r24
 294               	.LM73:
 295 012c 8AE1      		ldi r24,lo8(26)
 296 012e 80BD      		out 64-32,r24
 297               	.LM74:
 298 0130 FA9A      		sbi 63-32,2
 299               	.LM75:
 300 0132 F99A      		sbi 63-32,1
 301               	.L25:
 302               	.LBE259:
 303               	.LBE258:
 304               	.LBB260:
 305               	.LBB261:
 306               	.LM76:
 307 0134 F999      		sbic 63-32,1
 308 0136 00C0      		rjmp .L25
 309               	.LM77:
 310 0138 12BC      		out 66-32,__zero_reg__
 311               	.LM78:
 312 013a 86E0      		ldi r24,lo8(6)
 313 013c 81BD      		out 65-32,r24
 314               	.LM79:
 315 013e F89A      		sbi 63-32,0
 316               	.LM80:
 317 0140 80B5      		in r24,64-32
 318               	.LBE261:
 319               	.LBE260:
 320               	.LM81:
 321 0142 8093 0000 		sts setting_max_escape_character,r24
 322               	.LM82:
 323 0146 8150      		subi r24,lo8(-(-1))
 324 0148 8E3F      		cpi r24,lo8(-2)
 325 014a 00F0      		brlo .L24
 326               	.LM83:
 327 014c 83E0      		ldi r24,lo8(3)
 328 014e 8093 0000 		sts setting_max_escape_character,r24
 329               	.L23:
 330               	.LBB262:
 331               	.LBB263:
 332               	.LM84:
 333 0152 F999      		sbic 63-32,1
 334 0154 00C0      		rjmp .L23
 335               	.LM85:
 336 0156 12BC      		out 66-32,__zero_reg__
 337               	.LM86:
 338 0158 86E0      		ldi r24,lo8(6)
 339 015a 81BD      		out 65-32,r24
 340               	.LM87:
 341 015c 83E0      		ldi r24,lo8(3)
 342 015e 80BD      		out 64-32,r24
 343               	.LM88:
 344 0160 FA9A      		sbi 63-32,2
 345               	.LM89:
 346 0162 F99A      		sbi 63-32,1
 347               	.L24:
 348 0164 0895      		ret
 349               	.LBE263:
 350               	.LBE262:
 351               	.LFE9:
 353               	.global	EEPROM_write
 355               	EEPROM_write:
 356               	.LFB17:
 357               	.LM90:
 358               	/* prologue: function */
 359               	/* frame size = 0 */
 360               	.LVL0:
 361               	.L37:
 362               	.LM91:
 363 0166 F999      		sbic 63-32,1
 364 0168 00C0      		rjmp .L37
 365               	.LM92:
 366 016a 92BD      		out 66-32,r25
 367               	.LVL1:
 368               	.LM93:
 369 016c 81BD      		out 65-32,r24
 370               	.LM94:
 371 016e 60BD      		out 64-32,r22
 372               	.LM95:
 373 0170 FA9A      		sbi 63-32,2
 374               	.LM96:
 375 0172 F99A      		sbi 63-32,1
 376               	/* epilogue start */
 377               	.LM97:
 378 0174 0895      		ret
 379               	.LFE17:
 381               	.global	EEPROM_read
 383               	EEPROM_read:
 384               	.LFB18:
 385               	.LM98:
 386               	/* prologue: function */
 387               	/* frame size = 0 */
 388               	.LVL2:
 389               	.L41:
 390               	.LM99:
 391 0176 F999      		sbic 63-32,1
 392 0178 00C0      		rjmp .L41
 393               	.LM100:
 394 017a 92BD      		out 66-32,r25
 395               	.LVL3:
 396               	.LM101:
 397 017c 81BD      		out 65-32,r24
 398               	.LM102:
 399 017e F89A      		sbi 63-32,0
 400               	.LM103:
 401 0180 80B5      		in r24,64-32
 402               	.LVL4:
 403               	/* epilogue start */
 404               	.LM104:
 405 0182 0895      		ret
 406               	.LFE18:
 408               	.global	delay_us
 410               	delay_us:
 411               	.LFB20:
 412               	.LM105:
 413               	.LVL5:
 414               	/* prologue: function */
 415               	/* frame size = 0 */
 416               	.LM106:
 417 0184 9C01      		movw r18,r24
 418 0186 220F      		lsl r18
 419 0188 331F      		rol r19
 420               	.LVL6:
 421               	.LM107:
 422 018a 91E0      		ldi r25,lo8(1)
 423               	.LM108:
 424 018c 84E1      		ldi r24,lo8(20)
 425 018e 00C0      		rjmp .L45
 426               	.L47:
 427               	.LM109:
 428 0190 95BB      		out 53-32,r25
 429               	.LM110:
 430 0192 86BD      		out 70-32,r24
 431               	.L46:
 432               	.LM111:
 433 0194 A89B      		sbis 53-32,0
 434 0196 00C0      		rjmp .L46
 435               	.LM112:
 436 0198 2050      		subi r18,lo8(-(-256))
 437 019a 3140      		sbci r19,hi8(-(-256))
 438               	.L45:
 439               	.LM113:
 440 019c 41E0      		ldi r20,hi8(257)
 441 019e 2130      		cpi r18,lo8(257)
 442 01a0 3407      		cpc r19,r20
 443 01a2 00F4      		brsh .L47
 444               	.LM114:
 445 01a4 81E0      		ldi r24,lo8(1)
 446 01a6 85BB      		out 53-32,r24
 447               	.LM115:
 448 01a8 822F      		mov r24,r18
 449               	.LVL7:
 450 01aa 8195      		neg r24
 451 01ac 86BD      		out 70-32,r24
 452               	.L48:
 453               	.LM116:
 454 01ae A89B      		sbis 53-32,0
 455 01b0 00C0      		rjmp .L48
 456               	/* epilogue start */
 457               	.LM117:
 458 01b2 0895      		ret
 459               	.LFE20:
 461               	.global	delay_ms
 463               	delay_ms:
 464               	.LFB21:
 465               	.LM118:
 466               	.LVL8:
 467 01b4 CF93      		push r28
 468 01b6 DF93      		push r29
 469               	/* prologue: function */
 470               	/* frame size = 0 */
 471 01b8 EC01      		movw r28,r24
 472 01ba 00C0      		rjmp .L53
 473               	.LVL9:
 474               	.L54:
 475               	.LM119:
 476 01bc 88EE      		ldi r24,lo8(1000)
 477 01be 93E0      		ldi r25,hi8(1000)
 478 01c0 0E94 0000 		call delay_us
 479               	.LM120:
 480 01c4 2197      		sbiw r28,1
 481               	.LVL10:
 482               	.L53:
 483 01c6 2097      		sbiw r28,0
 484 01c8 01F4      		brne .L54
 485               	/* epilogue start */
 486               	.LM121:
 487 01ca DF91      		pop r29
 488 01cc CF91      		pop r28
 489               	.LVL11:
 490 01ce 0895      		ret
 491               	.LFE21:
 493               	.global	blink_error
 495               	blink_error:
 496               	.LFB19:
 497               	.LM122:
 498               	.LVL12:
 499 01d0 0F93      		push r16
 500 01d2 1F93      		push r17
 501 01d4 CF93      		push r28
 502 01d6 DF93      		push r29
 503               	/* prologue: function */
 504               	/* frame size = 0 */
 505               	.LM123:
 506 01d8 C0E0      		ldi r28,lo8(0)
 507 01da D0E0      		ldi r29,hi8(0)
 508               	.LVL13:
 509               	.LBB264:
 510               	.LM124:
 511 01dc 082F      		mov r16,r24
 512 01de 10E0      		ldi r17,lo8(0)
 513               	.LVL14:
 514 01e0 00C0      		rjmp .L60
 515               	.LVL15:
 516               	.L58:
 517               	.LM125:
 518 01e2 289A      		sbi 37-32,0
 519               	.LM126:
 520 01e4 84E6      		ldi r24,lo8(100)
 521 01e6 90E0      		ldi r25,hi8(100)
 522 01e8 0E94 0000 		call delay_ms
 523               	.LM127:
 524 01ec 2898      		cbi 37-32,0
 525               	.LM128:
 526 01ee 84E6      		ldi r24,lo8(100)
 527 01f0 90E0      		ldi r25,hi8(100)
 528 01f2 0E94 0000 		call delay_ms
 529               	.LM129:
 530 01f6 2196      		adiw r28,1
 531               	.LVL16:
 532               	.L60:
 533 01f8 C017      		cp r28,r16
 534 01fa D107      		cpc r29,r17
 535 01fc 04F0      		brlt .L58
 536               	.LBE264:
 537               	.LM130:
 538 01fe 80ED      		ldi r24,lo8(2000)
 539 0200 97E0      		ldi r25,hi8(2000)
 540 0202 0E94 0000 		call delay_ms
 541 0206 C0E0      		ldi r28,lo8(0)
 542 0208 D0E0      		ldi r29,hi8(0)
 543 020a 00C0      		rjmp .L60
 544               	.LFE19:
 546               	.global	check_emergency_reset
 548               	check_emergency_reset:
 549               	.LFB10:
 550               	.LM131:
 551 020c FF92      		push r15
 552 020e 0F93      		push r16
 553 0210 1F93      		push r17
 554               	/* prologue: function */
 555               	/* frame size = 0 */
 556               	.LM132:
 557 0212 509A      		sbi 42-32,0
 558               	.LM133:
 559 0214 589A      		sbi 43-32,0
 560               	.LM134:
 561 0216 4899      		sbic 41-32,0
 562 0218 00C0      		rjmp .L62
 563               	.LM135:
 564 021a 299A      		sbi 37-32,1
 565 021c 10E0      		ldi r17,lo8(0)
 566               	.LVL17:
 567               	.LBB265:
 568               	.LM136:
 569 021e FF24      		clr r15
 570 0220 F394      		inc r15
 571               	.LM137:
 572 0222 02E0      		ldi r16,lo8(2)
 573               	.L63:
 574               	.LM138:
 575 0224 89E1      		ldi r24,lo8(25)
 576 0226 90E0      		ldi r25,hi8(25)
 577 0228 0E94 0000 		call delay_ms
 578               	.LM139:
 579 022c 85B1      		in r24,37-32
 580 022e 8F25      		eor r24,r15
 581 0230 85B9      		out 37-32,r24
 582               	.LM140:
 583 0232 4899      		sbic 41-32,0
 584 0234 00C0      		rjmp .L62
 585               	.LM141:
 586 0236 89E1      		ldi r24,lo8(25)
 587 0238 90E0      		ldi r25,hi8(25)
 588 023a 0E94 0000 		call delay_ms
 589               	.LM142:
 590 023e 85B1      		in r24,37-32
 591 0240 8027      		eor r24,r16
 592 0242 85B9      		out 37-32,r24
 593               	.LM143:
 594 0244 4899      		sbic 41-32,0
 595 0246 00C0      		rjmp .L62
 596               	.LM144:
 597 0248 1F5F      		subi r17,lo8(-(1))
 598 024a 1832      		cpi r17,lo8(40)
 599 024c 01F4      		brne .L63
 600 024e 81E0      		ldi r24,lo8(1)
 601 0250 00C0      		rjmp .L64
 602               	.L62:
 603 0252 80E0      		ldi r24,lo8(0)
 604               	.L64:
 605               	/* epilogue start */
 606               	.LBE265:
 607               	.LM145:
 608 0254 1F91      		pop r17
 609               	.LVL18:
 610 0256 0F91      		pop r16
 611 0258 FF90      		pop r15
 612 025a 0895      		ret
 613               	.LFE10:
 615               	.global	count_cmd_args
 617               	count_cmd_args:
 618               	.LFB30:
 619               	.LM146:
 620               	/* prologue: function */
 621               	/* frame size = 0 */
 622               	.LM147:
 623 025c E0E0      		ldi r30,lo8(cmd_arg)
 624 025e F0E0      		ldi r31,hi8(cmd_arg)
 625 0260 20E0      		ldi r18,lo8(0)
 626               	.LVL19:
 627               	.L69:
 628               	.LM148:
 629 0262 8081      		ld r24,Z
 630 0264 9181      		ldd r25,Z+1
 631 0266 892B      		or r24,r25
 632 0268 01F0      		breq .L68
 633 026a 8281      		ldd r24,Z+2
 634 026c 8111      		cpse r24,__zero_reg__
 635               	.LM149:
 636 026e 2F5F      		subi r18,lo8(-(1))
 637               	.L68:
 638 0270 3396      		adiw r30,3
 639               	.LM150:
 640 0272 80E0      		ldi r24,hi8(cmd_arg+12)
 641 0274 E030      		cpi r30,lo8(cmd_arg+12)
 642 0276 F807      		cpc r31,r24
 643 0278 01F4      		brne .L69
 644               	.LM151:
 645 027a 822F      		mov r24,r18
 646               	/* epilogue start */
 647 027c 0895      		ret
 648               	.LFE30:
 650               	.global	add_cmd_arg
 652               	add_cmd_arg:
 653               	.LFB32:
 654               	.LM152:
 655               	.LVL20:
 656               	/* prologue: function */
 657               	/* frame size = 0 */
 658 027e AC01      		movw r20,r24
 659               	.LM153:
 660 0280 E0E0      		ldi r30,lo8(cmd_arg)
 661 0282 F0E0      		ldi r31,hi8(cmd_arg)
 662 0284 20E0      		ldi r18,lo8(0)
 663               	.LVL21:
 664               	.L74:
 665               	.LBB266:
 666               	.LBB267:
 667               	.LM154:
 668 0286 8081      		ld r24,Z
 669 0288 9181      		ldd r25,Z+1
 670 028a 892B      		or r24,r25
 671 028c 01F0      		breq .L73
 672 028e 8281      		ldd r24,Z+2
 673 0290 8111      		cpse r24,__zero_reg__
 674               	.LM155:
 675 0292 2F5F      		subi r18,lo8(-(1))
 676               	.L73:
 677 0294 3396      		adiw r30,3
 678               	.LM156:
 679 0296 80E0      		ldi r24,hi8(cmd_arg+12)
 680 0298 E030      		cpi r30,lo8(cmd_arg+12)
 681 029a F807      		cpc r31,r24
 682 029c 01F4      		brne .L74
 683               	.LBE267:
 684               	.LBE266:
 685               	.LM157:
 686 029e 2430      		cpi r18,lo8(4)
 687 02a0 00F4      		brsh .L76
 688               	.LM158:
 689 02a2 822F      		mov r24,r18
 690 02a4 90E0      		ldi r25,lo8(0)
 691 02a6 FC01      		movw r30,r24
 692 02a8 EE0F      		lsl r30
 693 02aa FF1F      		rol r31
 694               	.LVL22:
 695 02ac E80F      		add r30,r24
 696 02ae F91F      		adc r31,r25
 697 02b0 E050      		subi r30,lo8(-(cmd_arg))
 698 02b2 F040      		sbci r31,hi8(-(cmd_arg))
 699 02b4 5183      		std Z+1,r21
 700 02b6 4083      		st Z,r20
 701               	.LM159:
 702 02b8 6283      		std Z+2,r22
 703               	.LVL23:
 704               	.L76:
 705 02ba 0895      		ret
 706               	.LFE32:
 708               	.global	is_number
 710               	is_number:
 711               	.LFB35:
 712               	.LM160:
 713               	.LVL24:
 714               	/* prologue: function */
 715               	/* frame size = 0 */
 716 02bc AC01      		movw r20,r24
 717               	.LM161:
 718 02be 20E0      		ldi r18,lo8(0)
 719 02c0 30E0      		ldi r19,hi8(0)
 720               	.LVL25:
 721               	.LBB268:
 722               	.LM162:
 723 02c2 70E0      		ldi r23,lo8(0)
 724               	.LVL26:
 725 02c4 00C0      		rjmp .L79
 726               	.LVL27:
 727               	.L82:
 728               	.LM163:
 729 02c6 FA01      		movw r30,r20
 730 02c8 E20F      		add r30,r18
 731 02ca F31F      		adc r31,r19
 732 02cc 8081      		ld r24,Z
 733 02ce 90E0      		ldi r25,lo8(0)
 734 02d0 C097      		sbiw r24,48
 735 02d2 0A97      		sbiw r24,10
 736 02d4 00F0      		brlo .L80
 737 02d6 40E0      		ldi r20,lo8(0)
 738 02d8 50E0      		ldi r21,hi8(0)
 739 02da 00C0      		rjmp .L81
 740               	.L80:
 741               	.LM164:
 742 02dc 2F5F      		subi r18,lo8(-(1))
 743 02de 3F4F      		sbci r19,hi8(-(1))
 744               	.LVL28:
 745               	.L79:
 746 02e0 2617      		cp r18,r22
 747 02e2 3707      		cpc r19,r23
 748 02e4 04F0      		brlt .L82
 749               	.L81:
 750               	.LBE268:
 751               	.LM165:
 752 02e6 CA01      		movw r24,r20
 753               	.LVL29:
 754               	/* epilogue start */
 755 02e8 0895      		ret
 756               	.LFE35:
 758               	.global	wildcmp
 760               	wildcmp:
 761               	.LFB36:
 762               	.LM166:
 763               	.LVL30:
 764               	/* prologue: function */
 765               	/* frame size = 0 */
 766 02ea FC01      		movw r30,r24
 767 02ec DB01      		movw r26,r22
 768 02ee 00C0      		rjmp .L85
 769               	.LVL31:
 770               	.L89:
 771               	.LM167:
 772 02f0 8917      		cp r24,r25
 773 02f2 01F0      		breq .L86
 774 02f4 8F33      		cpi r24,lo8(63)
 775 02f6 01F0      		breq .L86
 776 02f8 80E0      		ldi r24,lo8(0)
 777 02fa 0895      		ret
 778               	.L86:
 779               	.LM168:
 780 02fc 3196      		adiw r30,1
 781               	.LM169:
 782 02fe 1196      		adiw r26,1
 783               	.LVL32:
 784               	.L85:
 785               	.LM170:
 786 0300 9C91      		ld r25,X
 787 0302 9923      		tst r25
 788 0304 01F0      		breq .L88
 789 0306 8081      		ld r24,Z
 790 0308 8A32      		cpi r24,lo8(42)
 791 030a 01F4      		brne .L89
 792 030c 00C0      		rjmp .L88
 793               	.LVL33:
 794               	.L95:
 795               	.LM171:
 796 030e 8081      		ld r24,Z
 797 0310 8A32      		cpi r24,lo8(42)
 798 0312 01F4      		brne .L90
 799               	.LM172:
 800 0314 3196      		adiw r30,1
 801 0316 8081      		ld r24,Z
 802 0318 8823      		tst r24
 803 031a 01F4      		brne .L91
 804 031c 81E0      		ldi r24,lo8(1)
 805 031e 0895      		ret
 806               	.L91:
 807               	.LM173:
 808 0320 9D01      		movw r18,r26
 809 0322 2F5F      		subi r18,lo8(-(1))
 810 0324 3F4F      		sbci r19,hi8(-(1))
 811 0326 AF01      		movw r20,r30
 812 0328 00C0      		rjmp .L100
 813               	.L90:
 814               	.LM174:
 815 032a 8917      		cp r24,r25
 816 032c 01F0      		breq .L93
 817 032e 8F33      		cpi r24,lo8(63)
 818 0330 01F4      		brne .L94
 819               	.L93:
 820               	.LM175:
 821 0332 3196      		adiw r30,1
 822               	.LM176:
 823 0334 1196      		adiw r26,1
 824 0336 00C0      		rjmp .L100
 825               	.LVL34:
 826               	.L94:
 827               	.LM177:
 828 0338 FA01      		movw r30,r20
 829 033a D901      		movw r26,r18
 830 033c 2F5F      		subi r18,lo8(-(1))
 831 033e 3F4F      		sbci r19,hi8(-(1))
 832 0340 00C0      		rjmp .L100
 833               	.LVL35:
 834               	.L88:
 835 0342 20E0      		ldi r18,lo8(0)
 836 0344 30E0      		ldi r19,hi8(0)
 837               	.LVL36:
 838 0346 40E0      		ldi r20,lo8(0)
 839 0348 50E0      		ldi r21,hi8(0)
 840               	.LVL37:
 841               	.L100:
 842               	.LM178:
 843 034a 9C91      		ld r25,X
 844 034c 9923      		tst r25
 845 034e 01F4      		brne .L95
 846 0350 00C0      		rjmp .L101
 847               	.L97:
 848               	.LM179:
 849 0352 3196      		adiw r30,1
 850               	.LVL38:
 851               	.L101:
 852               	.LM180:
 853 0354 9081      		ld r25,Z
 854 0356 9A32      		cpi r25,lo8(42)
 855 0358 01F0      		breq .L97
 856               	.LM181:
 857 035a 80E0      		ldi r24,lo8(0)
 858 035c 9923      		tst r25
 859 035e 01F4      		brne .L87
 860 0360 81E0      		ldi r24,lo8(1)
 861               	.L87:
 862               	.LM182:
 863 0362 0895      		ret
 864               	.LFE36:
 866               	.global	print_menu
 868               	print_menu:
 869               	.LFB27:
 870               	.LM183:
 871               	/* prologue: function */
 872               	/* frame size = 0 */
 873               	.LM184:
 874 0364 80E0      		ldi r24,lo8(__c.2789)
 875 0366 90E0      		ldi r25,hi8(__c.2789)
 876 0368 0E94 0000 		call uart_puts_p
 877               	.LM185:
 878 036c 80E0      		ldi r24,lo8(__c.2791)
 879 036e 90E0      		ldi r25,hi8(__c.2791)
 880 0370 0E94 0000 		call uart_puts_p
 881               	.LM186:
 882 0374 80E0      		ldi r24,lo8(__c.2793)
 883 0376 90E0      		ldi r25,hi8(__c.2793)
 884 0378 0E94 0000 		call uart_puts_p
 885               	.LM187:
 886 037c 80E0      		ldi r24,lo8(__c.2795)
 887 037e 90E0      		ldi r25,hi8(__c.2795)
 888 0380 0E94 0000 		call uart_puts_p
 889               	.LM188:
 890 0384 80E0      		ldi r24,lo8(__c.2797)
 891 0386 90E0      		ldi r25,hi8(__c.2797)
 892 0388 0E94 0000 		call uart_puts_p
 893               	.LM189:
 894 038c 80E0      		ldi r24,lo8(__c.2799)
 895 038e 90E0      		ldi r25,hi8(__c.2799)
 896 0390 0E94 0000 		call uart_puts_p
 897               	.LM190:
 898 0394 80E0      		ldi r24,lo8(__c.2801)
 899 0396 90E0      		ldi r25,hi8(__c.2801)
 900 0398 0E94 0000 		call uart_puts_p
 901               	.LM191:
 902 039c 80E0      		ldi r24,lo8(__c.2803)
 903 039e 90E0      		ldi r25,hi8(__c.2803)
 904 03a0 0E94 0000 		call uart_puts_p
 905               	.LM192:
 906 03a4 80E0      		ldi r24,lo8(__c.2805)
 907 03a6 90E0      		ldi r25,hi8(__c.2805)
 908 03a8 0E94 0000 		call uart_puts_p
 909               	.LM193:
 910 03ac 80E0      		ldi r24,lo8(__c.2807)
 911 03ae 90E0      		ldi r25,hi8(__c.2807)
 912 03b0 0E94 0000 		call uart_puts_p
 913               	.LM194:
 914 03b4 80E0      		ldi r24,lo8(__c.2809)
 915 03b6 90E0      		ldi r25,hi8(__c.2809)
 916 03b8 0E94 0000 		call uart_puts_p
 917               	.LM195:
 918 03bc 80E0      		ldi r24,lo8(__c.2811)
 919 03be 90E0      		ldi r25,hi8(__c.2811)
 920 03c0 0E94 0000 		call uart_puts_p
 921               	.LM196:
 922 03c4 80E0      		ldi r24,lo8(__c.2813)
 923 03c6 90E0      		ldi r25,hi8(__c.2813)
 924 03c8 0E94 0000 		call uart_puts_p
 925               	.LM197:
 926 03cc 80E0      		ldi r24,lo8(__c.2815)
 927 03ce 90E0      		ldi r25,hi8(__c.2815)
 928 03d0 0E94 0000 		call uart_puts_p
 929               	.LM198:
 930 03d4 80E0      		ldi r24,lo8(__c.2817)
 931 03d6 90E0      		ldi r25,hi8(__c.2817)
 932 03d8 0E94 0000 		call uart_puts_p
 933               	.LM199:
 934 03dc 80E0      		ldi r24,lo8(__c.2819)
 935 03de 90E0      		ldi r25,hi8(__c.2819)
 936 03e0 0E94 0000 		call uart_puts_p
 937               	.LM200:
 938 03e4 80E0      		ldi r24,lo8(__c.2821)
 939 03e6 90E0      		ldi r25,hi8(__c.2821)
 940 03e8 0E94 0000 		call uart_puts_p
 941               	.LM201:
 942 03ec 80E0      		ldi r24,lo8(__c.2823)
 943 03ee 90E0      		ldi r25,hi8(__c.2823)
 944 03f0 0E94 0000 		call uart_puts_p
 945               	.LM202:
 946 03f4 80E0      		ldi r24,lo8(__c.2825)
 947 03f6 90E0      		ldi r25,hi8(__c.2825)
 948 03f8 0E94 0000 		call uart_puts_p
 949               	/* epilogue start */
 950               	.LM203:
 951 03fc 0895      		ret
 952               	.LFE27:
 954               	.global	too_many_arguments_error
 956               	too_many_arguments_error:
 957               	.LFB34:
 958               	.LM204:
 959               	.LVL39:
 960 03fe 1F93      		push r17
 961 0400 CF93      		push r28
 962 0402 DF93      		push r29
 963               	/* prologue: function */
 964               	/* frame size = 0 */
 965 0404 282F      		mov r18,r24
 966 0406 EB01      		movw r28,r22
 967               	.LM205:
 968 0408 E0E0      		ldi r30,lo8(cmd_arg)
 969 040a F0E0      		ldi r31,hi8(cmd_arg)
 970 040c 10E0      		ldi r17,lo8(0)
 971               	.LVL40:
 972               	.L106:
 973               	.LBB269:
 974               	.LBB270:
 975               	.LM206:
 976 040e 8081      		ld r24,Z
 977 0410 9181      		ldd r25,Z+1
 978 0412 892B      		or r24,r25
 979 0414 01F0      		breq .L105
 980 0416 8281      		ldd r24,Z+2
 981 0418 8111      		cpse r24,__zero_reg__
 982               	.LM207:
 983 041a 1F5F      		subi r17,lo8(-(1))
 984               	.L105:
 985 041c 3396      		adiw r30,3
 986               	.LM208:
 987 041e 80E0      		ldi r24,hi8(cmd_arg+12)
 988 0420 E030      		cpi r30,lo8(cmd_arg+12)
 989 0422 F807      		cpc r31,r24
 990 0424 01F4      		brne .L106
 991               	.LBE270:
 992               	.LBE269:
 993               	.LM209:
 994 0426 2117      		cp r18,r17
 995 0428 00F0      		brlo .L107
 996 042a 80E0      		ldi r24,lo8(0)
 997 042c 00C0      		rjmp .L108
 998               	.L107:
 999               	.LM210:
 1000 042e 80E0      		ldi r24,lo8(__c.3067)
 1001 0430 90E0      		ldi r25,hi8(__c.3067)
 1002 0432 0E94 0000 		call uart_puts_p
 1003               	.LVL41:
 1004               	.LM211:
 1005 0436 812F      		mov r24,r17
 1006 0438 90E0      		ldi r25,lo8(0)
 1007 043a 0E94 0000 		call uart_putw_dec
 1008               	.LM212:
 1009 043e 80E0      		ldi r24,lo8(__c.3069)
 1010 0440 90E0      		ldi r25,hi8(__c.3069)
 1011 0442 0E94 0000 		call uart_puts_p
 1012               	.LM213:
 1013 0446 CE01      		movw r24,r28
 1014 0448 0E94 0000 		call uart_puts
 1015               	.LM214:
 1016 044c 8AE0      		ldi r24,lo8(10)
 1017 044e 0E94 0000 		call uart_putc
 1018 0452 81E0      		ldi r24,lo8(1)
 1019               	.LVL42:
 1020               	.L108:
 1021               	/* epilogue start */
 1022               	.LM215:
 1023 0454 DF91      		pop r29
 1024 0456 CF91      		pop r28
 1025               	.LVL43:
 1026 0458 1F91      		pop r17
 1027               	.LVL44:
 1028 045a 0895      		ret
 1029               	.LFE34:
 1031               	.global	split_cmd_line_args
 1033               	split_cmd_line_args:
 1034               	.LFB33:
 1035               	.LM216:
 1036               	.LVL45:
 1037 045c CF93      		push r28
 1038 045e DF93      		push r29
 1039               	/* prologue: function */
 1040               	/* frame size = 0 */
 1041 0460 EC01      		movw r28,r24
 1042               	.LM217:
 1043 0462 8CE0      		ldi r24,lo8(12)
 1044               	.LVL46:
 1045 0464 E0E0      		ldi r30,lo8(cmd_arg)
 1046 0466 F0E0      		ldi r31,hi8(cmd_arg)
 1047 0468 DF01      		movw r26,r30
 1048 046a 1D92      		st X+,__zero_reg__
 1049 046c 8A95      	        dec r24
 1050 046e 01F4      		brne .-6
 1051 0470 50E0      		ldi r21,lo8(0)
 1052               	.LVL47:
 1053 0472 41E0      		ldi r20,lo8(1)
 1054               	.LVL48:
 1055               	.LM218:
 1056 0474 A62F      		mov r26,r22
 1057 0476 B0E0      		ldi r27,lo8(0)
 1058               	.LVL49:
 1059 0478 00C0      		rjmp .L112
 1060               	.LVL50:
 1061               	.L119:
 1062               	.LM219:
 1063 047a 242F      		mov r18,r20
 1064               	.LVL51:
 1065 047c 30E0      		ldi r19,lo8(0)
 1066 047e FE01      		movw r30,r28
 1067 0480 E20F      		add r30,r18
 1068 0482 F31F      		adc r31,r19
 1069 0484 8081      		ld r24,Z
 1070 0486 8032      		cpi r24,lo8(32)
 1071 0488 01F0      		breq .L113
 1072               	.LVL52:
 1073 048a 2F5F      		subi r18,lo8(-(1))
 1074 048c 3F4F      		sbci r19,hi8(-(1))
 1075               	.LVL53:
 1076 048e 2A17      		cp r18,r26
 1077 0490 3B07      		cpc r19,r27
 1078 0492 01F4      		brne .L114
 1079               	.LVL54:
 1080               	.L113:
 1081               	.LM220:
 1082 0494 842F      		mov r24,r20
 1083 0496 90E0      		ldi r25,lo8(0)
 1084               	.LVL55:
 1085 0498 0196      		adiw r24,1
 1086               	.LVL56:
 1087 049a 8A17      		cp r24,r26
 1088 049c 9B07      		cpc r25,r27
 1089 049e 01F4      		brne .L115
 1090               	.LVL57:
 1091 04a0 462F      		mov r20,r22
 1092               	.LVL58:
 1093               	.L115:
 1094 04a2 E0E0      		ldi r30,lo8(cmd_arg)
 1095 04a4 F0E0      		ldi r31,hi8(cmd_arg)
 1096 04a6 20E0      		ldi r18,lo8(0)
 1097               	.LVL59:
 1098               	.L117:
 1099               	.LBB271:
 1100               	.LBB272:
 1101               	.LBB273:
 1102               	.LBB274:
 1103               	.LM221:
 1104 04a8 8081      		ld r24,Z
 1105 04aa 9181      		ldd r25,Z+1
 1106 04ac 892B      		or r24,r25
 1107 04ae 01F0      		breq .L116
 1108 04b0 8281      		ldd r24,Z+2
 1109 04b2 8111      		cpse r24,__zero_reg__
 1110               	.LM222:
 1111 04b4 2F5F      		subi r18,lo8(-(1))
 1112               	.L116:
 1113 04b6 3396      		adiw r30,3
 1114               	.LM223:
 1115 04b8 80E0      		ldi r24,hi8(cmd_arg+12)
 1116 04ba E030      		cpi r30,lo8(cmd_arg+12)
 1117 04bc F807      		cpc r31,r24
 1118 04be 01F4      		brne .L117
 1119               	.LBE274:
 1120               	.LBE273:
 1121               	.LM224:
 1122 04c0 2430      		cpi r18,lo8(4)
 1123 04c2 00F4      		brsh .L118
 1124               	.LM225:
 1125 04c4 822F      		mov r24,r18
 1126 04c6 90E0      		ldi r25,lo8(0)
 1127               	.LVL60:
 1128 04c8 FC01      		movw r30,r24
 1129 04ca EE0F      		lsl r30
 1130 04cc FF1F      		rol r31
 1131 04ce E80F      		add r30,r24
 1132 04d0 F91F      		adc r31,r25
 1133 04d2 E050      		subi r30,lo8(-(cmd_arg))
 1134 04d4 F040      		sbci r31,hi8(-(cmd_arg))
 1135 04d6 CE01      		movw r24,r28
 1136 04d8 850F      		add r24,r21
 1137 04da 911D      		adc r25,__zero_reg__
 1138 04dc 9183      		std Z+1,r25
 1139 04de 8083      		st Z,r24
 1140               	.LM226:
 1141 04e0 842F      		mov r24,r20
 1142 04e2 851B      		sub r24,r21
 1143 04e4 8283      		std Z+2,r24
 1144               	.LVL61:
 1145               	.L118:
 1146               	.LBE272:
 1147               	.LBE271:
 1148               	.LM227:
 1149 04e6 4F5F      		subi r20,lo8(-(1))
 1150 04e8 542F      		mov r21,r20
 1151               	.LVL62:
 1152               	.L114:
 1153               	.LM228:
 1154 04ea 4F5F      		subi r20,lo8(-(1))
 1155               	.LVL63:
 1156               	.L112:
 1157               	.LM229:
 1158 04ec 4617      		cp r20,r22
 1159 04ee 00F0      		brlo .L119
 1160               	.LVL64:
 1161 04f0 E0E0      		ldi r30,lo8(cmd_arg)
 1162 04f2 F0E0      		ldi r31,hi8(cmd_arg)
 1163 04f4 20E0      		ldi r18,lo8(0)
 1164               	.LVL65:
 1165               	.L121:
 1166               	.LBB275:
 1167               	.LBB276:
 1168               	.LM230:
 1169 04f6 8081      		ld r24,Z
 1170 04f8 9181      		ldd r25,Z+1
 1171 04fa 892B      		or r24,r25
 1172 04fc 01F0      		breq .L120
 1173 04fe 8281      		ldd r24,Z+2
 1174 0500 8111      		cpse r24,__zero_reg__
 1175               	.LM231:
 1176 0502 2F5F      		subi r18,lo8(-(1))
 1177               	.L120:
 1178 0504 3396      		adiw r30,3
 1179               	.LM232:
 1180 0506 A0E0      		ldi r26,hi8(cmd_arg+12)
 1181 0508 E030      		cpi r30,lo8(cmd_arg+12)
 1182 050a FA07      		cpc r31,r26
 1183 050c 01F4      		brne .L121
 1184               	.LBE276:
 1185               	.LBE275:
 1186               	.LM233:
 1187 050e 822F      		mov r24,r18
 1188               	/* epilogue start */
 1189 0510 DF91      		pop r29
 1190 0512 CF91      		pop r28
 1191               	.LVL66:
 1192 0514 0895      		ret
 1193               	.LFE33:
 1195               	.global	get_cmd_arg
 1197               	get_cmd_arg:
 1198               	.LFB31:
 1199               	.LM234:
 1200               	.LVL67:
 1201               	/* prologue: function */
 1202               	/* frame size = 0 */
 1203 0516 982F      		mov r25,r24
 1204               	.LM235:
 1205 0518 89E1      		ldi r24,lo8(25)
 1206               	.LVL68:
 1207 051a E0E0      		ldi r30,lo8(general_buffer)
 1208 051c F0E0      		ldi r31,hi8(general_buffer)
 1209 051e DF01      		movw r26,r30
 1210 0520 1D92      		st X+,__zero_reg__
 1211 0522 8A95      	        dec r24
 1212 0524 01F4      		brne .-6
 1213               	.LM236:
 1214 0526 9430      		cpi r25,lo8(4)
 1215 0528 00F4      		brsh .L126
 1216               	.LM237:
 1217 052a 892F      		mov r24,r25
 1218 052c 90E0      		ldi r25,lo8(0)
 1219               	.LVL69:
 1220 052e FC01      		movw r30,r24
 1221 0530 EE0F      		lsl r30
 1222 0532 FF1F      		rol r31
 1223 0534 E80F      		add r30,r24
 1224 0536 F91F      		adc r31,r25
 1225 0538 E050      		subi r30,lo8(-(cmd_arg))
 1226 053a F040      		sbci r31,hi8(-(cmd_arg))
 1227 053c 6081      		ld r22,Z
 1228 053e 7181      		ldd r23,Z+1
 1229 0540 6115      		cp r22,__zero_reg__
 1230 0542 7105      		cpc r23,__zero_reg__
 1231 0544 01F0      		breq .L126
 1232 0546 4281      		ldd r20,Z+2
 1233 0548 4423      		tst r20
 1234 054a 01F0      		breq .L126
 1235               	.LM238:
 1236 054c 4A31      		cpi r20,lo8(26)
 1237 054e 00F0      		brlo .L127
 1238 0550 49E1      		ldi r20,lo8(25)
 1239 0552 50E0      		ldi r21,hi8(25)
 1240 0554 00C0      		rjmp .L128
 1241               	.L127:
 1242 0556 50E0      		ldi r21,lo8(0)
 1243               	.L128:
 1244 0558 80E0      		ldi r24,lo8(general_buffer)
 1245 055a 90E0      		ldi r25,hi8(general_buffer)
 1246 055c 0E94 0000 		call strncpy
 1247 0560 9C01      		movw r18,r24
 1248 0562 00C0      		rjmp .L129
 1249               	.LVL70:
 1250               	.L126:
 1251 0564 20E0      		ldi r18,lo8(0)
 1252 0566 30E0      		ldi r19,hi8(0)
 1253               	.L129:
 1254               	.LM239:
 1255 0568 C901      		movw r24,r18
 1256               	/* epilogue start */
 1257 056a 0895      		ret
 1258               	.LFE31:
 1261               	read_line:
 1262               	.LFB16:
 1263               	.LM240:
 1264               	.LVL71:
 1265 056c BF92      		push r11
 1266 056e CF92      		push r12
 1267 0570 DF92      		push r13
 1268 0572 EF92      		push r14
 1269 0574 FF92      		push r15
 1270 0576 0F93      		push r16
 1271 0578 1F93      		push r17
 1272 057a CF93      		push r28
 1273 057c DF93      		push r29
 1274               	/* prologue: function */
 1275               	/* frame size = 0 */
 1276 057e EC01      		movw r28,r24
 1277 0580 B62E      		mov r11,r22
 1278               	.LM241:
 1279 0582 60E0      		ldi r22,lo8(0)
 1280 0584 70E0      		ldi r23,hi8(0)
 1281               	.LVL72:
 1282 0586 4B2D      		mov r20,r11
 1283 0588 50E0      		ldi r21,lo8(0)
 1284 058a 0E94 0000 		call memset
 1285               	.LVL73:
 1286 058e 00E0      		ldi r16,lo8(0)
 1287               	.LVL74:
 1288               	.LM242:
 1289 0590 CB2C      		mov r12,r11
 1290 0592 DD24      		clr r13
 1291 0594 0894      		sec
 1292 0596 C108      		sbc r12,__zero_reg__
 1293 0598 D108      		sbc r13,__zero_reg__
 1294 059a 00C0      		rjmp .L141
 1295               	.LVL75:
 1296               	.L137:
 1297               	.LBB277:
 1298               	.LM243:
 1299 059c 0E94 0000 		call uart_getc
 1300 05a0 182F      		mov r17,r24
 1301               	.LM244:
 1302 05a2 8830      		cpi r24,lo8(8)
 1303 05a4 01F0      		breq .L133
 1304               	.LVL76:
 1305 05a6 8F37      		cpi r24,lo8(127)
 1306 05a8 01F4      		brne .L134
 1307               	.L133:
 1308               	.LM245:
 1309 05aa 0023      		tst r16
 1310 05ac 01F0      		breq .L141
 1311               	.LVL77:
 1312               	.LM246:
 1313 05ae 0150      		subi r16,lo8(-(-1))
 1314               	.LM247:
 1315 05b0 FE01      		movw r30,r28
 1316 05b2 E00F      		add r30,r16
 1317 05b4 F11D      		adc r31,__zero_reg__
 1318 05b6 1082      		st Z,__zero_reg__
 1319               	.LM248:
 1320 05b8 88E0      		ldi r24,lo8(8)
 1321               	.LVL78:
 1322 05ba 0E94 0000 		call uart_putc
 1323               	.LM249:
 1324 05be 80E2      		ldi r24,lo8(32)
 1325 05c0 0E94 0000 		call uart_putc
 1326               	.LM250:
 1327 05c4 88E0      		ldi r24,lo8(8)
 1328 05c6 0E94 0000 		call uart_putc
 1329 05ca 00C0      		rjmp .L141
 1330               	.LVL79:
 1331               	.L134:
 1332               	.LM251:
 1333 05cc 0E94 0000 		call uart_putc
 1334               	.LVL80:
 1335 05d0 FE01      		movw r30,r28
 1336 05d2 EE0D      		add r30,r14
 1337 05d4 FF1D      		adc r31,r15
 1338               	.LM252:
 1339 05d6 1A30      		cpi r17,lo8(10)
 1340 05d8 01F4      		brne .L135
 1341               	.LM253:
 1342 05da 1082      		st Z,__zero_reg__
 1343 05dc 00C0      		rjmp .L136
 1344               	.L135:
 1345               	.LM254:
 1346 05de 1083      		st Z,r17
 1347               	.LM255:
 1348 05e0 0F5F      		subi r16,lo8(-(1))
 1349               	.LVL81:
 1350               	.L141:
 1351               	.LBE277:
 1352               	.LM256:
 1353 05e2 E02E      		mov r14,r16
 1354 05e4 FF24      		clr r15
 1355 05e6 EC14      		cp r14,r12
 1356 05e8 FD04      		cpc r15,r13
 1357 05ea 04F0      		brlt .L137
 1358               	.LVL82:
 1359               	.L136:
 1360               	.LM257:
 1361 05ec CE01      		movw r24,r28
 1362 05ee 6B2D      		mov r22,r11
 1363 05f0 0E94 0000 		call split_cmd_line_args
 1364               	.LM258:
 1365 05f4 802F      		mov r24,r16
 1366               	/* epilogue start */
 1367 05f6 DF91      		pop r29
 1368 05f8 CF91      		pop r28
 1369               	.LVL83:
 1370 05fa 1F91      		pop r17
 1371               	.LVL84:
 1372 05fc 0F91      		pop r16
 1373 05fe FF90      		pop r15
 1374               	.LVL85:
 1375 0600 EF90      		pop r14
 1376               	.LVL86:
 1377 0602 DF90      		pop r13
 1378 0604 CF90      		pop r12
 1379 0606 BF90      		pop r11
 1380               	.LVL87:
 1381 0608 0895      		ret
 1382               	.LFE16:
 1384               	.global	read_buffer
 1386               	read_buffer:
 1387               	.LFB22:
 1388               	.LM259:
 1389               	.LVL88:
 1390 060a CF92      		push r12
 1391 060c DF92      		push r13
 1392 060e EF92      		push r14
 1393 0610 FF92      		push r15
 1394 0612 0F93      		push r16
 1395 0614 1F93      		push r17
 1396 0616 CF93      		push r28
 1397 0618 DF93      		push r29
 1398               	/* prologue: function */
 1399               	/* frame size = 0 */
 1400 061a EC01      		movw r28,r24
 1401 061c 162F      		mov r17,r22
 1402               	.LM260:
 1403 061e 60E0      		ldi r22,lo8(0)
 1404 0620 70E0      		ldi r23,hi8(0)
 1405               	.LVL89:
 1406 0622 412F      		mov r20,r17
 1407 0624 50E0      		ldi r21,lo8(0)
 1408 0626 0E94 0000 		call memset
 1409               	.LVL90:
 1410 062a 00E0      		ldi r16,lo8(0)
 1411               	.LVL91:
 1412               	.LM261:
 1413 062c C12E      		mov r12,r17
 1414 062e DD24      		clr r13
 1415 0630 0894      		sec
 1416 0632 C108      		sbc r12,__zero_reg__
 1417 0634 D108      		sbc r13,__zero_reg__
 1418 0636 00C0      		rjmp .L152
 1419               	.LVL92:
 1420               	.L148:
 1421               	.LBB278:
 1422               	.LM262:
 1423 0638 0E94 0000 		call uart_getc
 1424 063c 182F      		mov r17,r24
 1425               	.LVL93:
 1426               	.LM263:
 1427 063e 8830      		cpi r24,lo8(8)
 1428 0640 01F0      		breq .L144
 1429               	.LVL94:
 1430 0642 8F37      		cpi r24,lo8(127)
 1431 0644 01F4      		brne .L145
 1432               	.L144:
 1433               	.LM264:
 1434 0646 0023      		tst r16
 1435 0648 01F0      		breq .L152
 1436               	.LVL95:
 1437               	.LM265:
 1438 064a 0150      		subi r16,lo8(-(-1))
 1439               	.LM266:
 1440 064c FE01      		movw r30,r28
 1441 064e E00F      		add r30,r16
 1442 0650 F11D      		adc r31,__zero_reg__
 1443 0652 1082      		st Z,__zero_reg__
 1444               	.LM267:
 1445 0654 88E0      		ldi r24,lo8(8)
 1446               	.LVL96:
 1447 0656 0E94 0000 		call uart_putc
 1448               	.LM268:
 1449 065a 80E2      		ldi r24,lo8(32)
 1450 065c 0E94 0000 		call uart_putc
 1451               	.LM269:
 1452 0660 88E0      		ldi r24,lo8(8)
 1453 0662 0E94 0000 		call uart_putc
 1454 0666 00C0      		rjmp .L152
 1455               	.LVL97:
 1456               	.L145:
 1457               	.LM270:
 1458 0668 0E94 0000 		call uart_putc
 1459               	.LVL98:
 1460 066c FE01      		movw r30,r28
 1461 066e EE0D      		add r30,r14
 1462 0670 FF1D      		adc r31,r15
 1463               	.LM271:
 1464 0672 1A31      		cpi r17,lo8(26)
 1465 0674 01F4      		brne .L146
 1466               	.LM272:
 1467 0676 1082      		st Z,__zero_reg__
 1468 0678 00C0      		rjmp .L147
 1469               	.L146:
 1470               	.LM273:
 1471 067a 1083      		st Z,r17
 1472               	.LM274:
 1473 067c 0F5F      		subi r16,lo8(-(1))
 1474               	.LVL99:
 1475               	.L152:
 1476               	.LBE278:
 1477               	.LM275:
 1478 067e E02E      		mov r14,r16
 1479 0680 FF24      		clr r15
 1480 0682 EC14      		cp r14,r12
 1481 0684 FD04      		cpc r15,r13
 1482 0686 04F0      		brlt .L148
 1483               	.LVL100:
 1484               	.L147:
 1485               	.LM276:
 1486 0688 802F      		mov r24,r16
 1487               	/* epilogue start */
 1488 068a DF91      		pop r29
 1489 068c CF91      		pop r28
 1490               	.LVL101:
 1491 068e 1F91      		pop r17
 1492               	.LVL102:
 1493 0690 0F91      		pop r16
 1494 0692 FF90      		pop r15
 1495               	.LVL103:
 1496 0694 EF90      		pop r14
 1497               	.LVL104:
 1498 0696 DF90      		pop r13
 1499 0698 CF90      		pop r12
 1500 069a 0895      		ret
 1501               	.LFE22:
 1503               		.data
 1504               	.LC0:
 1505 0000 2F00      		.string	"/"
 1506               		.text
 1507               	.global	init_media
 1509               	init_media:
 1510               	.LFB15:
 1511               	.LM277:
 1512 069c 0F93      		push r16
 1513 069e 1F93      		push r17
 1514 06a0 DF93      		push r29
 1515 06a2 CF93      		push r28
 1516 06a4 CDB7      		in r28,__SP_L__
 1517 06a6 DEB7      		in r29,__SP_H__
 1518 06a8 E197      		sbiw r28,49
 1519 06aa 0FB6      		in __tmp_reg__,__SREG__
 1520 06ac F894      		cli
 1521 06ae DEBF      		out __SP_H__,r29
 1522 06b0 0FBE      		out __SREG__,__tmp_reg__
 1523 06b2 CDBF      		out __SP_L__,r28
 1524               	/* prologue: function */
 1525               	/* frame size = 49 */
 1526               	.LM278:
 1527 06b4 0E94 0000 		call sd_raw_init
 1528 06b8 8823      		tst r24
 1529 06ba 01F4      		brne .L154
 1530               	.LM279:
 1531 06bc 83E0      		ldi r24,lo8(3)
 1532 06be 0E94 0000 		call blink_error
 1533               	.L154:
 1534               	.LM280:
 1535 06c2 0E94 0000 		call fat_clear_handles
 1536               	.LM281:
 1537 06c6 80E0      		ldi r24,lo8(gs(sd_raw_read))
 1538 06c8 90E0      		ldi r25,hi8(gs(sd_raw_read))
 1539 06ca 60E0      		ldi r22,lo8(gs(sd_raw_read_interval))
 1540 06cc 70E0      		ldi r23,hi8(gs(sd_raw_read_interval))
 1541 06ce 40E0      		ldi r20,lo8(gs(sd_raw_write))
 1542 06d0 50E0      		ldi r21,hi8(gs(sd_raw_write))
 1543 06d2 20E0      		ldi r18,lo8(gs(sd_raw_write_interval))
 1544 06d4 30E0      		ldi r19,hi8(gs(sd_raw_write_interval))
 1545 06d6 00E0      		ldi r16,lo8(0)
 1546 06d8 0E94 0000 		call partition_open
 1547 06dc 9093 0000 		sts (partition)+1,r25
 1548 06e0 8093 0000 		sts partition,r24
 1549               	.LM282:
 1550 06e4 892B      		or r24,r25
 1551 06e6 01F4      		brne .L155
 1552               	.LM283:
 1553 06e8 80E0      		ldi r24,lo8(gs(sd_raw_read))
 1554 06ea 90E0      		ldi r25,hi8(gs(sd_raw_read))
 1555 06ec 60E0      		ldi r22,lo8(gs(sd_raw_read_interval))
 1556 06ee 70E0      		ldi r23,hi8(gs(sd_raw_read_interval))
 1557 06f0 40E0      		ldi r20,lo8(gs(sd_raw_write))
 1558 06f2 50E0      		ldi r21,hi8(gs(sd_raw_write))
 1559 06f4 20E0      		ldi r18,lo8(gs(sd_raw_write_interval))
 1560 06f6 30E0      		ldi r19,hi8(gs(sd_raw_write_interval))
 1561 06f8 0FEF      		ldi r16,lo8(-1)
 1562 06fa 0E94 0000 		call partition_open
 1563 06fe 9093 0000 		sts (partition)+1,r25
 1564 0702 8093 0000 		sts partition,r24
 1565               	.L155:
 1566               	.LM284:
 1567 0706 8091 0000 		lds r24,partition
 1568 070a 9091 0000 		lds r25,(partition)+1
 1569 070e 0E94 0000 		call fat_open
 1570 0712 9093 0000 		sts (fs)+1,r25
 1571 0716 8093 0000 		sts fs,r24
 1572               	.LM285:
 1573 071a 60E0      		ldi r22,lo8(.LC0)
 1574 071c 70E0      		ldi r23,hi8(.LC0)
 1575 071e 8E01      		movw r16,r28
 1576 0720 0F5F      		subi r16,lo8(-(1))
 1577 0722 1F4F      		sbci r17,hi8(-(1))
 1578 0724 A801      		movw r20,r16
 1579 0726 0E94 0000 		call fat_get_dir_entry_of_path
 1580               	.LM286:
 1581 072a 8091 0000 		lds r24,fs
 1582 072e 9091 0000 		lds r25,(fs)+1
 1583 0732 B801      		movw r22,r16
 1584 0734 0E94 0000 		call fat_open_dir
 1585 0738 9093 0000 		sts (dd)+1,r25
 1586 073c 8093 0000 		sts dd,r24
 1587               	/* epilogue start */
 1588               	.LM287:
 1589 0740 E196      		adiw r28,49
 1590 0742 0FB6      		in __tmp_reg__,__SREG__
 1591 0744 F894      		cli
 1592 0746 DEBF      		out __SP_H__,r29
 1593 0748 0FBE      		out __SREG__,__tmp_reg__
 1594 074a CDBF      		out __SP_L__,r28
 1595 074c CF91      		pop r28
 1596 074e DF91      		pop r29
 1597 0750 1F91      		pop r17
 1598 0752 0F91      		pop r16
 1599 0754 0895      		ret
 1600               	.LFE15:
 1603               	find_file_in_dir:
 1604               	.LFB24:
 1605               	.LM288:
 1606               	.LVL105:
 1607 0756 CF92      		push r12
 1608 0758 DF92      		push r13
 1609 075a FF92      		push r15
 1610 075c 0F93      		push r16
 1611               	.LVL106:
 1612 075e 1F93      		push r17
 1613 0760 CF93      		push r28
 1614 0762 DF93      		push r29
 1615               	/* prologue: function */
 1616               	/* frame size = 0 */
 1617 0764 6B01      		movw r12,r22
 1618 0766 EA01      		movw r28,r20
 1619 0768 F22E      		mov r15,r18
 1620 076a 132F      		mov r17,r19
 1621               	.LVL107:
 1622 076c 00C0      		rjmp .L165
 1623               	.LVL108:
 1624               	.L161:
 1625               	.LM289:
 1626 076e 8F2D      		mov r24,r15
 1627 0770 912F      		mov r25,r17
 1628 0772 BE01      		movw r22,r28
 1629 0774 0E94 0000 		call strcmp
 1630               	.LM290:
 1631 0778 0097      		sbiw r24,0
 1632 077a 01F0      		breq .L159
 1633 077c 0130      		cpi r16,lo8(1)
 1634 077e 01F4      		brne .L165
 1635 0780 CE01      		movw r24,r28
 1636 0782 6F2D      		mov r22,r15
 1637 0784 712F      		mov r23,r17
 1638 0786 0E94 0000 		call wildcmp
 1639 078a 8130      		cpi r24,lo8(1)
 1640 078c 01F4      		brne .L165
 1641               	.L159:
 1642               	.LM291:
 1643 078e C601      		movw r24,r12
 1644 0790 0E94 0000 		call fat_reset_dir
 1645 0794 81E0      		ldi r24,lo8(1)
 1646 0796 00C0      		rjmp .L160
 1647               	.LVL109:
 1648               	.L165:
 1649               	.LM292:
 1650 0798 C601      		movw r24,r12
 1651               	.LVL110:
 1652 079a 6F2D      		mov r22,r15
 1653 079c 712F      		mov r23,r17
 1654 079e 0E94 0000 		call fat_read_dir
 1655 07a2 8823      		tst r24
 1656 07a4 01F4      		brne .L161
 1657               	.L160:
 1658               	/* epilogue start */
 1659               	.LM293:
 1660 07a6 DF91      		pop r29
 1661 07a8 CF91      		pop r28
 1662               	.LVL111:
 1663 07aa 1F91      		pop r17
 1664               	.LVL112:
 1665 07ac 0F91      		pop r16
 1666               	.LVL113:
 1667 07ae FF90      		pop r15
 1668               	.LVL114:
 1669 07b0 DF90      		pop r13
 1670 07b2 CF90      		pop r12
 1671               	.LVL115:
 1672 07b4 0895      		ret
 1673               	.LFE24:
 1676               	open_file_in_dir:
 1677               	.LFB25:
 1678               	.LM294:
 1679               	.LVL116:
 1680 07b6 CF92      		push r12
 1681 07b8 DF92      		push r13
 1682 07ba EF92      		push r14
 1683 07bc FF92      		push r15
 1684 07be 0F93      		push r16
 1685 07c0 DF93      		push r29
 1686 07c2 CF93      		push r28
 1687 07c4 CDB7      		in r28,__SP_L__
 1688 07c6 DEB7      		in r29,__SP_H__
 1689 07c8 E197      		sbiw r28,49
 1690 07ca 0FB6      		in __tmp_reg__,__SREG__
 1691 07cc F894      		cli
 1692 07ce DEBF      		out __SP_H__,r29
 1693 07d0 0FBE      		out __SREG__,__tmp_reg__
 1694 07d2 CDBF      		out __SP_L__,r28
 1695               	/* prologue: function */
 1696               	/* frame size = 49 */
 1697 07d4 7C01      		movw r14,r24
 1698               	.LM295:
 1699 07d6 6E01      		movw r12,r28
 1700 07d8 0894      		sec
 1701 07da C11C      		adc r12,__zero_reg__
 1702 07dc D11C      		adc r13,__zero_reg__
 1703 07de 9601      		movw r18,r12
 1704 07e0 00E0      		ldi r16,lo8(0)
 1705 07e2 0E94 0000 		call find_file_in_dir
 1706               	.LVL117:
 1707 07e6 8823      		tst r24
 1708 07e8 01F4      		brne .L167
 1709 07ea 20E0      		ldi r18,lo8(0)
 1710 07ec 30E0      		ldi r19,hi8(0)
 1711 07ee 00C0      		rjmp .L168
 1712               	.L167:
 1713               	.LM296:
 1714 07f0 C701      		movw r24,r14
 1715 07f2 B601      		movw r22,r12
 1716 07f4 0E94 0000 		call fat_open_file
 1717 07f8 9C01      		movw r18,r24
 1718               	.L168:
 1719               	.LM297:
 1720 07fa C901      		movw r24,r18
 1721               	/* epilogue start */
 1722 07fc E196      		adiw r28,49
 1723 07fe 0FB6      		in __tmp_reg__,__SREG__
 1724 0800 F894      		cli
 1725 0802 DEBF      		out __SP_H__,r29
 1726 0804 0FBE      		out __SREG__,__tmp_reg__
 1727 0806 CDBF      		out __SP_L__,r28
 1728 0808 CF91      		pop r28
 1729 080a DF91      		pop r29
 1730 080c 0F91      		pop r16
 1731 080e FF90      		pop r15
 1732 0810 EF90      		pop r14
 1733               	.LVL118:
 1734 0812 DF90      		pop r13
 1735 0814 CF90      		pop r12
 1736 0816 0895      		ret
 1737               	.LFE25:
 1739               	.global	append_file
 1741               	append_file:
 1742               	.LFB14:
 1743               	.LM298:
 1744               	.LVL119:
 1745 0818 DF92      		push r13
 1746 081a EF92      		push r14
 1747 081c FF92      		push r15
 1748 081e 0F93      		push r16
 1749 0820 1F93      		push r17
 1750 0822 DF93      		push r29
 1751 0824 CF93      		push r28
 1752 0826 00D0      		rcall .
 1753 0828 00D0      		rcall .
 1754 082a CDB7      		in r28,__SP_L__
 1755 082c DEB7      		in r29,__SP_H__
 1756               	/* prologue: function */
 1757               	/* frame size = 4 */
 1758 082e 8C01      		movw r16,r24
 1759               	.LM299:
 1760 0830 6091 0000 		lds r22,dd
 1761 0834 7091 0000 		lds r23,(dd)+1
 1762 0838 8091 0000 		lds r24,fs
 1763 083c 9091 0000 		lds r25,(fs)+1
 1764               	.LVL120:
 1765 0840 A801      		movw r20,r16
 1766 0842 0E94 0000 		call open_file_in_dir
 1767 0846 7C01      		movw r14,r24
 1768               	.LVL121:
 1769               	.LM300:
 1770 0848 0097      		sbiw r24,0
 1771 084a 01F4      		brne .L171
 1772               	.LVL122:
 1773               	.LM301:
 1774 084c 80E0      		ldi r24,lo8(__c.2452)
 1775 084e 90E0      		ldi r25,hi8(__c.2452)
 1776               	.LVL123:
 1777 0850 0E94 0000 		call uart_puts_p
 1778               	.LM302:
 1779 0854 C801      		movw r24,r16
 1780 0856 0E94 0000 		call uart_puts
 1781               	.LM303:
 1782 085a 8AE0      		ldi r24,lo8(10)
 1783 085c 0E94 0000 		call uart_putc
 1784 0860 00C0      		rjmp .L203
 1785               	.LVL124:
 1786               	.L171:
 1787               	.LM304:
 1788 0862 1982      		std Y+1,__zero_reg__
 1789 0864 1A82      		std Y+2,__zero_reg__
 1790 0866 1B82      		std Y+3,__zero_reg__
 1791 0868 1C82      		std Y+4,__zero_reg__
 1792               	.LVL125:
 1793               	.LM305:
 1794 086a BE01      		movw r22,r28
 1795 086c 6F5F      		subi r22,lo8(-(1))
 1796 086e 7F4F      		sbci r23,hi8(-(1))
 1797 0870 42E0      		ldi r20,lo8(2)
 1798 0872 0E94 0000 		call fat_seek_file
 1799               	.LVL126:
 1800 0876 8823      		tst r24
 1801 0878 01F4      		brne .L173
 1802               	.LM306:
 1803 087a 80E0      		ldi r24,lo8(__c.2455)
 1804 087c 90E0      		ldi r25,hi8(__c.2455)
 1805 087e 0E94 0000 		call uart_puts_p
 1806               	.LM307:
 1807 0882 C801      		movw r24,r16
 1808 0884 0E94 0000 		call uart_puts
 1809               	.LM308:
 1810 0888 8AE0      		ldi r24,lo8(10)
 1811 088a 0E94 0000 		call uart_putc
 1812               	.LM309:
 1813 088e C701      		movw r24,r14
 1814 0890 0E94 0000 		call fat_close_file
 1815               	.L203:
 1816 0894 80E0      		ldi r24,lo8(0)
 1817 0896 00C0      		rjmp .L172
 1818               	.L173:
 1819               	.LM310:
 1820 0898 8CE3      		ldi r24,lo8(60)
 1821 089a 0E94 0000 		call uart_putc
 1822               	.LM311:
 1823 089e 289A      		sbi 37-32,0
 1824               	.LM312:
 1825 08a0 1092 0000 		sts (read_spot)+1,__zero_reg__
 1826 08a4 1092 0000 		sts read_spot,__zero_reg__
 1827               	.LM313:
 1828 08a8 1092 0000 		sts (checked_spot)+1,__zero_reg__
 1829 08ac 1092 0000 		sts checked_spot,__zero_reg__
 1830 08b0 80E0      		ldi r24,lo8(0)
 1831 08b2 90E0      		ldi r25,hi8(0)
 1832               	.LVL127:
 1833               	.L174:
 1834               	.LBB279:
 1835               	.LM314:
 1836 08b4 FC01      		movw r30,r24
 1837 08b6 E050      		subi r30,lo8(-(input_buffer))
 1838 08b8 F040      		sbci r31,hi8(-(input_buffer))
 1839 08ba 1082      		st Z,__zero_reg__
 1840               	.LM315:
 1841 08bc 0196      		adiw r24,1
 1842 08be 24E0      		ldi r18,hi8(1024)
 1843 08c0 8030      		cpi r24,lo8(1024)
 1844 08c2 9207      		cpc r25,r18
 1845 08c4 01F4      		brne .L174
 1846               	.LBE279:
 1847               	.LM316:
 1848 08c6 8091 C100 		lds r24,193
 1849               	.LVL128:
 1850 08ca 8068      		ori r24,lo8(-128)
 1851 08cc 8093 C100 		sts 193,r24
 1852               	.LM317:
 1853               	/* #APP */
 1854               	 ;  1641 "main.c" 1
 1855 08d0 7894      		sei
 1856               	 ;  0 "" 2
 1857               	/* #NOAPP */
 1858 08d2 DD24      		clr r13
 1859               	.LVL129:
 1860               	.L199:
 1861 08d4 00E0      		ldi r16,lo8(0)
 1862 08d6 10E0      		ldi r17,hi8(0)
 1863               	.LVL130:
 1864 08d8 00C0      		rjmp .L175
 1865               	.L187:
 1866               	.LBB280:
 1867               	.LM318:
 1868 08da 0F5F      		subi r16,lo8(-(1))
 1869 08dc 1F4F      		sbci r17,hi8(-(1))
 1870 08de 83E1      		ldi r24,hi8(5001)
 1871 08e0 0938      		cpi r16,lo8(5001)
 1872 08e2 1807      		cpc r17,r24
 1873 08e4 00F4      		brsh .+2
 1874 08e6 00C0      		rjmp .L176
 1875               	.LM319:
 1876 08e8 8091 0000 		lds r24,checked_spot
 1877 08ec 9091 0000 		lds r25,(checked_spot)+1
 1878 08f0 892B      		or r24,r25
 1879 08f2 01F4      		brne .+2
 1880 08f4 00C0      		rjmp .L177
 1881 08f6 8091 0000 		lds r24,checked_spot
 1882 08fa 9091 0000 		lds r25,(checked_spot)+1
 1883 08fe 8050      		subi r24,lo8(512)
 1884 0900 9240      		sbci r25,hi8(512)
 1885 0902 01F4      		brne .+2
 1886 0904 00C0      		rjmp .L177
 1887               	.LBB281:
 1888               	.LM320:
 1889 0906 8091 0000 		lds r24,checked_spot
 1890 090a 9091 0000 		lds r25,(checked_spot)+1
 1891 090e 8050      		subi r24,lo8(512)
 1892 0910 9240      		sbci r25,hi8(512)
 1893 0912 00F4      		brsh .L178
 1894               	.LM321:
 1895 0914 4091 0000 		lds r20,checked_spot
 1896 0918 5091 0000 		lds r21,(checked_spot)+1
 1897 091c C701      		movw r24,r14
 1898 091e 60E0      		ldi r22,lo8(input_buffer)
 1899 0920 70E0      		ldi r23,hi8(input_buffer)
 1900 0922 0E94 0000 		call fat_write_file
 1901 0926 2091 0000 		lds r18,checked_spot
 1902 092a 3091 0000 		lds r19,(checked_spot)+1
 1903 092e 8217      		cp r24,r18
 1904 0930 9307      		cpc r25,r19
 1905 0932 01F0      		breq .L179
 1906               	.LM322:
 1907 0934 80E0      		ldi r24,lo8(__c.2463)
 1908 0936 90E0      		ldi r25,hi8(__c.2463)
 1909 0938 00C0      		rjmp .L200
 1910               	.L178:
 1911               	.LM323:
 1912 093a 4091 0000 		lds r20,checked_spot
 1913 093e 5091 0000 		lds r21,(checked_spot)+1
 1914 0942 4050      		subi r20,lo8(-(-512))
 1915 0944 5240      		sbci r21,hi8(-(-512))
 1916 0946 C701      		movw r24,r14
 1917 0948 60E0      		ldi r22,lo8(input_buffer+512)
 1918 094a 70E0      		ldi r23,hi8(input_buffer+512)
 1919 094c 0E94 0000 		call fat_write_file
 1920 0950 2091 0000 		lds r18,checked_spot
 1921 0954 3091 0000 		lds r19,(checked_spot)+1
 1922 0958 2050      		subi r18,lo8(-(-512))
 1923 095a 3240      		sbci r19,hi8(-(-512))
 1924 095c 8217      		cp r24,r18
 1925 095e 9307      		cpc r25,r19
 1926 0960 01F0      		breq .L179
 1927               	.LM324:
 1928 0962 80E0      		ldi r24,lo8(__c.2465)
 1929 0964 90E0      		ldi r25,hi8(__c.2465)
 1930               	.L200:
 1931 0966 0E94 0000 		call uart_puts_p
 1932               	.L179:
 1933               	.LM325:
 1934 096a 8091 0000 		lds r24,checked_spot
 1935 096e 9091 0000 		lds r25,(checked_spot)+1
 1936 0972 8150      		subi r24,lo8(513)
 1937 0974 9240      		sbci r25,hi8(513)
 1938 0976 00F4      		brsh .L180
 1939 0978 60E0      		ldi r22,lo8(0)
 1940 097a 70E0      		ldi r23,hi8(0)
 1941               	.LVL131:
 1942 097c 00C0      		rjmp .L181
 1943               	.LVL132:
 1944               	.L180:
 1945 097e 60E0      		ldi r22,lo8(512)
 1946 0980 72E0      		ldi r23,hi8(512)
 1947               	.LVL133:
 1948               	.L181:
 1949               	.LM326:
 1950               	/* #APP */
 1951               	 ;  1679 "main.c" 1
 1952 0982 F894      		cli
 1953               	 ;  0 "" 2
 1954               	/* #NOAPP */
 1955 0984 AB01      		movw r20,r22
 1956 0986 00C0      		rjmp .L182
 1957               	.LVL134:
 1958               	.L184:
 1959               	.LM327:
 1960 0988 8091 0000 		lds r24,checked_spot
 1961 098c 9091 0000 		lds r25,(checked_spot)+1
 1962 0990 FC01      		movw r30,r24
 1963 0992 E050      		subi r30,lo8(-(input_buffer))
 1964 0994 F040      		sbci r31,hi8(-(input_buffer))
 1965 0996 2081      		ld r18,Z
 1966 0998 FA01      		movw r30,r20
 1967 099a E050      		subi r30,lo8(-(input_buffer))
 1968 099c F040      		sbci r31,hi8(-(input_buffer))
 1969 099e 2083      		st Z,r18
 1970 09a0 0196      		adiw r24,1
 1971 09a2 9093 0000 		sts (checked_spot)+1,r25
 1972 09a6 8093 0000 		sts checked_spot,r24
 1973               	.LM328:
 1974 09aa 8091 0000 		lds r24,checked_spot
 1975 09ae 9091 0000 		lds r25,(checked_spot)+1
 1976 09b2 8050      		subi r24,lo8(1024)
 1977 09b4 9440      		sbci r25,hi8(1024)
 1978 09b6 00F0      		brlo .L183
 1979               	.LM329:
 1980 09b8 1092 0000 		sts (checked_spot)+1,__zero_reg__
 1981 09bc 1092 0000 		sts checked_spot,__zero_reg__
 1982               	.L183:
 1983               	.LM330:
 1984 09c0 4F5F      		subi r20,lo8(-(1))
 1985 09c2 5F4F      		sbci r21,hi8(-(1))
 1986               	.LVL135:
 1987               	.L182:
 1988               	.LM331:
 1989 09c4 2091 0000 		lds r18,checked_spot
 1990 09c8 3091 0000 		lds r19,(checked_spot)+1
 1991 09cc 8091 0000 		lds r24,read_spot
 1992 09d0 9091 0000 		lds r25,(read_spot)+1
 1993 09d4 2817      		cp r18,r24
 1994 09d6 3907      		cpc r19,r25
 1995 09d8 01F4      		brne .L184
 1996               	.LM332:
 1997 09da 5093 0000 		sts (read_spot)+1,r21
 1998 09de 4093 0000 		sts read_spot,r20
 1999               	.LM333:
 2000 09e2 7093 0000 		sts (checked_spot)+1,r23
 2001 09e6 6093 0000 		sts checked_spot,r22
 2002               	.LM334:
 2003               	/* #APP */
 2004               	 ;  1691 "main.c" 1
 2005 09ea 7894      		sei
 2006               	 ;  0 "" 2
 2007               	.LVL136:
 2008               	/* #NOAPP */
 2009               	.L177:
 2010               	.LBE281:
 2011               	.LM335:
 2012 09ec 0E94 0000 		call sd_raw_sync
 2013               	.LVL137:
 2014 09f0 00C0      		rjmp .L185
 2015               	.L186:
 2016               	.LM336:
 2017 09f2 2898      		cbi 37-32,0
 2018               	.LM337:
 2019 09f4 83B7      		in r24,83-32
 2020 09f6 8160      		ori r24,lo8(1)
 2021 09f8 83BF      		out 83-32,r24
 2022               	/* #APP */
 2023               	 ;  1701 "main.c" 1
 2024 09fa 8895      		sleep
 2025               		
 2026               	 ;  0 "" 2
 2027               	/* #NOAPP */
 2028 09fc 83B7      		in r24,83-32
 2029 09fe 8E7F      		andi r24,lo8(-2)
 2030 0a00 83BF      		out 83-32,r24
 2031               	.L185:
 2032               	.LM338:
 2033 0a02 2091 0000 		lds r18,checked_spot
 2034 0a06 3091 0000 		lds r19,(checked_spot)+1
 2035 0a0a 8091 0000 		lds r24,read_spot
 2036 0a0e 9091 0000 		lds r25,(read_spot)+1
 2037 0a12 2817      		cp r18,r24
 2038 0a14 3907      		cpc r19,r25
 2039 0a16 01F0      		breq .L186
 2040 0a18 00E0      		ldi r16,lo8(0)
 2041 0a1a 10E0      		ldi r17,hi8(0)
 2042               	.L176:
 2043               	.LM339:
 2044 0a1c 81E0      		ldi r24,lo8(1)
 2045 0a1e 90E0      		ldi r25,hi8(1)
 2046 0a20 0E94 0000 		call delay_ms
 2047               	.L175:
 2048               	.LM340:
 2049 0a24 2091 0000 		lds r18,checked_spot
 2050 0a28 3091 0000 		lds r19,(checked_spot)+1
 2051 0a2c 8091 0000 		lds r24,read_spot
 2052 0a30 9091 0000 		lds r25,(read_spot)+1
 2053 0a34 2817      		cp r18,r24
 2054 0a36 3907      		cpc r19,r25
 2055 0a38 01F4      		brne .+2
 2056 0a3a 00C0      		rjmp .L187
 2057               	.LM341:
 2058 0a3c E091 0000 		lds r30,checked_spot
 2059 0a40 F091 0000 		lds r31,(checked_spot)+1
 2060 0a44 E050      		subi r30,lo8(-(input_buffer))
 2061 0a46 F040      		sbci r31,hi8(-(input_buffer))
 2062 0a48 9081      		ld r25,Z
 2063 0a4a 8091 0000 		lds r24,setting_escape_character
 2064 0a4e 9817      		cp r25,r24
 2065 0a50 01F4      		brne .L188
 2066               	.LM342:
 2067 0a52 D394      		inc r13
 2068               	.LM343:
 2069 0a54 8091 0000 		lds r24,setting_max_escape_character
 2070 0a58 D816      		cp r13,r24
 2071 0a5a 01F4      		brne .L189
 2072               	.LM344:
 2073               	/* #APP */
 2074               	 ;  1716 "main.c" 1
 2075 0a5c F894      		cli
 2076               	 ;  0 "" 2
 2077               	.LM345:
 2078               	/* #NOAPP */
 2079 0a5e 8091 C100 		lds r24,193
 2080 0a62 8F77      		andi r24,lo8(127)
 2081 0a64 8093 C100 		sts 193,r24
 2082 0a68 00C0      		rjmp .L190
 2083               	.L188:
 2084               	.LM346:
 2085 0a6a DD24      		clr r13
 2086               	.L189:
 2087               	.LM347:
 2088 0a6c 8091 0000 		lds r24,checked_spot
 2089 0a70 9091 0000 		lds r25,(checked_spot)+1
 2090 0a74 0196      		adiw r24,1
 2091 0a76 9093 0000 		sts (checked_spot)+1,r25
 2092 0a7a 8093 0000 		sts checked_spot,r24
 2093               	.LM348:
 2094 0a7e 8091 0000 		lds r24,checked_spot
 2095 0a82 9091 0000 		lds r25,(checked_spot)+1
 2096 0a86 8050      		subi r24,lo8(512)
 2097 0a88 9240      		sbci r25,hi8(512)
 2098 0a8a 01F4      		brne .L191
 2099               	.LM349:
 2100 0a8c C701      		movw r24,r14
 2101 0a8e 60E0      		ldi r22,lo8(input_buffer)
 2102 0a90 70E0      		ldi r23,hi8(input_buffer)
 2103 0a92 40E0      		ldi r20,lo8(512)
 2104 0a94 52E0      		ldi r21,hi8(512)
 2105 0a96 0E94 0000 		call fat_write_file
 2106 0a9a 8050      		subi r24,lo8(512)
 2107 0a9c 9240      		sbci r25,hi8(512)
 2108 0a9e 01F0      		breq .L191
 2109               	.LM350:
 2110 0aa0 80E0      		ldi r24,lo8(__c.2479)
 2111 0aa2 90E0      		ldi r25,hi8(__c.2479)
 2112 0aa4 00C0      		rjmp .L201
 2113               	.L191:
 2114               	.LM351:
 2115 0aa6 8091 0000 		lds r24,checked_spot
 2116 0aaa 9091 0000 		lds r25,(checked_spot)+1
 2117 0aae 8050      		subi r24,lo8(1024)
 2118 0ab0 9440      		sbci r25,hi8(1024)
 2119 0ab2 01F0      		breq .+2
 2120 0ab4 00C0      		rjmp .L199
 2121               	.LM352:
 2122 0ab6 1092 0000 		sts (checked_spot)+1,__zero_reg__
 2123 0aba 1092 0000 		sts checked_spot,__zero_reg__
 2124               	.LM353:
 2125 0abe C701      		movw r24,r14
 2126 0ac0 60E0      		ldi r22,lo8(input_buffer+512)
 2127 0ac2 70E0      		ldi r23,hi8(input_buffer+512)
 2128 0ac4 40E0      		ldi r20,lo8(512)
 2129 0ac6 52E0      		ldi r21,hi8(512)
 2130 0ac8 0E94 0000 		call fat_write_file
 2131 0acc 8050      		subi r24,lo8(512)
 2132 0ace 9240      		sbci r25,hi8(512)
 2133 0ad0 01F4      		brne .+2
 2134 0ad2 00C0      		rjmp .L199
 2135               	.LM354:
 2136 0ad4 80E0      		ldi r24,lo8(__c.2481)
 2137 0ad6 90E0      		ldi r25,hi8(__c.2481)
 2138               	.L201:
 2139 0ad8 0E94 0000 		call uart_puts_p
 2140               	.L190:
 2141               	.LBE280:
 2142               	.LM355:
 2143 0adc 8091 0000 		lds r24,checked_spot
 2144 0ae0 9091 0000 		lds r25,(checked_spot)+1
 2145 0ae4 892B      		or r24,r25
 2146 0ae6 01F0      		breq .L193
 2147 0ae8 8091 0000 		lds r24,checked_spot
 2148 0aec 9091 0000 		lds r25,(checked_spot)+1
 2149 0af0 8050      		subi r24,lo8(512)
 2150 0af2 9240      		sbci r25,hi8(512)
 2151 0af4 01F0      		breq .L193
 2152               	.LM356:
 2153 0af6 8091 0000 		lds r24,checked_spot
 2154 0afa 9091 0000 		lds r25,(checked_spot)+1
 2155 0afe 8050      		subi r24,lo8(512)
 2156 0b00 9240      		sbci r25,hi8(512)
 2157 0b02 00F4      		brsh .L194
 2158               	.LM357:
 2159 0b04 4091 0000 		lds r20,checked_spot
 2160 0b08 5091 0000 		lds r21,(checked_spot)+1
 2161 0b0c C701      		movw r24,r14
 2162 0b0e 60E0      		ldi r22,lo8(input_buffer)
 2163 0b10 70E0      		ldi r23,hi8(input_buffer)
 2164 0b12 0E94 0000 		call fat_write_file
 2165 0b16 2091 0000 		lds r18,checked_spot
 2166 0b1a 3091 0000 		lds r19,(checked_spot)+1
 2167 0b1e 8217      		cp r24,r18
 2168 0b20 9307      		cpc r25,r19
 2169 0b22 01F0      		breq .L193
 2170               	.LM358:
 2171 0b24 80E0      		ldi r24,lo8(__c.2484)
 2172 0b26 90E0      		ldi r25,hi8(__c.2484)
 2173 0b28 00C0      		rjmp .L202
 2174               	.L194:
 2175               	.LM359:
 2176 0b2a 4091 0000 		lds r20,checked_spot
 2177 0b2e 5091 0000 		lds r21,(checked_spot)+1
 2178 0b32 4050      		subi r20,lo8(-(-512))
 2179 0b34 5240      		sbci r21,hi8(-(-512))
 2180 0b36 C701      		movw r24,r14
 2181 0b38 60E0      		ldi r22,lo8(input_buffer+512)
 2182 0b3a 70E0      		ldi r23,hi8(input_buffer+512)
 2183 0b3c 0E94 0000 		call fat_write_file
 2184 0b40 2091 0000 		lds r18,checked_spot
 2185 0b44 3091 0000 		lds r19,(checked_spot)+1
 2186 0b48 2050      		subi r18,lo8(-(-512))
 2187 0b4a 3240      		sbci r19,hi8(-(-512))
 2188 0b4c 8217      		cp r24,r18
 2189 0b4e 9307      		cpc r25,r19
 2190 0b50 01F0      		breq .L193
 2191               	.LM360:
 2192 0b52 80E0      		ldi r24,lo8(__c.2486)
 2193 0b54 90E0      		ldi r25,hi8(__c.2486)
 2194               	.L202:
 2195 0b56 0E94 0000 		call uart_puts_p
 2196               	.L193:
 2197               	.LM361:
 2198 0b5a C701      		movw r24,r14
 2199 0b5c 0E94 0000 		call fat_close_file
 2200               	.LM362:
 2201 0b60 2898      		cbi 37-32,0
 2202               	.LM363:
 2203 0b62 80E0      		ldi r24,lo8(__c.2488)
 2204 0b64 90E0      		ldi r25,hi8(__c.2488)
 2205 0b66 0E94 0000 		call uart_puts_p
 2206 0b6a 81E0      		ldi r24,lo8(1)
 2207               	.LVL138:
 2208               	.L172:
 2209               	/* epilogue start */
 2210               	.LM364:
 2211 0b6c 0F90      		pop __tmp_reg__
 2212 0b6e 0F90      		pop __tmp_reg__
 2213 0b70 0F90      		pop __tmp_reg__
 2214 0b72 0F90      		pop __tmp_reg__
 2215 0b74 CF91      		pop r28
 2216 0b76 DF91      		pop r29
 2217 0b78 1F91      		pop r17
 2218 0b7a 0F91      		pop r16
 2219               	.LVL139:
 2220 0b7c FF90      		pop r15
 2221 0b7e EF90      		pop r14
 2222               	.LVL140:
 2223 0b80 DF90      		pop r13
 2224               	.LVL141:
 2225 0b82 0895      		ret
 2226               	.LFE14:
 2228               		.data
 2229               	.LC1:
 2230 0002 4C4F 4725 		.string	"LOG%05u.txt"
 2230      3035 752E 
 2230      7478 7400 
 2231               		.text
 2232               	.global	newlog
 2234               	newlog:
 2235               	.LFB12:
 2236               	.LM365:
 2237 0b84 9F92      		push r9
 2238 0b86 AF92      		push r10
 2239 0b88 BF92      		push r11
 2240 0b8a CF92      		push r12
 2241 0b8c DF92      		push r13
 2242 0b8e EF92      		push r14
 2243 0b90 FF92      		push r15
 2244 0b92 0F93      		push r16
 2245 0b94 1F93      		push r17
 2246 0b96 DF93      		push r29
 2247 0b98 CF93      		push r28
 2248 0b9a CDB7      		in r28,__SP_L__
 2249 0b9c DEB7      		in r29,__SP_H__
 2250 0b9e E197      		sbiw r28,49
 2251 0ba0 0FB6      		in __tmp_reg__,__SREG__
 2252 0ba2 F894      		cli
 2253 0ba4 DEBF      		out __SP_H__,r29
 2254 0ba6 0FBE      		out __SREG__,__tmp_reg__
 2255 0ba8 CDBF      		out __SP_L__,r28
 2256               	/* prologue: function */
 2257               	/* frame size = 49 */
 2258               	.L205:
 2259               	.LBB282:
 2260               	.LBB283:
 2261               	.LM366:
 2262 0baa F999      		sbic 63-32,1
 2263 0bac 00C0      		rjmp .L205
 2264               	.LM367:
 2265 0bae 12BC      		out 66-32,__zero_reg__
 2266               	.LM368:
 2267 0bb0 83E0      		ldi r24,lo8(3)
 2268 0bb2 81BD      		out 65-32,r24
 2269               	.LM369:
 2270 0bb4 F89A      		sbi 63-32,0
 2271               	.LM370:
 2272 0bb6 30B5      		in r19,64-32
 2273               	.LVL142:
 2274               	.L206:
 2275               	.LBE283:
 2276               	.LBE282:
 2277               	.LBB284:
 2278               	.LBB285:
 2279               	.LM371:
 2280 0bb8 F999      		sbic 63-32,1
 2281 0bba 00C0      		rjmp .L206
 2282               	.LM372:
 2283 0bbc 12BC      		out 66-32,__zero_reg__
 2284               	.LM373:
 2285 0bbe 84E0      		ldi r24,lo8(4)
 2286 0bc0 81BD      		out 65-32,r24
 2287               	.LM374:
 2288 0bc2 F89A      		sbi 63-32,0
 2289               	.LM375:
 2290 0bc4 20B5      		in r18,64-32
 2291               	.LVL143:
 2292               	.LBE285:
 2293               	.LBE284:
 2294               	.LM376:
 2295 0bc6 3F3F      		cpi r19,lo8(-1)
 2296 0bc8 01F4      		brne .L207
 2297 0bca 2F3F      		cpi r18,lo8(-1)
 2298 0bcc 01F4      		brne .L207
 2299               	.L220:
 2300               	.LBB286:
 2301               	.LBB287:
 2302               	.LM377:
 2303 0bce F999      		sbic 63-32,1
 2304 0bd0 00C0      		rjmp .L220
 2305               	.LM378:
 2306 0bd2 12BC      		out 66-32,__zero_reg__
 2307               	.LM379:
 2308 0bd4 83E0      		ldi r24,lo8(3)
 2309 0bd6 81BD      		out 65-32,r24
 2310               	.LM380:
 2311 0bd8 10BC      		out 64-32,__zero_reg__
 2312               	.LM381:
 2313 0bda FA9A      		sbi 63-32,2
 2314               	.LM382:
 2315 0bdc F99A      		sbi 63-32,1
 2316               	.L209:
 2317               	.LBE287:
 2318               	.LBE286:
 2319               	.LBB288:
 2320               	.LBB289:
 2321               	.LM383:
 2322 0bde F999      		sbic 63-32,1
 2323 0be0 00C0      		rjmp .L209
 2324               	.LM384:
 2325 0be2 12BC      		out 66-32,__zero_reg__
 2326               	.LM385:
 2327 0be4 84E0      		ldi r24,lo8(4)
 2328 0be6 81BD      		out 65-32,r24
 2329               	.LM386:
 2330 0be8 10BC      		out 64-32,__zero_reg__
 2331               	.LM387:
 2332 0bea FA9A      		sbi 63-32,2
 2333               	.LM388:
 2334 0bec F99A      		sbi 63-32,1
 2335 0bee CC24      		clr r12
 2336 0bf0 DD24      		clr r13
 2337               	.LVL144:
 2338 0bf2 00C0      		rjmp .L210
 2339               	.LVL145:
 2340               	.L207:
 2341               	.LBE289:
 2342               	.LBE288:
 2343               	.LM389:
 2344 0bf4 922F      		mov r25,r18
 2345               	.LVL146:
 2346 0bf6 80E0      		ldi r24,lo8(0)
 2347               	.LVL147:
 2348               	.LM390:
 2349 0bf8 C32E      		mov r12,r19
 2350               	.LVL148:
 2351 0bfa DD24      		clr r13
 2352               	.LVL149:
 2353 0bfc C82A      		or r12,r24
 2354 0bfe D92A      		or r13,r25
 2355               	.LVL150:
 2356               	.LM391:
 2357 0c00 8EEF      		ldi r24,lo8(-2)
 2358 0c02 C816      		cp r12,r24
 2359 0c04 8FEF      		ldi r24,hi8(-2)
 2360 0c06 D806      		cpc r13,r24
 2361 0c08 01F4      		brne .L210
 2362               	.LM392:
 2363 0c0a 80E0      		ldi r24,lo8(__c.2226)
 2364 0c0c 90E0      		ldi r25,hi8(__c.2226)
 2365 0c0e 00C0      		rjmp .L229
 2366               	.L210:
 2367               	.LM393:
 2368 0c10 00D0      		rcall .
 2369 0c12 00D0      		rcall .
 2370 0c14 00D0      		rcall .
 2371 0c16 EDB7      		in r30,__SP_L__
 2372 0c18 FEB7      		in r31,__SP_H__
 2373 0c1a 3196      		adiw r30,1
 2374 0c1c 00E0      		ldi r16,lo8(general_buffer)
 2375 0c1e 10E0      		ldi r17,hi8(general_buffer)
 2376 0c20 ADB7      		in r26,__SP_L__
 2377 0c22 BEB7      		in r27,__SP_H__
 2378 0c24 1296      		adiw r26,1+1
 2379 0c26 1C93      		st X,r17
 2380 0c28 0E93      		st -X,r16
 2381 0c2a 1197      		sbiw r26,1
 2382 0c2c 50E0      		ldi r21,lo8(.LC1)
 2383 0c2e E52E      		mov r14,r21
 2384 0c30 50E0      		ldi r21,hi8(.LC1)
 2385 0c32 F52E      		mov r15,r21
 2386 0c34 F382      		std Z+3,r15
 2387 0c36 E282      		std Z+2,r14
 2388 0c38 D582      		std Z+5,r13
 2389 0c3a C482      		std Z+4,r12
 2390 0c3c 0E94 0000 		call sprintf
 2391               	.LVL151:
 2392 0c40 8DB7      		in r24,__SP_L__
 2393 0c42 9EB7      		in r25,__SP_H__
 2394 0c44 0696      		adiw r24,6
 2395 0c46 0FB6      		in __tmp_reg__,__SREG__
 2396 0c48 F894      		cli
 2397 0c4a 9EBF      		out __SP_H__,r25
 2398 0c4c 0FBE      		out __SREG__,__tmp_reg__
 2399 0c4e 8DBF      		out __SP_L__,r24
 2400               	.LM394:
 2401 0c50 902E      		mov r9,r16
 2402 0c52 012F      		mov r16,r17
 2403 0c54 5E01      		movw r10,r28
 2404 0c56 0894      		sec
 2405 0c58 A11C      		adc r10,__zero_reg__
 2406 0c5a B11C      		adc r11,__zero_reg__
 2407               	.LM395:
 2408 0c5c 1E2D      		mov r17,r14
 2409 0c5e EF2C      		mov r14,r15
 2410 0c60 00C0      		rjmp .L212
 2411               	.LVL152:
 2412               	.L213:
 2413               	.LM396:
 2414 0c62 6901      		movw r12,r18
 2415               	.LM397:
 2416 0c64 00D0      		rcall .
 2417 0c66 00D0      		rcall .
 2418 0c68 00D0      		rcall .
 2419 0c6a EDB7      		in r30,__SP_L__
 2420 0c6c FEB7      		in r31,__SP_H__
 2421 0c6e 3196      		adiw r30,1
 2422 0c70 ADB7      		in r26,__SP_L__
 2423 0c72 BEB7      		in r27,__SP_H__
 2424 0c74 1196      		adiw r26,1
 2425 0c76 9C92      		st X,r9
 2426 0c78 1197      		sbiw r26,1
 2427 0c7a 1296      		adiw r26,2
 2428 0c7c 0C93      		st X,r16
 2429 0c7e 1283      		std Z+2,r17
 2430 0c80 E382      		std Z+3,r14
 2431 0c82 3583      		std Z+5,r19
 2432 0c84 2483      		std Z+4,r18
 2433 0c86 0E94 0000 		call sprintf
 2434               	.LVL153:
 2435               	.LM398:
 2436 0c8a 8DB7      		in r24,__SP_L__
 2437 0c8c 9EB7      		in r25,__SP_H__
 2438 0c8e 0696      		adiw r24,6
 2439 0c90 0FB6      		in __tmp_reg__,__SREG__
 2440 0c92 F894      		cli
 2441 0c94 9EBF      		out __SP_H__,r25
 2442 0c96 0FBE      		out __SREG__,__tmp_reg__
 2443 0c98 8DBF      		out __SP_L__,r24
 2444 0c9a 9EEF      		ldi r25,lo8(-2)
 2445 0c9c C916      		cp r12,r25
 2446 0c9e 9FEF      		ldi r25,hi8(-2)
 2447 0ca0 D906      		cpc r13,r25
 2448 0ca2 00F0      		brlo .L212
 2449               	.LM399:
 2450 0ca4 80E0      		ldi r24,lo8(__c.2230)
 2451 0ca6 90E0      		ldi r25,hi8(__c.2230)
 2452               	.LVL154:
 2453               	.L229:
 2454 0ca8 0E94 0000 		call uart_puts_p
 2455               	.LVL155:
 2456 0cac 00C0      		rjmp .L218
 2457               	.L212:
 2458               	.LM400:
 2459 0cae 8091 0000 		lds r24,dd
 2460 0cb2 9091 0000 		lds r25,(dd)+1
 2461 0cb6 60E0      		ldi r22,lo8(general_buffer)
 2462 0cb8 70E0      		ldi r23,hi8(general_buffer)
 2463 0cba A501      		movw r20,r10
 2464 0cbc 0E94 0000 		call fat_create_file
 2465 0cc0 9601      		movw r18,r12
 2466 0cc2 2F5F      		subi r18,lo8(-(1))
 2467 0cc4 3F4F      		sbci r19,hi8(-(1))
 2468               	.LVL156:
 2469 0cc6 8823      		tst r24
 2470 0cc8 01F0      		breq .L213
 2471               	.LM401:
 2472 0cca 932F      		mov r25,r19
 2473               	.LVL157:
 2474               	.L214:
 2475               	.LBB290:
 2476               	.LBB291:
 2477               	.LM402:
 2478 0ccc F999      		sbic 63-32,1
 2479 0cce 00C0      		rjmp .L214
 2480               	.LM403:
 2481 0cd0 12BC      		out 66-32,__zero_reg__
 2482               	.LM404:
 2483 0cd2 83E0      		ldi r24,lo8(3)
 2484 0cd4 81BD      		out 65-32,r24
 2485               	.LM405:
 2486 0cd6 20BD      		out 64-32,r18
 2487               	.LM406:
 2488 0cd8 FA9A      		sbi 63-32,2
 2489               	.LM407:
 2490 0cda F99A      		sbi 63-32,1
 2491               	.L215:
 2492               	.LBE291:
 2493               	.LBE290:
 2494               	.LBB292:
 2495               	.LBB293:
 2496               	.LM408:
 2497 0cdc F999      		sbic 63-32,1
 2498 0cde 00C0      		rjmp .L215
 2499               	.LM409:
 2500 0ce0 12BC      		out 66-32,__zero_reg__
 2501               	.LM410:
 2502 0ce2 84E0      		ldi r24,lo8(4)
 2503 0ce4 81BD      		out 65-32,r24
 2504               	.LM411:
 2505 0ce6 F89A      		sbi 63-32,0
 2506               	.LM412:
 2507 0ce8 80B5      		in r24,64-32
 2508               	.LBE293:
 2509               	.LBE292:
 2510               	.LM413:
 2511 0cea 8917      		cp r24,r25
 2512 0cec 01F0      		breq .L216
 2513               	.L219:
 2514               	.LBB294:
 2515               	.LBB295:
 2516               	.LM414:
 2517 0cee F999      		sbic 63-32,1
 2518 0cf0 00C0      		rjmp .L219
 2519               	.LM415:
 2520 0cf2 12BC      		out 66-32,__zero_reg__
 2521               	.LM416:
 2522 0cf4 84E0      		ldi r24,lo8(4)
 2523 0cf6 81BD      		out 65-32,r24
 2524               	.LM417:
 2525 0cf8 90BD      		out 64-32,r25
 2526               	.LM418:
 2527 0cfa FA9A      		sbi 63-32,2
 2528               	.LM419:
 2529 0cfc F99A      		sbi 63-32,1
 2530               	.L216:
 2531               	.LBE295:
 2532               	.LBE294:
 2533               	.LM420:
 2534 0cfe 80E0      		ldi r24,lo8(general_buffer)
 2535 0d00 90E0      		ldi r25,hi8(general_buffer)
 2536 0d02 0E94 0000 		call append_file
 2537               	.LVL158:
 2538               	.L218:
 2539               	/* epilogue start */
 2540               	.LM421:
 2541 0d06 E196      		adiw r28,49
 2542 0d08 0FB6      		in __tmp_reg__,__SREG__
 2543 0d0a F894      		cli
 2544 0d0c DEBF      		out __SP_H__,r29
 2545 0d0e 0FBE      		out __SREG__,__tmp_reg__
 2546 0d10 CDBF      		out __SP_L__,r28
 2547 0d12 CF91      		pop r28
 2548 0d14 DF91      		pop r29
 2549 0d16 1F91      		pop r17
 2550 0d18 0F91      		pop r16
 2551 0d1a FF90      		pop r15
 2552 0d1c EF90      		pop r14
 2553 0d1e DF90      		pop r13
 2554               	.LVL159:
 2555 0d20 CF90      		pop r12
 2556               	.LVL160:
 2557 0d22 BF90      		pop r11
 2558 0d24 AF90      		pop r10
 2559 0d26 9F90      		pop r9
 2560 0d28 0895      		ret
 2561               	.LFE12:
 2563               		.data
 2564               	.LC2:
 2565 000e 5345 514C 		.string	"SEQLOG.txt"
 2565      4F47 2E74 
 2565      7874 00
 2566               		.text
 2567               	.global	seqlog
 2569               	seqlog:
 2570               	.LFB11:
 2571               	.LM422:
 2572 0d2a EF92      		push r14
 2573 0d2c FF92      		push r15
 2574 0d2e 0F93      		push r16
 2575 0d30 1F93      		push r17
 2576 0d32 DF93      		push r29
 2577 0d34 CF93      		push r28
 2578 0d36 CDB7      		in r28,__SP_L__
 2579 0d38 DEB7      		in r29,__SP_H__
 2580 0d3a EE97      		sbiw r28,62
 2581 0d3c 0FB6      		in __tmp_reg__,__SREG__
 2582 0d3e F894      		cli
 2583 0d40 DEBF      		out __SP_H__,r29
 2584 0d42 0FBE      		out __SREG__,__tmp_reg__
 2585 0d44 CDBF      		out __SP_L__,r28
 2586               	/* prologue: function */
 2587               	/* frame size = 62 */
 2588               	.LM423:
 2589 0d46 8E01      		movw r16,r28
 2590 0d48 0F5F      		subi r16,lo8(-(1))
 2591 0d4a 1F4F      		sbci r17,hi8(-(1))
 2592 0d4c C801      		movw r24,r16
 2593 0d4e 60E0      		ldi r22,lo8(.LC2)
 2594 0d50 70E0      		ldi r23,hi8(.LC2)
 2595 0d52 0E94 0000 		call strcpy
 2596               	.LM424:
 2597 0d56 6091 0000 		lds r22,dd
 2598 0d5a 7091 0000 		lds r23,(dd)+1
 2599 0d5e 8091 0000 		lds r24,fs
 2600 0d62 9091 0000 		lds r25,(fs)+1
 2601 0d66 A801      		movw r20,r16
 2602 0d68 0E94 0000 		call open_file_in_dir
 2603 0d6c 7C01      		movw r14,r24
 2604               	.LVL161:
 2605               	.LM425:
 2606 0d6e 0097      		sbiw r24,0
 2607 0d70 01F4      		brne .L231
 2608               	.LVL162:
 2609               	.LBB296:
 2610               	.LM426:
 2611 0d72 80E0      		ldi r24,lo8(__c.2211)
 2612 0d74 90E0      		ldi r25,hi8(__c.2211)
 2613               	.LVL163:
 2614 0d76 0E94 0000 		call uart_puts_p
 2615               	.LM427:
 2616 0d7a 8091 0000 		lds r24,dd
 2617 0d7e 9091 0000 		lds r25,(dd)+1
 2618 0d82 B801      		movw r22,r16
 2619 0d84 AE01      		movw r20,r28
 2620 0d86 425F      		subi r20,lo8(-(14))
 2621 0d88 5F4F      		sbci r21,hi8(-(14))
 2622 0d8a 0E94 0000 		call fat_create_file
 2623 0d8e 8823      		tst r24
 2624 0d90 01F4      		brne .L231
 2625               	.LM428:
 2626 0d92 80E0      		ldi r24,lo8(__c.2214)
 2627 0d94 90E0      		ldi r25,hi8(__c.2214)
 2628 0d96 0E94 0000 		call uart_puts_p
 2629 0d9a 00C0      		rjmp .L233
 2630               	.LVL164:
 2631               	.L231:
 2632               	.LBE296:
 2633               	.LM429:
 2634 0d9c C701      		movw r24,r14
 2635 0d9e 0E94 0000 		call fat_close_file
 2636               	.LM430:
 2637 0da2 CE01      		movw r24,r28
 2638 0da4 0196      		adiw r24,1
 2639 0da6 0E94 0000 		call append_file
 2640               	.L233:
 2641               	/* epilogue start */
 2642               	.LM431:
 2643 0daa EE96      		adiw r28,62
 2644 0dac 0FB6      		in __tmp_reg__,__SREG__
 2645 0dae F894      		cli
 2646 0db0 DEBF      		out __SP_H__,r29
 2647 0db2 0FBE      		out __SREG__,__tmp_reg__
 2648 0db4 CDBF      		out __SP_L__,r28
 2649 0db6 CF91      		pop r28
 2650 0db8 DF91      		pop r29
 2651 0dba 1F91      		pop r17
 2652 0dbc 0F91      		pop r16
 2653 0dbe FF90      		pop r15
 2654 0dc0 EF90      		pop r14
 2655               	.LVL165:
 2656 0dc2 0895      		ret
 2657               	.LFE11:
 2659               		.data
 2660               	.LC3:
 2661 0019 434F 4E46 		.string	"CONFIG.txt"
 2661      4947 2E74 
 2661      7874 00
 2662               	.LC4:
 2663 0024 4661 696C 		.string	"Failed to create config file"
 2663      6564 2074 
 2663      6F20 6372 
 2663      6561 7465 
 2663      2063 6F6E 
 2664               	.LC5:
 2665 0041 2165 7272 		.string	"!error opening config file\n"
 2665      6F72 206F 
 2665      7065 6E69 
 2665      6E67 2063 
 2665      6F6E 6669 
 2666               	.LC6:
 2667 005d 3234 3030 		.string	"2400"
 2667      00
 2668               	.LC7:
 2669 0062 3438 3030 		.string	"4800"
 2669      00
 2670               	.LC8:
 2671 0067 3936 3030 		.string	"9600"
 2671      00
 2672               	.LC9:
 2673 006c 3139 3230 		.string	"19200"
 2673      3000 
 2674               	.LC10:
 2675 0072 3338 3430 		.string	"38400"
 2675      3000 
 2676               	.LC11:
 2677 0078 3537 3630 		.string	"57600"
 2677      3000 
 2678               	.LC12:
 2679 007e 3131 3532 		.string	"115200"
 2679      3030 00
 2680               	.LC13:
 2681 0085 2C00      		.string	","
 2682               	.LC14:
 2683 0087 2564 00   		.string	"%d"
 2684               	.LC15:
 2685 008a 6572 726F 		.string	"error writing to config\n"
 2685      7220 7772 
 2685      6974 696E 
 2685      6720 746F 
 2685      2063 6F6E 
 2686               		.text
 2687               	.global	record_config_file
 2689               	record_config_file:
 2690               	.LFB7:
 2691               	.LM432:
 2692 0dc4 7F92      		push r7
 2693 0dc6 8F92      		push r8
 2694 0dc8 9F92      		push r9
 2695 0dca AF92      		push r10
 2696 0dcc BF92      		push r11
 2697 0dce CF92      		push r12
 2698 0dd0 DF92      		push r13
 2699 0dd2 EF92      		push r14
 2700 0dd4 FF92      		push r15
 2701 0dd6 0F93      		push r16
 2702 0dd8 1F93      		push r17
 2703 0dda DF93      		push r29
 2704 0ddc CF93      		push r28
 2705 0dde CDB7      		in r28,__SP_L__
 2706 0de0 DEB7      		in r29,__SP_H__
 2707 0de2 C155      		subi r28,lo8(-(-81))
 2708 0de4 D040      		sbci r29,hi8(-(-81))
 2709 0de6 0FB6      		in __tmp_reg__,__SREG__
 2710 0de8 F894      		cli
 2711 0dea DEBF      		out __SP_H__,r29
 2712 0dec 0FBE      		out __SREG__,__tmp_reg__
 2713 0dee CDBF      		out __SP_L__,r28
 2714               	/* prologue: function */
 2715               	/* frame size = 81 */
 2716               	.LM433:
 2717 0df0 8E01      		movw r16,r28
 2718 0df2 0C5F      		subi r16,lo8(-(4))
 2719 0df4 1F4F      		sbci r17,hi8(-(4))
 2720 0df6 C801      		movw r24,r16
 2721 0df8 60E0      		ldi r22,lo8(.LC3)
 2722 0dfa 70E0      		ldi r23,hi8(.LC3)
 2723 0dfc 0E94 0000 		call strcpy
 2724               	.LM434:
 2725 0e00 6091 0000 		lds r22,dd
 2726 0e04 7091 0000 		lds r23,(dd)+1
 2727 0e08 E1E2      		ldi r30,lo8(33)
 2728 0e0a EE2E      		mov r14,r30
 2729 0e0c F12C      		mov r15,__zero_reg__
 2730 0e0e EC0E      		add r14,r28
 2731 0e10 FD1E      		adc r15,r29
 2732 0e12 8091 0000 		lds r24,fs
 2733 0e16 9091 0000 		lds r25,(fs)+1
 2734 0e1a A801      		movw r20,r16
 2735 0e1c 9701      		movw r18,r14
 2736 0e1e 00E0      		ldi r16,lo8(0)
 2737 0e20 0E94 0000 		call find_file_in_dir
 2738 0e24 8823      		tst r24
 2739 0e26 01F0      		breq .L235
 2740               	.LM435:
 2741 0e28 8091 0000 		lds r24,fs
 2742 0e2c 9091 0000 		lds r25,(fs)+1
 2743 0e30 B701      		movw r22,r14
 2744 0e32 0E94 0000 		call fat_delete_file
 2745               	.L235:
 2746               	.LM436:
 2747 0e36 8E01      		movw r16,r28
 2748 0e38 0C5F      		subi r16,lo8(-(4))
 2749 0e3a 1F4F      		sbci r17,hi8(-(4))
 2750 0e3c 8091 0000 		lds r24,dd
 2751 0e40 9091 0000 		lds r25,(dd)+1
 2752 0e44 B801      		movw r22,r16
 2753 0e46 AE01      		movw r20,r28
 2754 0e48 4F5D      		subi r20,lo8(-(33))
 2755 0e4a 5F4F      		sbci r21,hi8(-(33))
 2756 0e4c 0E94 0000 		call fat_create_file
 2757 0e50 8823      		tst r24
 2758 0e52 01F4      		brne .L236
 2759               	.LM437:
 2760 0e54 80E0      		ldi r24,lo8(.LC4)
 2761 0e56 90E0      		ldi r25,hi8(.LC4)
 2762 0e58 00C0      		rjmp .L257
 2763               	.L236:
 2764               	.LBB297:
 2765               	.LM438:
 2766 0e5a 6091 0000 		lds r22,dd
 2767 0e5e 7091 0000 		lds r23,(dd)+1
 2768 0e62 8091 0000 		lds r24,fs
 2769 0e66 9091 0000 		lds r25,(fs)+1
 2770 0e6a A801      		movw r20,r16
 2771 0e6c 0E94 0000 		call open_file_in_dir
 2772 0e70 5C01      		movw r10,r24
 2773               	.LVL166:
 2774               	.LM439:
 2775 0e72 0097      		sbiw r24,0
 2776 0e74 01F4      		brne .L251
 2777               	.LVL167:
 2778               	.LM440:
 2779 0e76 80E0      		ldi r24,lo8(.LC5)
 2780 0e78 90E0      		ldi r25,hi8(.LC5)
 2781               	.LVL168:
 2782               	.L257:
 2783 0e7a 0E94 0000 		call uart_puts
 2784 0e7e 00C0      		rjmp .L250
 2785               	.LVL169:
 2786               	.L251:
 2787               	.LBB298:
 2788               	.LBB299:
 2789               	.LM441:
 2790 0e80 F999      		sbic 63-32,1
 2791 0e82 00C0      		rjmp .L251
 2792               	.LM442:
 2793 0e84 12BC      		out 66-32,__zero_reg__
 2794               	.LM443:
 2795 0e86 81E0      		ldi r24,lo8(1)
 2796               	.LVL170:
 2797 0e88 81BD      		out 65-32,r24
 2798               	.LM444:
 2799 0e8a F89A      		sbi 63-32,0
 2800               	.LM445:
 2801 0e8c 90B5      		in r25,64-32
 2802               	.LVL171:
 2803               	.L239:
 2804               	.LBE299:
 2805               	.LBE298:
 2806               	.LBB300:
 2807               	.LBB301:
 2808               	.LM446:
 2809 0e8e F999      		sbic 63-32,1
 2810 0e90 00C0      		rjmp .L239
 2811               	.LM447:
 2812 0e92 12BC      		out 66-32,__zero_reg__
 2813               	.LM448:
 2814 0e94 82E0      		ldi r24,lo8(2)
 2815 0e96 81BD      		out 65-32,r24
 2816               	.LM449:
 2817 0e98 F89A      		sbi 63-32,0
 2818               	.LM450:
 2819 0e9a 70B4      		in r7,64-32
 2820               	.LVL172:
 2821               	.L240:
 2822               	.LBE301:
 2823               	.LBE300:
 2824               	.LBB302:
 2825               	.LBB303:
 2826               	.LM451:
 2827 0e9c F999      		sbic 63-32,1
 2828 0e9e 00C0      		rjmp .L240
 2829               	.LM452:
 2830 0ea0 12BC      		out 66-32,__zero_reg__
 2831               	.LM453:
 2832 0ea2 85E0      		ldi r24,lo8(5)
 2833 0ea4 81BD      		out 65-32,r24
 2834               	.LM454:
 2835 0ea6 F89A      		sbi 63-32,0
 2836               	.LM455:
 2837 0ea8 90B4      		in r9,64-32
 2838               	.LVL173:
 2839               	.L241:
 2840               	.LBE303:
 2841               	.LBE302:
 2842               	.LBB304:
 2843               	.LBB305:
 2844               	.LM456:
 2845 0eaa F999      		sbic 63-32,1
 2846 0eac 00C0      		rjmp .L241
 2847               	.LM457:
 2848 0eae 12BC      		out 66-32,__zero_reg__
 2849               	.LM458:
 2850 0eb0 86E0      		ldi r24,lo8(6)
 2851 0eb2 81BD      		out 65-32,r24
 2852               	.LM459:
 2853 0eb4 F89A      		sbi 63-32,0
 2854               	.LM460:
 2855 0eb6 80B4      		in r8,64-32
 2856               	.LVL174:
 2857               	.LBE305:
 2858               	.LBE304:
 2859               	.LM461:
 2860 0eb8 9923      		tst r25
 2861 0eba 01F4      		brne .L242
 2862 0ebc CE01      		movw r24,r28
 2863 0ebe 4196      		adiw r24,17
 2864 0ec0 60E0      		ldi r22,lo8(.LC6)
 2865 0ec2 70E0      		ldi r23,hi8(.LC6)
 2866 0ec4 00C0      		rjmp .L256
 2867               	.L242:
 2868               	.LM462:
 2869 0ec6 9430      		cpi r25,lo8(4)
 2870 0ec8 01F4      		brne .L244
 2871 0eca CE01      		movw r24,r28
 2872 0ecc 4196      		adiw r24,17
 2873 0ece 60E0      		ldi r22,lo8(.LC7)
 2874 0ed0 70E0      		ldi r23,hi8(.LC7)
 2875 0ed2 00C0      		rjmp .L256
 2876               	.L244:
 2877               	.LM463:
 2878 0ed4 9130      		cpi r25,lo8(1)
 2879 0ed6 01F4      		brne .L246
 2880 0ed8 CE01      		movw r24,r28
 2881 0eda 4196      		adiw r24,17
 2882 0edc 60E0      		ldi r22,lo8(.LC8)
 2883 0ede 70E0      		ldi r23,hi8(.LC8)
 2884 0ee0 00C0      		rjmp .L256
 2885               	.L246:
 2886               	.LM464:
 2887 0ee2 9530      		cpi r25,lo8(5)
 2888 0ee4 01F4      		brne .L243
 2889 0ee6 CE01      		movw r24,r28
 2890 0ee8 4196      		adiw r24,17
 2891 0eea 60E0      		ldi r22,lo8(.LC9)
 2892 0eec 70E0      		ldi r23,hi8(.LC9)
 2893 0eee 00C0      		rjmp .L256
 2894               	.L243:
 2895               	.LM465:
 2896 0ef0 9630      		cpi r25,lo8(6)
 2897 0ef2 01F4      		brne .L245
 2898 0ef4 CE01      		movw r24,r28
 2899 0ef6 4196      		adiw r24,17
 2900 0ef8 60E0      		ldi r22,lo8(.LC10)
 2901 0efa 70E0      		ldi r23,hi8(.LC10)
 2902 0efc 00C0      		rjmp .L256
 2903               	.L245:
 2904               	.LM466:
 2905 0efe 9230      		cpi r25,lo8(2)
 2906 0f00 01F4      		brne .L247
 2907 0f02 CE01      		movw r24,r28
 2908 0f04 4196      		adiw r24,17
 2909 0f06 60E0      		ldi r22,lo8(.LC11)
 2910 0f08 70E0      		ldi r23,hi8(.LC11)
 2911 0f0a 00C0      		rjmp .L256
 2912               	.L247:
 2913               	.LM467:
 2914 0f0c 9330      		cpi r25,lo8(3)
 2915 0f0e 01F4      		brne .L248
 2916 0f10 CE01      		movw r24,r28
 2917 0f12 4196      		adiw r24,17
 2918 0f14 60E0      		ldi r22,lo8(.LC12)
 2919 0f16 70E0      		ldi r23,hi8(.LC12)
 2920               	.L256:
 2921 0f18 0E94 0000 		call strcpy
 2922               	.LVL175:
 2923               	.L248:
 2924               	.LM468:
 2925 0f1c 8E01      		movw r16,r28
 2926 0f1e 0F5E      		subi r16,lo8(-(17))
 2927 0f20 1F4F      		sbci r17,hi8(-(17))
 2928 0f22 C801      		movw r24,r16
 2929 0f24 60E0      		ldi r22,lo8(.LC13)
 2930 0f26 70E0      		ldi r23,hi8(.LC13)
 2931 0f28 0E94 0000 		call strcat
 2932               	.LVL176:
 2933               	.LM469:
 2934 0f2c 00D0      		rcall .
 2935 0f2e 00D0      		rcall .
 2936 0f30 00D0      		rcall .
 2937 0f32 EDB7      		in r30,__SP_L__
 2938 0f34 FEB7      		in r31,__SP_H__
 2939 0f36 3196      		adiw r30,1
 2940 0f38 7E01      		movw r14,r28
 2941 0f3a 0894      		sec
 2942 0f3c E11C      		adc r14,__zero_reg__
 2943 0f3e F11C      		adc r15,__zero_reg__
 2944 0f40 ADB7      		in r26,__SP_L__
 2945 0f42 BEB7      		in r27,__SP_H__
 2946 0f44 1296      		adiw r26,1+1
 2947 0f46 FC92      		st X,r15
 2948 0f48 EE92      		st -X,r14
 2949 0f4a 1197      		sbiw r26,1
 2950 0f4c 60E0      		ldi r22,lo8(.LC14)
 2951 0f4e C62E      		mov r12,r22
 2952 0f50 60E0      		ldi r22,hi8(.LC14)
 2953 0f52 D62E      		mov r13,r22
 2954 0f54 D382      		std Z+3,r13
 2955 0f56 C282      		std Z+2,r12
 2956 0f58 9482      		std Z+4,r9
 2957 0f5a 1582      		std Z+5,__zero_reg__
 2958 0f5c 0E94 0000 		call sprintf
 2959               	.LM470:
 2960 0f60 8DB7      		in r24,__SP_L__
 2961 0f62 9EB7      		in r25,__SP_H__
 2962 0f64 0696      		adiw r24,6
 2963 0f66 0FB6      		in __tmp_reg__,__SREG__
 2964 0f68 F894      		cli
 2965 0f6a 9EBF      		out __SP_H__,r25
 2966 0f6c 0FBE      		out __SREG__,__tmp_reg__
 2967 0f6e 8DBF      		out __SP_L__,r24
 2968 0f70 C801      		movw r24,r16
 2969 0f72 B701      		movw r22,r14
 2970 0f74 0E94 0000 		call strcat
 2971               	.LM471:
 2972 0f78 C801      		movw r24,r16
 2973 0f7a 60E0      		ldi r22,lo8(.LC13)
 2974 0f7c 70E0      		ldi r23,hi8(.LC13)
 2975 0f7e 0E94 0000 		call strcat
 2976               	.LM472:
 2977 0f82 00D0      		rcall .
 2978 0f84 00D0      		rcall .
 2979 0f86 00D0      		rcall .
 2980 0f88 EDB7      		in r30,__SP_L__
 2981 0f8a FEB7      		in r31,__SP_H__
 2982 0f8c 3196      		adiw r30,1
 2983 0f8e ADB7      		in r26,__SP_L__
 2984 0f90 BEB7      		in r27,__SP_H__
 2985 0f92 1296      		adiw r26,1+1
 2986 0f94 FC92      		st X,r15
 2987 0f96 EE92      		st -X,r14
 2988 0f98 1197      		sbiw r26,1
 2989 0f9a D382      		std Z+3,r13
 2990 0f9c C282      		std Z+2,r12
 2991 0f9e 8482      		std Z+4,r8
 2992 0fa0 1582      		std Z+5,__zero_reg__
 2993 0fa2 0E94 0000 		call sprintf
 2994               	.LM473:
 2995 0fa6 8DB7      		in r24,__SP_L__
 2996 0fa8 9EB7      		in r25,__SP_H__
 2997 0faa 0696      		adiw r24,6
 2998 0fac 0FB6      		in __tmp_reg__,__SREG__
 2999 0fae F894      		cli
 3000 0fb0 9EBF      		out __SP_H__,r25
 3001 0fb2 0FBE      		out __SREG__,__tmp_reg__
 3002 0fb4 8DBF      		out __SP_L__,r24
 3003 0fb6 C801      		movw r24,r16
 3004 0fb8 B701      		movw r22,r14
 3005 0fba 0E94 0000 		call strcat
 3006               	.LM474:
 3007 0fbe C801      		movw r24,r16
 3008 0fc0 60E0      		ldi r22,lo8(.LC13)
 3009 0fc2 70E0      		ldi r23,hi8(.LC13)
 3010 0fc4 0E94 0000 		call strcat
 3011               	.LM475:
 3012 0fc8 00D0      		rcall .
 3013 0fca 00D0      		rcall .
 3014 0fcc 00D0      		rcall .
 3015 0fce EDB7      		in r30,__SP_L__
 3016 0fd0 FEB7      		in r31,__SP_H__
 3017 0fd2 3196      		adiw r30,1
 3018 0fd4 ADB7      		in r26,__SP_L__
 3019 0fd6 BEB7      		in r27,__SP_H__
 3020 0fd8 1296      		adiw r26,1+1
 3021 0fda FC92      		st X,r15
 3022 0fdc EE92      		st -X,r14
 3023 0fde 1197      		sbiw r26,1
 3024 0fe0 D382      		std Z+3,r13
 3025 0fe2 C282      		std Z+2,r12
 3026 0fe4 7482      		std Z+4,r7
 3027 0fe6 1582      		std Z+5,__zero_reg__
 3028 0fe8 0E94 0000 		call sprintf
 3029               	.LM476:
 3030 0fec 8DB7      		in r24,__SP_L__
 3031 0fee 9EB7      		in r25,__SP_H__
 3032 0ff0 0696      		adiw r24,6
 3033 0ff2 0FB6      		in __tmp_reg__,__SREG__
 3034 0ff4 F894      		cli
 3035 0ff6 9EBF      		out __SP_H__,r25
 3036 0ff8 0FBE      		out __SREG__,__tmp_reg__
 3037 0ffa 8DBF      		out __SP_L__,r24
 3038 0ffc C801      		movw r24,r16
 3039 0ffe B701      		movw r22,r14
 3040 1000 0E94 0000 		call strcat
 3041               	.LM477:
 3042 1004 80E0      		ldi r24,lo8(input_buffer)
 3043 1006 90E0      		ldi r25,hi8(input_buffer)
 3044 1008 B801      		movw r22,r16
 3045 100a 0E94 0000 		call strcpy
 3046               	.LM478:
 3047 100e F801      		movw r30,r16
 3048 1010 0190      		ld __tmp_reg__,Z+
 3049 1012 0020      		tst __tmp_reg__
 3050 1014 01F4      		brne .-6
 3051 1016 3197      		sbiw r30,1
 3052 1018 E01B      		sub r30,r16
 3053 101a F10B      		sbc r31,r17
 3054 101c C501      		movw r24,r10
 3055 101e 60E0      		ldi r22,lo8(input_buffer)
 3056 1020 70E0      		ldi r23,hi8(input_buffer)
 3057 1022 AF01      		movw r20,r30
 3058 1024 0E94 0000 		call fat_write_file
 3059 1028 F801      		movw r30,r16
 3060 102a 0190      		ld __tmp_reg__,Z+
 3061 102c 0020      		tst __tmp_reg__
 3062 102e 01F4      		brne .-6
 3063 1030 3197      		sbiw r30,1
 3064 1032 E01B      		sub r30,r16
 3065 1034 F10B      		sbc r31,r17
 3066 1036 8E17      		cp r24,r30
 3067 1038 9F07      		cpc r25,r31
 3068 103a 01F0      		breq .L249
 3069               	.LM479:
 3070 103c 80E0      		ldi r24,lo8(.LC15)
 3071 103e 90E0      		ldi r25,hi8(.LC15)
 3072 1040 0E94 0000 		call uart_puts
 3073               	.L249:
 3074               	.LM480:
 3075 1044 C501      		movw r24,r10
 3076 1046 0E94 0000 		call fat_close_file
 3077               	.LM481:
 3078 104a 0E94 0000 		call sd_raw_sync
 3079               	.L250:
 3080               	/* epilogue start */
 3081               	.LBE297:
 3082               	.LM482:
 3083 104e CF5A      		subi r28,lo8(-(81))
 3084 1050 DF4F      		sbci r29,hi8(-(81))
 3085 1052 0FB6      		in __tmp_reg__,__SREG__
 3086 1054 F894      		cli
 3087 1056 DEBF      		out __SP_H__,r29
 3088 1058 0FBE      		out __SREG__,__tmp_reg__
 3089 105a CDBF      		out __SP_L__,r28
 3090 105c CF91      		pop r28
 3091 105e DF91      		pop r29
 3092 1060 1F91      		pop r17
 3093 1062 0F91      		pop r16
 3094 1064 FF90      		pop r15
 3095 1066 EF90      		pop r14
 3096 1068 DF90      		pop r13
 3097 106a CF90      		pop r12
 3098 106c BF90      		pop r11
 3099 106e AF90      		pop r10
 3100               	.LVL177:
 3101 1070 9F90      		pop r9
 3102               	.LVL178:
 3103 1072 8F90      		pop r8
 3104               	.LVL179:
 3105 1074 7F90      		pop r7
 3106               	.LVL180:
 3107 1076 0895      		ret
 3108               	.LFE7:
 3110               	.global	system_menu
 3112               	system_menu:
 3113               	.LFB29:
 3114               	.LM483:
 3115 1078 FF92      		push r15
 3116 107a 0F93      		push r16
 3117 107c 1F93      		push r17
 3118 107e DF93      		push r29
 3119 1080 CF93      		push r28
 3120 1082 00D0      		rcall .
 3121 1084 00D0      		rcall .
 3122 1086 0F92      		push __tmp_reg__
 3123 1088 CDB7      		in r28,__SP_L__
 3124 108a DEB7      		in r29,__SP_H__
 3125               	/* prologue: function */
 3126               	/* frame size = 5 */
 3127               	.L259:
 3128               	.LBB306:
 3129               	.LBB307:
 3130               	.LM484:
 3131 108c F999      		sbic 63-32,1
 3132 108e 00C0      		rjmp .L259
 3133               	.LM485:
 3134 1090 12BC      		out 66-32,__zero_reg__
 3135               	.LM486:
 3136 1092 82E0      		ldi r24,lo8(2)
 3137 1094 81BD      		out 65-32,r24
 3138               	.LM487:
 3139 1096 F89A      		sbi 63-32,0
 3140               	.LM488:
 3141 1098 F0B4      		in r15,64-32
 3142               	.LVL181:
 3143               	.LBE307:
 3144               	.LBE306:
 3145               	.LBB308:
 3146               	.LM489:
 3147 109a 8E01      		movw r16,r28
 3148 109c 0F5F      		subi r16,lo8(-(1))
 3149 109e 1F4F      		sbci r17,hi8(-(1))
 3150               	.L292:
 3151               	.LM490:
 3152 10a0 80E0      		ldi r24,lo8(__c.2920)
 3153 10a2 90E0      		ldi r25,hi8(__c.2920)
 3154 10a4 0E94 0000 		call uart_puts_p
 3155               	.LM491:
 3156 10a8 80E0      		ldi r24,lo8(__c.2922)
 3157 10aa 90E0      		ldi r25,hi8(__c.2922)
 3158 10ac 0E94 0000 		call uart_puts_p
 3159               	.LM492:
 3160 10b0 FF20      		tst r15
 3161 10b2 01F4      		brne .L260
 3162 10b4 80E0      		ldi r24,lo8(__c.2924)
 3163 10b6 90E0      		ldi r25,hi8(__c.2924)
 3164 10b8 00C0      		rjmp .L293
 3165               	.L260:
 3166               	.LM493:
 3167 10ba 81E0      		ldi r24,lo8(1)
 3168 10bc F816      		cp r15,r24
 3169 10be 01F4      		brne .L262
 3170 10c0 80E0      		ldi r24,lo8(__c.2926)
 3171 10c2 90E0      		ldi r25,hi8(__c.2926)
 3172 10c4 00C0      		rjmp .L293
 3173               	.L262:
 3174               	.LM494:
 3175 10c6 82E0      		ldi r24,lo8(2)
 3176 10c8 F816      		cp r15,r24
 3177 10ca 01F4      		brne .L261
 3178 10cc 80E0      		ldi r24,lo8(__c.2928)
 3179 10ce 90E0      		ldi r25,hi8(__c.2928)
 3180               	.L293:
 3181 10d0 0E94 0000 		call uart_puts_p
 3182               	.L261:
 3183               	.LM495:
 3184 10d4 80E0      		ldi r24,lo8(__c.2930)
 3185 10d6 90E0      		ldi r25,hi8(__c.2930)
 3186 10d8 0E94 0000 		call uart_puts_p
 3187               	.LM496:
 3188 10dc 80E0      		ldi r24,lo8(__c.2932)
 3189 10de 90E0      		ldi r25,hi8(__c.2932)
 3190 10e0 0E94 0000 		call uart_puts_p
 3191               	.LM497:
 3192 10e4 6091 0000 		lds r22,setting_escape_character
 3193 10e8 70E0      		ldi r23,lo8(0)
 3194 10ea 80E0      		ldi r24,lo8(0)
 3195 10ec 90E0      		ldi r25,hi8(0)
 3196 10ee 0E94 0000 		call uart_putdw_dec
 3197               	.LM498:
 3198 10f2 80E0      		ldi r24,lo8(__c.2934)
 3199 10f4 90E0      		ldi r25,hi8(__c.2934)
 3200 10f6 0E94 0000 		call uart_puts_p
 3201               	.LM499:
 3202 10fa 6091 0000 		lds r22,setting_max_escape_character
 3203 10fe 70E0      		ldi r23,lo8(0)
 3204 1100 80E0      		ldi r24,lo8(0)
 3205 1102 90E0      		ldi r25,hi8(0)
 3206 1104 0E94 0000 		call uart_putdw_dec
 3207               	.LM500:
 3208 1108 80E0      		ldi r24,lo8(__c.2936)
 3209 110a 90E0      		ldi r25,hi8(__c.2936)
 3210 110c 0E94 0000 		call uart_puts_p
 3211               	.LM501:
 3212 1110 80E0      		ldi r24,lo8(__c.2938)
 3213 1112 90E0      		ldi r25,hi8(__c.2938)
 3214 1114 0E94 0000 		call uart_puts_p
 3215               	.LM502:
 3216 1118 80E0      		ldi r24,lo8(__c.2940)
 3217 111a 90E0      		ldi r25,hi8(__c.2940)
 3218 111c 0E94 0000 		call uart_puts_p
 3219               	.LM503:
 3220 1120 80E0      		ldi r24,lo8(__c.2942)
 3221 1122 90E0      		ldi r25,hi8(__c.2942)
 3222 1124 0E94 0000 		call uart_puts_p
 3223               	.LM504:
 3224 1128 80E0      		ldi r24,lo8(__c.2944)
 3225 112a 90E0      		ldi r25,hi8(__c.2944)
 3226 112c 0E94 0000 		call uart_puts_p
 3227               	.LM505:
 3228 1130 80E0      		ldi r24,lo8(__c.2946)
 3229 1132 90E0      		ldi r25,hi8(__c.2946)
 3230 1134 0E94 0000 		call uart_puts_p
 3231               	.LM506:
 3232 1138 80E0      		ldi r24,lo8(__c.2948)
 3233 113a 90E0      		ldi r25,hi8(__c.2948)
 3234 113c 0E94 0000 		call uart_puts_p
 3235               	.LM507:
 3236 1140 80E0      		ldi r24,lo8(__c.2950)
 3237 1142 90E0      		ldi r25,hi8(__c.2950)
 3238 1144 0E94 0000 		call uart_puts_p
 3239               	.LM508:
 3240 1148 80E0      		ldi r24,lo8(__c.2952)
 3241 114a 90E0      		ldi r25,hi8(__c.2952)
 3242 114c 0E94 0000 		call uart_puts_p
 3243               	.LM509:
 3244 1150 8EE3      		ldi r24,lo8(62)
 3245 1152 0E94 0000 		call uart_putc
 3246               	.LM510:
 3247 1156 C801      		movw r24,r16
 3248 1158 65E0      		ldi r22,lo8(5)
 3249 115a 0E94 0000 		call read_line
 3250 115e 8823      		tst r24
 3251 1160 01F4      		brne .+2
 3252 1162 00C0      		rjmp .L292
 3253               	.LM511:
 3254 1164 C801      		movw r24,r16
 3255 1166 60E0      		ldi r22,lo8(__c.2956)
 3256 1168 70E0      		ldi r23,hi8(__c.2956)
 3257 116a 0E94 0000 		call strcmp_P
 3258 116e 892B      		or r24,r25
 3259 1170 01F4      		brne .L264
 3260               	.LM512:
 3261 1172 80E0      		ldi r24,lo8(__c.2958)
 3262 1174 90E0      		ldi r25,hi8(__c.2958)
 3263 1176 0E94 0000 		call uart_puts_p
 3264               	.L265:
 3265               	.LBB309:
 3266               	.LBB310:
 3267               	.LM513:
 3268 117a F999      		sbic 63-32,1
 3269 117c 00C0      		rjmp .L265
 3270               	.LM514:
 3271 117e 12BC      		out 66-32,__zero_reg__
 3272               	.LM515:
 3273 1180 82E0      		ldi r24,lo8(2)
 3274 1182 81BD      		out 65-32,r24
 3275               	.LM516:
 3276 1184 10BC      		out 64-32,__zero_reg__
 3277 1186 00C0      		rjmp .L295
 3278               	.L264:
 3279               	.LBE310:
 3280               	.LBE309:
 3281               	.LM517:
 3282 1188 C801      		movw r24,r16
 3283 118a 60E0      		ldi r22,lo8(__c.2960)
 3284 118c 70E0      		ldi r23,hi8(__c.2960)
 3285 118e 0E94 0000 		call strcmp_P
 3286 1192 892B      		or r24,r25
 3287 1194 01F4      		brne .L267
 3288               	.LM518:
 3289 1196 80E0      		ldi r24,lo8(__c.2962)
 3290 1198 90E0      		ldi r25,hi8(__c.2962)
 3291 119a 0E94 0000 		call uart_puts_p
 3292               	.L268:
 3293               	.LBB311:
 3294               	.LBB312:
 3295               	.LM519:
 3296 119e F999      		sbic 63-32,1
 3297 11a0 00C0      		rjmp .L268
 3298               	.LM520:
 3299 11a2 12BC      		out 66-32,__zero_reg__
 3300               	.LM521:
 3301 11a4 82E0      		ldi r24,lo8(2)
 3302 11a6 81BD      		out 65-32,r24
 3303               	.LM522:
 3304 11a8 81E0      		ldi r24,lo8(1)
 3305               	.L296:
 3306 11aa 80BD      		out 64-32,r24
 3307               	.L295:
 3308               	.LM523:
 3309 11ac FA9A      		sbi 63-32,2
 3310               	.LM524:
 3311 11ae F99A      		sbi 63-32,1
 3312               	.LBE312:
 3313               	.LBE311:
 3314               	.LM525:
 3315 11b0 0E94 0000 		call record_config_file
 3316 11b4 00C0      		rjmp .L279
 3317               	.L267:
 3318               	.LM526:
 3319 11b6 C801      		movw r24,r16
 3320 11b8 60E0      		ldi r22,lo8(__c.2964)
 3321 11ba 70E0      		ldi r23,hi8(__c.2964)
 3322 11bc 0E94 0000 		call strcmp_P
 3323 11c0 892B      		or r24,r25
 3324 11c2 01F4      		brne .L269
 3325               	.LM527:
 3326 11c4 80E0      		ldi r24,lo8(__c.2966)
 3327 11c6 90E0      		ldi r25,hi8(__c.2966)
 3328 11c8 0E94 0000 		call uart_puts_p
 3329               	.L270:
 3330               	.LBB313:
 3331               	.LBB314:
 3332               	.LM528:
 3333 11cc F999      		sbic 63-32,1
 3334 11ce 00C0      		rjmp .L270
 3335               	.LM529:
 3336 11d0 12BC      		out 66-32,__zero_reg__
 3337               	.LM530:
 3338 11d2 82E0      		ldi r24,lo8(2)
 3339 11d4 81BD      		out 65-32,r24
 3340 11d6 00C0      		rjmp .L296
 3341               	.L269:
 3342               	.LBE314:
 3343               	.LBE313:
 3344               	.LM531:
 3345 11d8 C801      		movw r24,r16
 3346 11da 60E0      		ldi r22,lo8(__c.2968)
 3347 11dc 70E0      		ldi r23,hi8(__c.2968)
 3348 11de 0E94 0000 		call strcmp_P
 3349 11e2 892B      		or r24,r25
 3350 11e4 01F4      		brne .L271
 3351               	.LM532:
 3352 11e6 80E0      		ldi r24,lo8(__c.2970)
 3353 11e8 90E0      		ldi r25,hi8(__c.2970)
 3354 11ea 0E94 0000 		call uart_puts_p
 3355               	.L272:
 3356               	.LBB315:
 3357               	.LBB316:
 3358               	.LM533:
 3359 11ee F999      		sbic 63-32,1
 3360 11f0 00C0      		rjmp .L272
 3361               	.LM534:
 3362 11f2 12BC      		out 66-32,__zero_reg__
 3363               	.LM535:
 3364 11f4 83E0      		ldi r24,lo8(3)
 3365 11f6 81BD      		out 65-32,r24
 3366               	.LM536:
 3367 11f8 10BC      		out 64-32,__zero_reg__
 3368               	.LM537:
 3369 11fa FA9A      		sbi 63-32,2
 3370               	.LM538:
 3371 11fc F99A      		sbi 63-32,1
 3372               	.L273:
 3373               	.LBE316:
 3374               	.LBE315:
 3375               	.LBB317:
 3376               	.LBB318:
 3377               	.LM539:
 3378 11fe F999      		sbic 63-32,1
 3379 1200 00C0      		rjmp .L273
 3380               	.LM540:
 3381 1202 12BC      		out 66-32,__zero_reg__
 3382               	.LM541:
 3383 1204 84E0      		ldi r24,lo8(4)
 3384 1206 81BD      		out 65-32,r24
 3385               	.LM542:
 3386 1208 10BC      		out 64-32,__zero_reg__
 3387               	.LM543:
 3388 120a FA9A      		sbi 63-32,2
 3389               	.LM544:
 3390 120c F99A      		sbi 63-32,1
 3391 120e 00C0      		rjmp .L279
 3392               	.L271:
 3393               	.LBE318:
 3394               	.LBE317:
 3395               	.LM545:
 3396 1210 C801      		movw r24,r16
 3397 1212 60E0      		ldi r22,lo8(__c.2972)
 3398 1214 70E0      		ldi r23,hi8(__c.2972)
 3399 1216 0E94 0000 		call strcmp_P
 3400 121a 892B      		or r24,r25
 3401 121c 01F4      		brne .L274
 3402               	.LM546:
 3403 121e 80E0      		ldi r24,lo8(__c.2974)
 3404 1220 90E0      		ldi r25,hi8(__c.2974)
 3405 1222 0E94 0000 		call uart_puts_p
 3406               	.LM547:
 3407 1226 0E94 0000 		call uart_getc
 3408 122a 982F      		mov r25,r24
 3409 122c 8093 0000 		sts setting_escape_character,r24
 3410               	.L275:
 3411               	.LBB319:
 3412               	.LBB320:
 3413               	.LM548:
 3414 1230 F999      		sbic 63-32,1
 3415 1232 00C0      		rjmp .L275
 3416               	.LM549:
 3417 1234 12BC      		out 66-32,__zero_reg__
 3418               	.LM550:
 3419 1236 85E0      		ldi r24,lo8(5)
 3420 1238 81BD      		out 65-32,r24
 3421               	.LM551:
 3422 123a 90BD      		out 64-32,r25
 3423               	.LM552:
 3424 123c FA9A      		sbi 63-32,2
 3425               	.LM553:
 3426 123e F99A      		sbi 63-32,1
 3427               	.LBE320:
 3428               	.LBE319:
 3429               	.LM554:
 3430 1240 0E94 0000 		call record_config_file
 3431               	.LM555:
 3432 1244 80E0      		ldi r24,lo8(__c.2976)
 3433 1246 90E0      		ldi r25,hi8(__c.2976)
 3434 1248 0E94 0000 		call uart_puts_p
 3435               	.LM556:
 3436 124c 6091 0000 		lds r22,setting_escape_character
 3437 1250 70E0      		ldi r23,lo8(0)
 3438 1252 80E0      		ldi r24,lo8(0)
 3439 1254 90E0      		ldi r25,hi8(0)
 3440 1256 0E94 0000 		call uart_putdw_dec
 3441               	.LM557:
 3442 125a 80E0      		ldi r24,lo8(__c.2978)
 3443 125c 90E0      		ldi r25,hi8(__c.2978)
 3444 125e 00C0      		rjmp .L294
 3445               	.L274:
 3446               	.LM558:
 3447 1260 C801      		movw r24,r16
 3448 1262 60E0      		ldi r22,lo8(__c.2980)
 3449 1264 70E0      		ldi r23,hi8(__c.2980)
 3450 1266 0E94 0000 		call strcmp_P
 3451 126a 892B      		or r24,r25
 3452 126c 01F4      		brne .L276
 3453               	.L281:
 3454               	.LBB321:
 3455               	.LM559:
 3456 126e 80E0      		ldi r24,lo8(__c.2983)
 3457 1270 90E0      		ldi r25,hi8(__c.2983)
 3458 1272 0E94 0000 		call uart_puts_p
 3459               	.LM560:
 3460 1276 0E94 0000 		call uart_getc
 3461 127a 982F      		mov r25,r24
 3462               	.LVL182:
 3463 127c 9053      		subi r25,lo8(-(-48))
 3464               	.LM561:
 3465 127e 9A30      		cpi r25,lo8(10)
 3466 1280 00F4      		brsh .L281
 3467               	.LM562:
 3468 1282 9093 0000 		sts setting_max_escape_character,r25
 3469               	.L278:
 3470               	.LBB322:
 3471               	.LBB323:
 3472               	.LM563:
 3473 1286 F999      		sbic 63-32,1
 3474 1288 00C0      		rjmp .L278
 3475               	.LM564:
 3476 128a 12BC      		out 66-32,__zero_reg__
 3477               	.LM565:
 3478 128c 86E0      		ldi r24,lo8(6)
 3479 128e 81BD      		out 65-32,r24
 3480               	.LM566:
 3481 1290 90BD      		out 64-32,r25
 3482               	.LM567:
 3483 1292 FA9A      		sbi 63-32,2
 3484               	.LM568:
 3485 1294 F99A      		sbi 63-32,1
 3486               	.LBE323:
 3487               	.LBE322:
 3488               	.LM569:
 3489 1296 0E94 0000 		call record_config_file
 3490               	.LVL183:
 3491               	.LM570:
 3492 129a 80E0      		ldi r24,lo8(__c.2988)
 3493 129c 90E0      		ldi r25,hi8(__c.2988)
 3494 129e 0E94 0000 		call uart_puts_p
 3495               	.LM571:
 3496 12a2 6091 0000 		lds r22,setting_max_escape_character
 3497 12a6 70E0      		ldi r23,lo8(0)
 3498 12a8 80E0      		ldi r24,lo8(0)
 3499 12aa 90E0      		ldi r25,hi8(0)
 3500 12ac 0E94 0000 		call uart_putdw_dec
 3501               	.LM572:
 3502 12b0 80E0      		ldi r24,lo8(__c.2990)
 3503 12b2 90E0      		ldi r25,hi8(__c.2990)
 3504 12b4 00C0      		rjmp .L294
 3505               	.L276:
 3506               	.LBE321:
 3507               	.LM573:
 3508 12b6 C801      		movw r24,r16
 3509 12b8 60E0      		ldi r22,lo8(__c.2992)
 3510 12ba 70E0      		ldi r23,hi8(__c.2992)
 3511 12bc 0E94 0000 		call strcmp_P
 3512 12c0 892B      		or r24,r25
 3513 12c2 01F0      		breq .+2
 3514 12c4 00C0      		rjmp .L292
 3515               	.LM574:
 3516 12c6 80E0      		ldi r24,lo8(__c.2994)
 3517 12c8 90E0      		ldi r25,hi8(__c.2994)
 3518               	.L294:
 3519 12ca 0E94 0000 		call uart_puts_p
 3520               	.L279:
 3521               	/* epilogue start */
 3522               	.LBE308:
 3523               	.LM575:
 3524 12ce 0F90      		pop __tmp_reg__
 3525 12d0 0F90      		pop __tmp_reg__
 3526 12d2 0F90      		pop __tmp_reg__
 3527 12d4 0F90      		pop __tmp_reg__
 3528 12d6 0F90      		pop __tmp_reg__
 3529 12d8 CF91      		pop r28
 3530 12da DF91      		pop r29
 3531 12dc 1F91      		pop r17
 3532 12de 0F91      		pop r16
 3533 12e0 FF90      		pop r15
 3534               	.LVL184:
 3535 12e2 0895      		ret
 3536               	.LFE29:
 3538               	.global	baud_menu
 3540               	baud_menu:
 3541               	.LFB28:
 3542               	.LM576:
 3543 12e4 FF92      		push r15
 3544 12e6 0F93      		push r16
 3545 12e8 1F93      		push r17
 3546 12ea DF93      		push r29
 3547 12ec CF93      		push r28
 3548 12ee 00D0      		rcall .
 3549 12f0 00D0      		rcall .
 3550 12f2 0F92      		push __tmp_reg__
 3551 12f4 CDB7      		in r28,__SP_L__
 3552 12f6 DEB7      		in r29,__SP_H__
 3553               	/* prologue: function */
 3554               	/* frame size = 5 */
 3555               	.L298:
 3556               	.LBB324:
 3557               	.LBB325:
 3558               	.LM577:
 3559 12f8 F999      		sbic 63-32,1
 3560 12fa 00C0      		rjmp .L298
 3561               	.LM578:
 3562 12fc 12BC      		out 66-32,__zero_reg__
 3563               	.LM579:
 3564 12fe 81E0      		ldi r24,lo8(1)
 3565 1300 81BD      		out 65-32,r24
 3566               	.LM580:
 3567 1302 F89A      		sbi 63-32,0
 3568               	.LM581:
 3569 1304 F0B4      		in r15,64-32
 3570               	.LVL185:
 3571               	.LBE325:
 3572               	.LBE324:
 3573               	.LBB326:
 3574               	.LM582:
 3575 1306 8E01      		movw r16,r28
 3576 1308 0F5F      		subi r16,lo8(-(1))
 3577 130a 1F4F      		sbci r17,hi8(-(1))
 3578               	.L333:
 3579               	.LM583:
 3580 130c 80E0      		ldi r24,lo8(__c.2832)
 3581 130e 90E0      		ldi r25,hi8(__c.2832)
 3582 1310 0E94 0000 		call uart_puts_p
 3583               	.LM584:
 3584 1314 80E0      		ldi r24,lo8(__c.2834)
 3585 1316 90E0      		ldi r25,hi8(__c.2834)
 3586 1318 0E94 0000 		call uart_puts_p
 3587               	.LM585:
 3588 131c 84E0      		ldi r24,lo8(4)
 3589 131e F816      		cp r15,r24
 3590 1320 01F4      		brne .L299
 3591 1322 80E0      		ldi r24,lo8(__c.2836)
 3592 1324 90E0      		ldi r25,hi8(__c.2836)
 3593 1326 00C0      		rjmp .L334
 3594               	.L299:
 3595               	.LM586:
 3596 1328 FF20      		tst r15
 3597 132a 01F4      		brne .L301
 3598 132c 80E0      		ldi r24,lo8(__c.2838)
 3599 132e 90E0      		ldi r25,hi8(__c.2838)
 3600 1330 00C0      		rjmp .L334
 3601               	.L301:
 3602               	.LM587:
 3603 1332 81E0      		ldi r24,lo8(1)
 3604 1334 F816      		cp r15,r24
 3605 1336 01F4      		brne .L303
 3606 1338 80E0      		ldi r24,lo8(__c.2840)
 3607 133a 90E0      		ldi r25,hi8(__c.2840)
 3608 133c 00C0      		rjmp .L334
 3609               	.L303:
 3610               	.LM588:
 3611 133e 85E0      		ldi r24,lo8(5)
 3612 1340 F816      		cp r15,r24
 3613 1342 01F4      		brne .L300
 3614 1344 80E0      		ldi r24,lo8(__c.2842)
 3615 1346 90E0      		ldi r25,hi8(__c.2842)
 3616 1348 00C0      		rjmp .L334
 3617               	.L300:
 3618               	.LM589:
 3619 134a 86E0      		ldi r24,lo8(6)
 3620 134c F816      		cp r15,r24
 3621 134e 01F4      		brne .L302
 3622 1350 80E0      		ldi r24,lo8(__c.2844)
 3623 1352 90E0      		ldi r25,hi8(__c.2844)
 3624 1354 00C0      		rjmp .L334
 3625               	.L302:
 3626               	.LM590:
 3627 1356 82E0      		ldi r24,lo8(2)
 3628 1358 F816      		cp r15,r24
 3629 135a 01F4      		brne .L304
 3630 135c 80E0      		ldi r24,lo8(__c.2846)
 3631 135e 90E0      		ldi r25,hi8(__c.2846)
 3632 1360 00C0      		rjmp .L334
 3633               	.L304:
 3634               	.LM591:
 3635 1362 83E0      		ldi r24,lo8(3)
 3636 1364 F816      		cp r15,r24
 3637 1366 01F4      		brne .L305
 3638 1368 80E0      		ldi r24,lo8(__c.2848)
 3639 136a 90E0      		ldi r25,hi8(__c.2848)
 3640               	.L334:
 3641 136c 0E94 0000 		call uart_puts_p
 3642               	.L305:
 3643               	.LM592:
 3644 1370 80E0      		ldi r24,lo8(__c.2850)
 3645 1372 90E0      		ldi r25,hi8(__c.2850)
 3646 1374 0E94 0000 		call uart_puts_p
 3647               	.LM593:
 3648 1378 80E0      		ldi r24,lo8(__c.2852)
 3649 137a 90E0      		ldi r25,hi8(__c.2852)
 3650 137c 0E94 0000 		call uart_puts_p
 3651               	.LM594:
 3652 1380 80E0      		ldi r24,lo8(__c.2854)
 3653 1382 90E0      		ldi r25,hi8(__c.2854)
 3654 1384 0E94 0000 		call uart_puts_p
 3655               	.LM595:
 3656 1388 80E0      		ldi r24,lo8(__c.2856)
 3657 138a 90E0      		ldi r25,hi8(__c.2856)
 3658 138c 0E94 0000 		call uart_puts_p
 3659               	.LM596:
 3660 1390 80E0      		ldi r24,lo8(__c.2858)
 3661 1392 90E0      		ldi r25,hi8(__c.2858)
 3662 1394 0E94 0000 		call uart_puts_p
 3663               	.LM597:
 3664 1398 80E0      		ldi r24,lo8(__c.2860)
 3665 139a 90E0      		ldi r25,hi8(__c.2860)
 3666 139c 0E94 0000 		call uart_puts_p
 3667               	.LM598:
 3668 13a0 80E0      		ldi r24,lo8(__c.2862)
 3669 13a2 90E0      		ldi r25,hi8(__c.2862)
 3670 13a4 0E94 0000 		call uart_puts_p
 3671               	.LM599:
 3672 13a8 80E0      		ldi r24,lo8(__c.2864)
 3673 13aa 90E0      		ldi r25,hi8(__c.2864)
 3674 13ac 0E94 0000 		call uart_puts_p
 3675               	.LM600:
 3676 13b0 80E0      		ldi r24,lo8(__c.2866)
 3677 13b2 90E0      		ldi r25,hi8(__c.2866)
 3678 13b4 0E94 0000 		call uart_puts_p
 3679               	.LM601:
 3680 13b8 80E0      		ldi r24,lo8(__c.2868)
 3681 13ba 90E0      		ldi r25,hi8(__c.2868)
 3682 13bc 0E94 0000 		call uart_puts_p
 3683               	.LM602:
 3684 13c0 8EE3      		ldi r24,lo8(62)
 3685 13c2 0E94 0000 		call uart_putc
 3686               	.LM603:
 3687 13c6 C801      		movw r24,r16
 3688 13c8 65E0      		ldi r22,lo8(5)
 3689 13ca 0E94 0000 		call read_line
 3690 13ce 8823      		tst r24
 3691 13d0 01F4      		brne .+2
 3692 13d2 00C0      		rjmp .L333
 3693               	.LM604:
 3694 13d4 C801      		movw r24,r16
 3695 13d6 60E0      		ldi r22,lo8(__c.2872)
 3696 13d8 70E0      		ldi r23,hi8(__c.2872)
 3697 13da 0E94 0000 		call strcmp_P
 3698 13de 892B      		or r24,r25
 3699 13e0 01F4      		brne .L307
 3700               	.LM605:
 3701 13e2 80E0      		ldi r24,lo8(__c.2874)
 3702 13e4 90E0      		ldi r25,hi8(__c.2874)
 3703 13e6 0E94 0000 		call uart_puts_p
 3704               	.L308:
 3705               	.LBB327:
 3706               	.LBB328:
 3707               	.LM606:
 3708 13ea F999      		sbic 63-32,1
 3709 13ec 00C0      		rjmp .L308
 3710               	.LM607:
 3711 13ee 12BC      		out 66-32,__zero_reg__
 3712               	.LM608:
 3713 13f0 81E0      		ldi r24,lo8(1)
 3714 13f2 81BD      		out 65-32,r24
 3715               	.LM609:
 3716 13f4 10BC      		out 64-32,__zero_reg__
 3717 13f6 00C0      		rjmp .L336
 3718               	.L307:
 3719               	.LBE328:
 3720               	.LBE327:
 3721               	.LM610:
 3722 13f8 C801      		movw r24,r16
 3723 13fa 60E0      		ldi r22,lo8(__c.2876)
 3724 13fc 70E0      		ldi r23,hi8(__c.2876)
 3725 13fe 0E94 0000 		call strcmp_P
 3726 1402 892B      		or r24,r25
 3727 1404 01F4      		brne .L310
 3728               	.LM611:
 3729 1406 80E0      		ldi r24,lo8(__c.2878)
 3730 1408 90E0      		ldi r25,hi8(__c.2878)
 3731 140a 0E94 0000 		call uart_puts_p
 3732               	.L311:
 3733               	.LBB329:
 3734               	.LBB330:
 3735               	.LM612:
 3736 140e F999      		sbic 63-32,1
 3737 1410 00C0      		rjmp .L311
 3738               	.LM613:
 3739 1412 12BC      		out 66-32,__zero_reg__
 3740               	.LM614:
 3741 1414 81E0      		ldi r24,lo8(1)
 3742 1416 81BD      		out 65-32,r24
 3743               	.LM615:
 3744 1418 84E0      		ldi r24,lo8(4)
 3745 141a 00C0      		rjmp .L335
 3746               	.L310:
 3747               	.LBE330:
 3748               	.LBE329:
 3749               	.LM616:
 3750 141c C801      		movw r24,r16
 3751 141e 60E0      		ldi r22,lo8(__c.2880)
 3752 1420 70E0      		ldi r23,hi8(__c.2880)
 3753 1422 0E94 0000 		call strcmp_P
 3754 1426 892B      		or r24,r25
 3755 1428 01F4      		brne .L312
 3756               	.LM617:
 3757 142a 80E0      		ldi r24,lo8(__c.2882)
 3758 142c 90E0      		ldi r25,hi8(__c.2882)
 3759 142e 0E94 0000 		call uart_puts_p
 3760               	.L313:
 3761               	.LBB331:
 3762               	.LBB332:
 3763               	.LM618:
 3764 1432 F999      		sbic 63-32,1
 3765 1434 00C0      		rjmp .L313
 3766               	.LM619:
 3767 1436 12BC      		out 66-32,__zero_reg__
 3768               	.LM620:
 3769 1438 81E0      		ldi r24,lo8(1)
 3770 143a 81BD      		out 65-32,r24
 3771 143c 00C0      		rjmp .L335
 3772               	.L312:
 3773               	.LBE332:
 3774               	.LBE331:
 3775               	.LM621:
 3776 143e C801      		movw r24,r16
 3777 1440 60E0      		ldi r22,lo8(__c.2884)
 3778 1442 70E0      		ldi r23,hi8(__c.2884)
 3779 1444 0E94 0000 		call strcmp_P
 3780 1448 892B      		or r24,r25
 3781 144a 01F4      		brne .L314
 3782               	.LM622:
 3783 144c 80E0      		ldi r24,lo8(__c.2886)
 3784 144e 90E0      		ldi r25,hi8(__c.2886)
 3785 1450 0E94 0000 		call uart_puts_p
 3786               	.L315:
 3787               	.LBB333:
 3788               	.LBB334:
 3789               	.LM623:
 3790 1454 F999      		sbic 63-32,1
 3791 1456 00C0      		rjmp .L315
 3792               	.LM624:
 3793 1458 12BC      		out 66-32,__zero_reg__
 3794               	.LM625:
 3795 145a 81E0      		ldi r24,lo8(1)
 3796 145c 81BD      		out 65-32,r24
 3797               	.LM626:
 3798 145e 85E0      		ldi r24,lo8(5)
 3799 1460 00C0      		rjmp .L335
 3800               	.L314:
 3801               	.LBE334:
 3802               	.LBE333:
 3803               	.LM627:
 3804 1462 C801      		movw r24,r16
 3805 1464 60E0      		ldi r22,lo8(__c.2888)
 3806 1466 70E0      		ldi r23,hi8(__c.2888)
 3807 1468 0E94 0000 		call strcmp_P
 3808 146c 892B      		or r24,r25
 3809 146e 01F4      		brne .L316
 3810               	.LM628:
 3811 1470 80E0      		ldi r24,lo8(__c.2890)
 3812 1472 90E0      		ldi r25,hi8(__c.2890)
 3813 1474 0E94 0000 		call uart_puts_p
 3814               	.L317:
 3815               	.LBB335:
 3816               	.LBB336:
 3817               	.LM629:
 3818 1478 F999      		sbic 63-32,1
 3819 147a 00C0      		rjmp .L317
 3820               	.LM630:
 3821 147c 12BC      		out 66-32,__zero_reg__
 3822               	.LM631:
 3823 147e 81E0      		ldi r24,lo8(1)
 3824 1480 81BD      		out 65-32,r24
 3825               	.LM632:
 3826 1482 86E0      		ldi r24,lo8(6)
 3827 1484 00C0      		rjmp .L335
 3828               	.L316:
 3829               	.LBE336:
 3830               	.LBE335:
 3831               	.LM633:
 3832 1486 C801      		movw r24,r16
 3833 1488 60E0      		ldi r22,lo8(__c.2892)
 3834 148a 70E0      		ldi r23,hi8(__c.2892)
 3835 148c 0E94 0000 		call strcmp_P
 3836 1490 892B      		or r24,r25
 3837 1492 01F4      		brne .L318
 3838               	.LM634:
 3839 1494 80E0      		ldi r24,lo8(__c.2894)
 3840 1496 90E0      		ldi r25,hi8(__c.2894)
 3841 1498 0E94 0000 		call uart_puts_p
 3842               	.L319:
 3843               	.LBB337:
 3844               	.LBB338:
 3845               	.LM635:
 3846 149c F999      		sbic 63-32,1
 3847 149e 00C0      		rjmp .L319
 3848               	.LM636:
 3849 14a0 12BC      		out 66-32,__zero_reg__
 3850               	.LM637:
 3851 14a2 81E0      		ldi r24,lo8(1)
 3852 14a4 81BD      		out 65-32,r24
 3853               	.LM638:
 3854 14a6 82E0      		ldi r24,lo8(2)
 3855 14a8 00C0      		rjmp .L335
 3856               	.L318:
 3857               	.LBE338:
 3858               	.LBE337:
 3859               	.LM639:
 3860 14aa C801      		movw r24,r16
 3861 14ac 60E0      		ldi r22,lo8(__c.2896)
 3862 14ae 70E0      		ldi r23,hi8(__c.2896)
 3863 14b0 0E94 0000 		call strcmp_P
 3864 14b4 892B      		or r24,r25
 3865 14b6 01F4      		brne .L320
 3866               	.LM640:
 3867 14b8 80E0      		ldi r24,lo8(__c.2898)
 3868 14ba 90E0      		ldi r25,hi8(__c.2898)
 3869 14bc 0E94 0000 		call uart_puts_p
 3870               	.L321:
 3871               	.LBB339:
 3872               	.LBB340:
 3873               	.LM641:
 3874 14c0 F999      		sbic 63-32,1
 3875 14c2 00C0      		rjmp .L321
 3876               	.LM642:
 3877 14c4 12BC      		out 66-32,__zero_reg__
 3878               	.LM643:
 3879 14c6 81E0      		ldi r24,lo8(1)
 3880 14c8 81BD      		out 65-32,r24
 3881               	.LM644:
 3882 14ca 83E0      		ldi r24,lo8(3)
 3883               	.L335:
 3884 14cc 80BD      		out 64-32,r24
 3885               	.L336:
 3886               	.LM645:
 3887 14ce FA9A      		sbi 63-32,2
 3888               	.LM646:
 3889 14d0 F99A      		sbi 63-32,1
 3890               	.LBE340:
 3891               	.LBE339:
 3892               	.LM647:
 3893 14d2 0E94 0000 		call record_config_file
 3894               	.LM648:
 3895 14d6 85E0      		ldi r24,lo8(5)
 3896 14d8 0E94 0000 		call blink_error
 3897 14dc 00C0      		rjmp .L322
 3898               	.L320:
 3899               	.LM649:
 3900 14de C801      		movw r24,r16
 3901 14e0 60E0      		ldi r22,lo8(__c.2900)
 3902 14e2 70E0      		ldi r23,hi8(__c.2900)
 3903 14e4 0E94 0000 		call strcmp_P
 3904 14e8 892B      		or r24,r25
 3905 14ea 01F0      		breq .+2
 3906 14ec 00C0      		rjmp .L333
 3907               	.LM650:
 3908 14ee 80E0      		ldi r24,lo8(__c.2902)
 3909 14f0 90E0      		ldi r25,hi8(__c.2902)
 3910 14f2 0E94 0000 		call uart_puts_p
 3911               	.L322:
 3912               	/* epilogue start */
 3913               	.LBE326:
 3914               	.LM651:
 3915 14f6 0F90      		pop __tmp_reg__
 3916 14f8 0F90      		pop __tmp_reg__
 3917 14fa 0F90      		pop __tmp_reg__
 3918 14fc 0F90      		pop __tmp_reg__
 3919 14fe 0F90      		pop __tmp_reg__
 3920 1500 CF91      		pop r28
 3921 1502 DF91      		pop r29
 3922 1504 1F91      		pop r17
 3923 1506 0F91      		pop r16
 3924 1508 FF90      		pop r15
 3925               	.LVL186:
 3926 150a 0895      		ret
 3927               	.LFE28:
 3929               		.data
 3930               	.LC16:
 3931 00a3 2D31 0A00 		.string	"-1\n"
 3932               		.text
 3933               	.global	command_shell
 3935               	command_shell:
 3936               	.LFB13:
 3937               	.LM652:
 3938 150c 2F92      		push r2
 3939 150e 3F92      		push r3
 3940 1510 4F92      		push r4
 3941 1512 5F92      		push r5
 3942 1514 6F92      		push r6
 3943 1516 7F92      		push r7
 3944 1518 8F92      		push r8
 3945 151a 9F92      		push r9
 3946 151c AF92      		push r10
 3947 151e BF92      		push r11
 3948 1520 CF92      		push r12
 3949 1522 DF92      		push r13
 3950 1524 EF92      		push r14
 3951 1526 FF92      		push r15
 3952 1528 0F93      		push r16
 3953 152a 1F93      		push r17
 3954 152c DF93      		push r29
 3955 152e CF93      		push r28
 3956 1530 CDB7      		in r28,__SP_L__
 3957 1532 DEB7      		in r29,__SP_H__
 3958 1534 C357      		subi r28,lo8(-(-115))
 3959 1536 D040      		sbci r29,hi8(-(-115))
 3960 1538 0FB6      		in __tmp_reg__,__SREG__
 3961 153a F894      		cli
 3962 153c DEBF      		out __SP_H__,r29
 3963 153e 0FBE      		out __SREG__,__tmp_reg__
 3964 1540 CDBF      		out __SP_L__,r28
 3965               	/* prologue: function */
 3966               	/* frame size = 115 */
 3967               	.LBB417:
 3968               	.LM653:
 3969 1542 1EE0      		ldi r17,lo8(14)
 3970 1544 412E      		mov r4,r17
 3971 1546 512C      		mov r5,__zero_reg__
 3972 1548 4C0E      		add r4,r28
 3973 154a 5D1E      		adc r5,r29
 3974               	.LBB418:
 3975               	.LM654:
 3976 154c B3E4      		ldi r27,lo8(67)
 3977 154e 6B2E      		mov r6,r27
 3978 1550 712C      		mov r7,__zero_reg__
 3979 1552 6C0E      		add r6,r28
 3980 1554 7D1E      		adc r7,r29
 3981               	.LBE418:
 3982               	.LBB419:
 3983               	.LM655:
 3984 1556 A6E0      		ldi r26,lo8(6)
 3985 1558 2A2E      		mov r2,r26
 3986 155a 312C      		mov r3,__zero_reg__
 3987 155c 2C0E      		add r2,r28
 3988 155e 3D1E      		adc r3,r29
 3989               	.LVL187:
 3990               	.L407:
 3991               	.LBE419:
 3992               	.LM656:
 3993 1560 8EE3      		ldi r24,lo8(62)
 3994 1562 0E94 0000 		call uart_putc
 3995               	.LVL188:
 3996               	.LM657:
 3997 1566 C201      		movw r24,r4
 3998 1568 68E1      		ldi r22,lo8(24)
 3999 156a 0E94 0000 		call read_line
 4000 156e 8823      		tst r24
 4001 1570 01F0      		breq .L407
 4002               	.LM658:
 4003 1572 80E0      		ldi r24,lo8(0)
 4004 1574 0E94 0000 		call get_cmd_arg
 4005 1578 8C01      		movw r16,r24
 4006               	.LVL189:
 4007               	.LM659:
 4008 157a 60E0      		ldi r22,lo8(__c.2250)
 4009 157c 70E0      		ldi r23,hi8(__c.2250)
 4010 157e 0E94 0000 		call strcmp_P
 4011 1582 892B      		or r24,r25
 4012 1584 01F4      		brne .L339
 4013               	.LM660:
 4014 1586 80E0      		ldi r24,lo8(__c.2252)
 4015 1588 90E0      		ldi r25,hi8(__c.2252)
 4016 158a 0E94 0000 		call uart_puts_p
 4017               	.LM661:
 4018 158e 8091 0000 		lds r24,fs
 4019 1592 9091 0000 		lds r25,(fs)+1
 4020 1596 0E94 0000 		call fat_close
 4021               	.LM662:
 4022 159a 8091 0000 		lds r24,partition
 4023 159e 9091 0000 		lds r25,(partition)+1
 4024 15a2 0E94 0000 		call partition_close
 4025               	.LM663:
 4026 15a6 0E94 0000 		call init_media
 4027               	.LM664:
 4028 15aa 80E0      		ldi r24,lo8(__c.2254)
 4029 15ac 90E0      		ldi r25,hi8(__c.2254)
 4030 15ae 00C0      		rjmp .L412
 4031               	.L339:
 4032               	.LM665:
 4033 15b0 C801      		movw r24,r16
 4034 15b2 60E0      		ldi r22,lo8(__c.2256)
 4035 15b4 70E0      		ldi r23,hi8(__c.2256)
 4036 15b6 0E94 0000 		call strcmp_P
 4037 15ba 892B      		or r24,r25
 4038 15bc 01F0      		breq .L413
 4039               	.L340:
 4040               	.LM666:
 4041 15be C801      		movw r24,r16
 4042 15c0 60E0      		ldi r22,lo8(__c.2258)
 4043 15c2 70E0      		ldi r23,hi8(__c.2258)
 4044 15c4 0E94 0000 		call strcmp_P
 4045 15c8 892B      		or r24,r25
 4046 15ca 01F4      		brne .L341
 4047               	.L413:
 4048               	.LM667:
 4049 15cc 0E94 0000 		call print_menu
 4050 15d0 00C0      		rjmp .L407
 4051               	.L341:
 4052               	.LM668:
 4053 15d2 C801      		movw r24,r16
 4054 15d4 60E0      		ldi r22,lo8(__c.2260)
 4055 15d6 70E0      		ldi r23,hi8(__c.2260)
 4056 15d8 0E94 0000 		call strcmp_P
 4057 15dc 892B      		or r24,r25
 4058 15de 01F4      		brne .L342
 4059               	.LM669:
 4060 15e0 0E94 0000 		call baud_menu
 4061 15e4 00C0      		rjmp .L407
 4062               	.L342:
 4063               	.LM670:
 4064 15e6 C801      		movw r24,r16
 4065 15e8 60E0      		ldi r22,lo8(__c.2262)
 4066 15ea 70E0      		ldi r23,hi8(__c.2262)
 4067 15ec 0E94 0000 		call strcmp_P
 4068 15f0 892B      		or r24,r25
 4069 15f2 01F4      		brne .L343
 4070               	.LM671:
 4071 15f4 0E94 0000 		call system_menu
 4072 15f8 00C0      		rjmp .L407
 4073               	.L343:
 4074               	.LM672:
 4075 15fa C801      		movw r24,r16
 4076 15fc 60E0      		ldi r22,lo8(__c.2264)
 4077 15fe 70E0      		ldi r23,hi8(__c.2264)
 4078 1600 42E0      		ldi r20,lo8(2)
 4079 1602 50E0      		ldi r21,hi8(2)
 4080 1604 0E94 0000 		call strncmp_P
 4081 1608 892B      		or r24,r25
 4082 160a 01F4      		brne .L344
 4083               	.LBB421:
 4084               	.LM673:
 4085 160c 82E0      		ldi r24,lo8(2)
 4086 160e B201      		movw r22,r4
 4087 1610 0E94 0000 		call too_many_arguments_error
 4088 1614 8823      		tst r24
 4089 1616 01F0      		breq .+2
 4090 1618 00C0      		rjmp .L407
 4091               	.LM674:
 4092 161a 81E0      		ldi r24,lo8(1)
 4093 161c 0E94 0000 		call get_cmd_arg
 4094 1620 7C01      		movw r14,r24
 4095               	.LVL190:
 4096               	.LM675:
 4097 1622 0097      		sbiw r24,0
 4098 1624 01F4      		brne .+2
 4099 1626 00C0      		rjmp .L407
 4100               	.LVL191:
 4101               	.LM676:
 4102 1628 6091 0000 		lds r22,dd
 4103 162c 7091 0000 		lds r23,(dd)+1
 4104 1630 8091 0000 		lds r24,fs
 4105 1634 9091 0000 		lds r25,(fs)+1
 4106               	.LVL192:
 4107 1638 A701      		movw r20,r14
 4108 163a 9301      		movw r18,r6
 4109 163c 00E0      		ldi r16,lo8(0)
 4110 163e 0E94 0000 		call find_file_in_dir
 4111 1642 8823      		tst r24
 4112 1644 01F0      		breq .L345
 4113               	.LBB422:
 4114               	.LM677:
 4115 1646 8091 0000 		lds r24,fs
 4116 164a 9091 0000 		lds r25,(fs)+1
 4117 164e B301      		movw r22,r6
 4118 1650 0E94 0000 		call fat_open_dir
 4119 1654 8C01      		movw r16,r24
 4120               	.LVL193:
 4121               	.LM678:
 4122 1656 0097      		sbiw r24,0
 4123 1658 01F0      		breq .L345
 4124               	.LVL194:
 4125               	.LM679:
 4126 165a 8091 0000 		lds r24,dd
 4127 165e 9091 0000 		lds r25,(dd)+1
 4128               	.LVL195:
 4129 1662 0E94 0000 		call fat_close_dir
 4130               	.LM680:
 4131 1666 1093 0000 		sts (dd)+1,r17
 4132 166a 0093 0000 		sts dd,r16
 4133 166e 00C0      		rjmp .L407
 4134               	.LVL196:
 4135               	.L345:
 4136               	.LBE422:
 4137               	.LM681:
 4138 1670 80E0      		ldi r24,lo8(__c.2268)
 4139 1672 90E0      		ldi r25,hi8(__c.2268)
 4140               	.LVL197:
 4141 1674 0E94 0000 		call uart_puts_p
 4142               	.LM682:
 4143 1678 C701      		movw r24,r14
 4144 167a 00C0      		rjmp .L414
 4145               	.LVL198:
 4146               	.L344:
 4147               	.LBE421:
 4148               	.LM683:
 4149 167c C801      		movw r24,r16
 4150 167e 60E0      		ldi r22,lo8(__c.2270)
 4151 1680 70E0      		ldi r23,hi8(__c.2270)
 4152 1682 0E94 0000 		call strcmp_P
 4153 1686 892B      		or r24,r25
 4154 1688 01F0      		breq .+2
 4155 168a 00C0      		rjmp .L346
 4156               	.LBB423:
 4157               	.LM684:
 4158 168c 81E0      		ldi r24,lo8(1)
 4159 168e 0E94 0000 		call get_cmd_arg
 4160 1692 7C01      		movw r14,r24
 4161               	.LVL199:
 4162               	.LBB424:
 4163               	.LM685:
 4164 1694 F4E2      		ldi r31,lo8(36)
 4165 1696 DF2E      		mov r13,r31
 4166 1698 00C0      		rjmp .L408
 4167               	.L353:
 4168               	.LBE424:
 4169               	.LM686:
 4170 169a E114      		cp r14,__zero_reg__
 4171 169c F104      		cpc r15,__zero_reg__
 4172 169e 01F0      		breq .L348
 4173               	.LM687:
 4174 16a0 C701      		movw r24,r14
 4175 16a2 B301      		movw r22,r6
 4176 16a4 0E94 0000 		call wildcmp
 4177 16a8 8823      		tst r24
 4178 16aa 01F0      		breq .L408
 4179               	.L348:
 4180               	.LBB425:
 4181               	.LM688:
 4182 16ac D301      		movw r26,r6
 4183 16ae 0D90      		ld __tmp_reg__,X+
 4184 16b0 0020      		tst __tmp_reg__
 4185 16b2 01F4      		brne .-6
 4186 16b4 8D01      		movw r16,r26
 4187 16b6 0150      		subi r16,lo8(-(-1))
 4188 16b8 1040      		sbci r17,hi8(-(-1))
 4189 16ba 0619      		sub r16,r6
 4190 16bc 1709      		sbc r17,r7
 4191               	.LM689:
 4192 16be C301      		movw r24,r6
 4193 16c0 0E94 0000 		call uart_puts
 4194               	.LM690:
 4195 16c4 F301      		movw r30,r6
 4196 16c6 80A1      		ldd r24,Z+32
 4197 16c8 84FD      		sbrc r24,4
 4198 16ca 00C0      		rjmp .L349
 4199 16cc 80E2      		ldi r24,lo8(32)
 4200 16ce 00C0      		rjmp .L350
 4201               	.L349:
 4202 16d0 8FE2      		ldi r24,lo8(47)
 4203               	.L350:
 4204               	.LM691:
 4205 16d2 1D2D      		mov r17,r13
 4206               	.LVL200:
 4207 16d4 101B      		sub r17,r16
 4208               	.LM692:
 4209 16d6 0E94 0000 		call uart_putc
 4210 16da 00C0      		rjmp .L351
 4211               	.L352:
 4212               	.LM693:
 4213 16dc 80E2      		ldi r24,lo8(32)
 4214 16de 0E94 0000 		call uart_putc
 4215 16e2 1150      		subi r17,lo8(-(-1))
 4216               	.L351:
 4217               	.LM694:
 4218 16e4 1123      		tst r17
 4219 16e6 01F4      		brne .L352
 4220               	.LM695:
 4221 16e8 D301      		movw r26,r6
 4222 16ea 9596      		adiw r26,37
 4223 16ec 6D91      		ld r22,X+
 4224 16ee 7D91      		ld r23,X+
 4225 16f0 8D91      		ld r24,X+
 4226 16f2 9C91      		ld r25,X
 4227 16f4 9897      		sbiw r26,37+3
 4228 16f6 0E94 0000 		call uart_putdw_dec
 4229               	.LM696:
 4230 16fa 8AE0      		ldi r24,lo8(10)
 4231 16fc 0E94 0000 		call uart_putc
 4232               	.LVL201:
 4233               	.L408:
 4234               	.LBE425:
 4235               	.LM697:
 4236 1700 8091 0000 		lds r24,dd
 4237 1704 9091 0000 		lds r25,(dd)+1
 4238 1708 B301      		movw r22,r6
 4239 170a 0E94 0000 		call fat_read_dir
 4240 170e 8823      		tst r24
 4241 1710 01F4      		brne .L353
 4242 1712 00C0      		rjmp .L407
 4243               	.LVL202:
 4244               	.L346:
 4245               	.LBE423:
 4246               	.LM698:
 4247 1714 C801      		movw r24,r16
 4248 1716 60E0      		ldi r22,lo8(__c.2280)
 4249 1718 70E0      		ldi r23,hi8(__c.2280)
 4250 171a 43E0      		ldi r20,lo8(3)
 4251 171c 50E0      		ldi r21,hi8(3)
 4252 171e 0E94 0000 		call strncmp_P
 4253 1722 892B      		or r24,r25
 4254 1724 01F0      		breq .+2
 4255 1726 00C0      		rjmp .L354
 4256               	.LBB426:
 4257               	.LM699:
 4258 1728 82E0      		ldi r24,lo8(2)
 4259 172a B201      		movw r22,r4
 4260 172c 0E94 0000 		call too_many_arguments_error
 4261 1730 8823      		tst r24
 4262 1732 01F0      		breq .+2
 4263 1734 00C0      		rjmp .L407
 4264               	.LM700:
 4265 1736 81E0      		ldi r24,lo8(1)
 4266 1738 0E94 0000 		call get_cmd_arg
 4267 173c 8C01      		movw r16,r24
 4268               	.LVL203:
 4269               	.LM701:
 4270 173e 0097      		sbiw r24,0
 4271 1740 01F4      		brne .+2
 4272 1742 00C0      		rjmp .L407
 4273               	.LVL204:
 4274               	.LM702:
 4275 1744 6091 0000 		lds r22,dd
 4276 1748 7091 0000 		lds r23,(dd)+1
 4277 174c 8091 0000 		lds r24,fs
 4278 1750 9091 0000 		lds r25,(fs)+1
 4279               	.LVL205:
 4280 1754 A801      		movw r20,r16
 4281 1756 0E94 0000 		call open_file_in_dir
 4282 175a 5C01      		movw r10,r24
 4283               	.LM703:
 4284 175c 0097      		sbiw r24,0
 4285 175e 01F0      		breq .L355
 4286               	.LVL206:
 4287 1760 CC24      		clr r12
 4288 1762 DD24      		clr r13
 4289 1764 7601      		movw r14,r12
 4290               	.LVL207:
 4291 1766 00C0      		rjmp .L356
 4292               	.LVL208:
 4293               	.L355:
 4294               	.LM704:
 4295 1768 80E0      		ldi r24,lo8(__c.2283)
 4296 176a 90E0      		ldi r25,hi8(__c.2283)
 4297               	.LVL209:
 4298 176c 00C0      		rjmp .L411
 4299               	.LVL210:
 4300               	.L358:
 4301               	.LM705:
 4302 176e C701      		movw r24,r14
 4303 1770 B601      		movw r22,r12
 4304 1772 0E94 0000 		call uart_putdw_hex
 4305               	.LVL211:
 4306               	.LM706:
 4307 1776 8AE3      		ldi r24,lo8(58)
 4308 1778 0E94 0000 		call uart_putc
 4309 177c 8101      		movw r16,r2
 4310               	.LVL212:
 4311               	.L357:
 4312               	.LBB420:
 4313               	.LM707:
 4314 177e 80E2      		ldi r24,lo8(32)
 4315 1780 0E94 0000 		call uart_putc
 4316               	.LM708:
 4317 1784 F801      		movw r30,r16
 4318 1786 8191      		ld r24,Z+
 4319 1788 8F01      		movw r16,r30
 4320 178a 0E94 0000 		call uart_putc_hex
 4321               	.LM709:
 4322 178e 802F      		mov r24,r16
 4323 1790 8219      		sub r24,r2
 4324 1792 8915      		cp r24,r9
 4325 1794 00F0      		brlo .L357
 4326               	.LBE420:
 4327               	.LM710:
 4328 1796 8AE0      		ldi r24,lo8(10)
 4329 1798 0E94 0000 		call uart_putc
 4330               	.LM711:
 4331 179c 88E0      		ldi r24,lo8(8)
 4332 179e 90E0      		ldi r25,hi8(8)
 4333 17a0 A0E0      		ldi r26,hlo8(8)
 4334 17a2 B0E0      		ldi r27,hhi8(8)
 4335 17a4 C80E      		add r12,r24
 4336 17a6 D91E      		adc r13,r25
 4337 17a8 EA1E      		adc r14,r26
 4338 17aa FB1E      		adc r15,r27
 4339               	.LVL213:
 4340               	.L356:
 4341               	.LM712:
 4342 17ac C501      		movw r24,r10
 4343 17ae B101      		movw r22,r2
 4344 17b0 48E0      		ldi r20,lo8(8)
 4345 17b2 50E0      		ldi r21,hi8(8)
 4346 17b4 0E94 0000 		call fat_read_file
 4347 17b8 982E      		mov r9,r24
 4348 17ba 8823      		tst r24
 4349 17bc 01F4      		brne .L358
 4350               	.LVL214:
 4351               	.LM713:
 4352 17be C501      		movw r24,r10
 4353               	.LVL215:
 4354 17c0 00C0      		rjmp .L415
 4355               	.LVL216:
 4356               	.L354:
 4357               	.LBE426:
 4358               	.LM714:
 4359 17c2 C801      		movw r24,r16
 4360 17c4 60E0      		ldi r22,lo8(__c.2295)
 4361 17c6 70E0      		ldi r23,hi8(__c.2295)
 4362 17c8 44E0      		ldi r20,lo8(4)
 4363 17ca 50E0      		ldi r21,hi8(4)
 4364 17cc 0E94 0000 		call strncmp_P
 4365 17d0 892B      		or r24,r25
 4366 17d2 01F0      		breq .+2
 4367 17d4 00C0      		rjmp .L359
 4368               	.LBB427:
 4369               	.LM715:
 4370 17d6 81E0      		ldi r24,lo8(1)
 4371 17d8 0E94 0000 		call get_cmd_arg
 4372 17dc 8C01      		movw r16,r24
 4373               	.LVL217:
 4374               	.LM716:
 4375 17de 0097      		sbiw r24,0
 4376 17e0 01F4      		brne .+2
 4377 17e2 00C0      		rjmp .L407
 4378               	.LVL218:
 4379               	.LM717:
 4380 17e4 6091 0000 		lds r22,dd
 4381 17e8 7091 0000 		lds r23,(dd)+1
 4382 17ec 8091 0000 		lds r24,fs
 4383 17f0 9091 0000 		lds r25,(fs)+1
 4384               	.LVL219:
 4385 17f4 A801      		movw r20,r16
 4386 17f6 0E94 0000 		call open_file_in_dir
 4387 17fa 4C01      		movw r8,r24
 4388               	.LM718:
 4389 17fc 0097      		sbiw r24,0
 4390 17fe 01F4      		brne .L360
 4391               	.LVL220:
 4392               	.LM719:
 4393 1800 80E0      		ldi r24,lo8(__c.2298)
 4394 1802 90E0      		ldi r25,hi8(__c.2298)
 4395               	.LVL221:
 4396 1804 00C0      		rjmp .L411
 4397               	.LVL222:
 4398               	.L360:
 4399               	.LM720:
 4400 1806 82E0      		ldi r24,lo8(2)
 4401               	.LVL223:
 4402 1808 0E94 0000 		call get_cmd_arg
 4403 180c AC01      		movw r20,r24
 4404               	.LVL224:
 4405 180e 0097      		sbiw r24,0
 4406 1810 01F4      		brne .+2
 4407 1812 00C0      		rjmp .L361
 4408               	.LVL225:
 4409               	.LM721:
 4410 1814 FC01      		movw r30,r24
 4411 1816 0190      		ld __tmp_reg__,Z+
 4412 1818 0020      		tst __tmp_reg__
 4413 181a 01F4      		brne .-6
 4414 181c 3197      		sbiw r30,1
 4415 181e E81B      		sub r30,r24
 4416 1820 20E0      		ldi r18,lo8(0)
 4417 1822 30E0      		ldi r19,hi8(0)
 4418               	.LVL226:
 4419               	.LBB428:
 4420               	.LBB429:
 4421               	.LBB430:
 4422               	.LM722:
 4423 1824 6E2F      		mov r22,r30
 4424 1826 70E0      		ldi r23,lo8(0)
 4425 1828 00C0      		rjmp .L362
 4426               	.LVL227:
 4427               	.L363:
 4428               	.LM723:
 4429 182a FA01      		movw r30,r20
 4430 182c E20F      		add r30,r18
 4431 182e F31F      		adc r31,r19
 4432 1830 8081      		ld r24,Z
 4433 1832 90E0      		ldi r25,lo8(0)
 4434 1834 C097      		sbiw r24,48
 4435 1836 0A97      		sbiw r24,10
 4436 1838 00F0      		brlo .+2
 4437 183a 00C0      		rjmp .L361
 4438               	.LM724:
 4439 183c 2F5F      		subi r18,lo8(-(1))
 4440 183e 3F4F      		sbci r19,hi8(-(1))
 4441               	.LVL228:
 4442               	.L362:
 4443 1840 2617      		cp r18,r22
 4444 1842 3707      		cpc r19,r23
 4445 1844 04F0      		brlt .L363
 4446 1846 8A01      		movw r16,r20
 4447               	.LVL229:
 4448 1848 20E0      		ldi r18,lo8(0)
 4449 184a 30E0      		ldi r19,hi8(0)
 4450 184c 40E0      		ldi r20,hlo8(0)
 4451 184e 50E0      		ldi r21,hhi8(0)
 4452               	.LVL230:
 4453 1850 00C0      		rjmp .L364
 4454               	.LVL231:
 4455               	.L365:
 4456               	.LBE430:
 4457               	.LBE429:
 4458               	.LBE428:
 4459               	.LBB431:
 4460               	.LBB432:
 4461               	.LBB433:
 4462               	.LM725:
 4463 1852 CA01      		movw r24,r20
 4464 1854 B901      		movw r22,r18
 4465 1856 2AE0      		ldi r18,lo8(10)
 4466 1858 30E0      		ldi r19,hi8(10)
 4467 185a 40E0      		ldi r20,hlo8(10)
 4468 185c 50E0      		ldi r21,hhi8(10)
 4469               	.LVL232:
 4470 185e 0E94 0000 		call __mulsi3
 4471 1862 9B01      		movw r18,r22
 4472 1864 AC01      		movw r20,r24
 4473               	.LVL233:
 4474 1866 8F2D      		mov r24,r15
 4475 1868 90E0      		ldi r25,lo8(0)
 4476 186a C097      		sbiw r24,48
 4477 186c AA27      		clr r26
 4478 186e 97FD      		sbrc r25,7
 4479 1870 A095      		com r26
 4480 1872 BA2F      		mov r27,r26
 4481 1874 280F      		add r18,r24
 4482 1876 391F      		adc r19,r25
 4483 1878 4A1F      		adc r20,r26
 4484 187a 5B1F      		adc r21,r27
 4485 187c 0F5F      		subi r16,lo8(-(1))
 4486 187e 1F4F      		sbci r17,hi8(-(1))
 4487               	.LVL234:
 4488               	.L364:
 4489               	.LM726:
 4490 1880 D801      		movw r26,r16
 4491 1882 FC90      		ld r15,X
 4492 1884 8F2D      		mov r24,r15
 4493 1886 8053      		subi r24,lo8(-(-48))
 4494 1888 8A30      		cpi r24,lo8(10)
 4495 188a 00F0      		brlo .L365
 4496               	.LBE433:
 4497               	.LBE432:
 4498               	.LM727:
 4499 188c 2A83      		std Y+2,r18
 4500 188e 3B83      		std Y+3,r19
 4501 1890 4C83      		std Y+4,r20
 4502 1892 5D83      		std Y+5,r21
 4503               	.LVL235:
 4504               	.LM728:
 4505 1894 C401      		movw r24,r8
 4506 1896 BE01      		movw r22,r28
 4507 1898 6E5F      		subi r22,lo8(-(2))
 4508 189a 7F4F      		sbci r23,hi8(-(2))
 4509 189c 40E0      		ldi r20,lo8(0)
 4510               	.LVL236:
 4511 189e 0E94 0000 		call fat_seek_file
 4512               	.LVL237:
 4513 18a2 8823      		tst r24
 4514 18a4 01F4      		brne .L361
 4515               	.LM729:
 4516 18a6 80E0      		ldi r24,lo8(__c.2301)
 4517 18a8 90E0      		ldi r25,hi8(__c.2301)
 4518 18aa 0E94 0000 		call uart_puts_p
 4519               	.LM730:
 4520 18ae C201      		movw r24,r4
 4521 18b0 0E94 0000 		call uart_puts
 4522               	.L417:
 4523               	.LM731:
 4524 18b4 8AE0      		ldi r24,lo8(10)
 4525 18b6 0E94 0000 		call uart_putc
 4526               	.LM732:
 4527 18ba C401      		movw r24,r8
 4528               	.LVL238:
 4529               	.L415:
 4530 18bc 0E94 0000 		call fat_close_file
 4531 18c0 00C0      		rjmp .L407
 4532               	.LVL239:
 4533               	.L361:
 4534               	.LBE431:
 4535               	.LM733:
 4536 18c2 83E0      		ldi r24,lo8(3)
 4537 18c4 0E94 0000 		call get_cmd_arg
 4538               	.LVL240:
 4539 18c8 AC01      		movw r20,r24
 4540               	.LVL241:
 4541 18ca 0097      		sbiw r24,0
 4542 18cc 01F0      		breq .L366
 4543               	.LVL242:
 4544               	.LM734:
 4545 18ce FC01      		movw r30,r24
 4546 18d0 0190      		ld __tmp_reg__,Z+
 4547 18d2 0020      		tst __tmp_reg__
 4548 18d4 01F4      		brne .-6
 4549 18d6 3197      		sbiw r30,1
 4550 18d8 E81B      		sub r30,r24
 4551 18da 20E0      		ldi r18,lo8(0)
 4552 18dc 30E0      		ldi r19,hi8(0)
 4553               	.LVL243:
 4554               	.LBB434:
 4555               	.LBB435:
 4556               	.LBB436:
 4557               	.LM735:
 4558 18de 6E2F      		mov r22,r30
 4559 18e0 70E0      		ldi r23,lo8(0)
 4560 18e2 00C0      		rjmp .L367
 4561               	.LVL244:
 4562               	.L368:
 4563               	.LM736:
 4564 18e4 FA01      		movw r30,r20
 4565 18e6 E20F      		add r30,r18
 4566 18e8 F31F      		adc r31,r19
 4567 18ea 8081      		ld r24,Z
 4568 18ec 90E0      		ldi r25,lo8(0)
 4569 18ee C097      		sbiw r24,48
 4570 18f0 0A97      		sbiw r24,10
 4571 18f2 00F4      		brsh .L366
 4572               	.LM737:
 4573 18f4 2F5F      		subi r18,lo8(-(1))
 4574 18f6 3F4F      		sbci r19,hi8(-(1))
 4575               	.LVL245:
 4576               	.L367:
 4577 18f8 2617      		cp r18,r22
 4578 18fa 3707      		cpc r19,r23
 4579 18fc 04F0      		brlt .L368
 4580 18fe 6A01      		movw r12,r20
 4581               	.LVL246:
 4582 1900 EE24      		clr r14
 4583 1902 FF24      		clr r15
 4584 1904 8701      		movw r16,r14
 4585               	.LVL247:
 4586 1906 00C0      		rjmp .L369
 4587               	.LVL248:
 4588               	.L370:
 4589               	.LBE436:
 4590               	.LBE435:
 4591               	.LBE434:
 4592               	.LBB437:
 4593               	.LBB438:
 4594               	.LM738:
 4595 1908 C801      		movw r24,r16
 4596 190a B701      		movw r22,r14
 4597 190c 2AE0      		ldi r18,lo8(10)
 4598 190e 30E0      		ldi r19,hi8(10)
 4599 1910 40E0      		ldi r20,hlo8(10)
 4600 1912 50E0      		ldi r21,hhi8(10)
 4601               	.LVL249:
 4602 1914 0E94 0000 		call __mulsi3
 4603 1918 7B01      		movw r14,r22
 4604 191a 8C01      		movw r16,r24
 4605 191c 8B2D      		mov r24,r11
 4606 191e 90E0      		ldi r25,lo8(0)
 4607 1920 C097      		sbiw r24,48
 4608 1922 AA27      		clr r26
 4609 1924 97FD      		sbrc r25,7
 4610 1926 A095      		com r26
 4611 1928 BA2F      		mov r27,r26
 4612 192a E80E      		add r14,r24
 4613 192c F91E      		adc r15,r25
 4614 192e 0A1F      		adc r16,r26
 4615 1930 1B1F      		adc r17,r27
 4616 1932 0894      		sec
 4617 1934 C11C      		adc r12,__zero_reg__
 4618 1936 D11C      		adc r13,__zero_reg__
 4619               	.LVL250:
 4620               	.L369:
 4621               	.LM739:
 4622 1938 F601      		movw r30,r12
 4623 193a B080      		ld r11,Z
 4624 193c 8B2D      		mov r24,r11
 4625 193e 8053      		subi r24,lo8(-(-48))
 4626 1940 8A30      		cpi r24,lo8(10)
 4627 1942 00F0      		brlo .L370
 4628 1944 00C0      		rjmp .L410
 4629               	.LVL251:
 4630               	.L366:
 4631 1946 EE24      		clr r14
 4632 1948 EA94      		dec r14
 4633 194a FE2C      		mov r15,r14
 4634 194c 8701      		movw r16,r14
 4635               	.LVL252:
 4636 194e 00C0      		rjmp .L410
 4637               	.LVL253:
 4638               	.L376:
 4639               	.LBE438:
 4640               	.LBE437:
 4641               	.LM740:
 4642 1950 9981      		ldd r25,Y+1
 4643 1952 892F      		mov r24,r25
 4644 1954 8052      		subi r24,lo8(-(-32))
 4645 1956 8F35      		cpi r24,lo8(95)
 4646 1958 00F4      		brsh .L372
 4647               	.LM741:
 4648 195a 892F      		mov r24,r25
 4649 195c 00C0      		rjmp .L418
 4650               	.L372:
 4651               	.LM742:
 4652 195e 9A30      		cpi r25,lo8(10)
 4653 1960 01F4      		brne .L374
 4654               	.LM743:
 4655 1962 8AE0      		ldi r24,lo8(10)
 4656 1964 00C0      		rjmp .L418
 4657               	.L374:
 4658               	.LM744:
 4659 1966 8EE2      		ldi r24,lo8(46)
 4660               	.L418:
 4661 1968 0E94 0000 		call uart_putc
 4662               	.LM745:
 4663 196c 0894      		sec
 4664 196e E108      		sbc r14,__zero_reg__
 4665 1970 F108      		sbc r15,__zero_reg__
 4666 1972 0109      		sbc r16,__zero_reg__
 4667 1974 1109      		sbc r17,__zero_reg__
 4668               	.LVL254:
 4669               	.L410:
 4670               	.LM746:
 4671 1976 C401      		movw r24,r8
 4672 1978 BE01      		movw r22,r28
 4673 197a 6F5F      		subi r22,lo8(-(1))
 4674 197c 7F4F      		sbci r23,hi8(-(1))
 4675 197e 41E0      		ldi r20,lo8(1)
 4676 1980 50E0      		ldi r21,hi8(1)
 4677               	.LVL255:
 4678 1982 0E94 0000 		call fat_read_file
 4679               	.LVL256:
 4680 1986 1816      		cp __zero_reg__,r24
 4681 1988 1906      		cpc __zero_reg__,r25
 4682 198a 04F0      		brlt .+2
 4683 198c 00C0      		rjmp .L417
 4684 198e E114      		cp r14,__zero_reg__
 4685 1990 F104      		cpc r15,__zero_reg__
 4686 1992 0105      		cpc r16,__zero_reg__
 4687 1994 1105      		cpc r17,__zero_reg__
 4688 1996 01F4      		brne .L376
 4689 1998 00C0      		rjmp .L417
 4690               	.LVL257:
 4691               	.L359:
 4692               	.LBE427:
 4693               	.LM747:
 4694 199a C801      		movw r24,r16
 4695 199c 60E0      		ldi r22,lo8(__c.2308)
 4696 199e 70E0      		ldi r23,hi8(__c.2308)
 4697 19a0 0E94 0000 		call strcmp_P
 4698 19a4 892B      		or r24,r25
 4699 19a6 01F0      		breq .+2
 4700 19a8 00C0      		rjmp .L377
 4701               	.LM748:
 4702 19aa E090 0000 		lds r14,fs
 4703 19ae F090 0000 		lds r15,(fs)+1
 4704               	.LVL258:
 4705               	.LBB439:
 4706               	.LBB440:
 4707               	.LM749:
 4708 19b2 E114      		cp r14,__zero_reg__
 4709 19b4 F104      		cpc r15,__zero_reg__
 4710 19b6 01F4      		brne .+2
 4711 19b8 00C0      		rjmp .L378
 4712               	.LBE440:
 4713               	.LM750:
 4714 19ba CE01      		movw r24,r28
 4715 19bc 8696      		adiw r24,38
 4716 19be 0E94 0000 		call sd_raw_get_info
 4717               	.LBB441:
 4718 19c2 8823      		tst r24
 4719 19c4 01F4      		brne .+2
 4720 19c6 00C0      		rjmp .L378
 4721               	.LBE441:
 4722               	.LM751:
 4723 19c8 80E0      		ldi r24,lo8(__c.2738)
 4724 19ca 90E0      		ldi r25,hi8(__c.2738)
 4725 19cc 0E94 0000 		call uart_puts_p
 4726               	.LBB442:
 4727 19d0 8EA1      		ldd r24,Y+38
 4728 19d2 0E94 0000 		call uart_putc_hex
 4729 19d6 8AE0      		ldi r24,lo8(10)
 4730 19d8 0E94 0000 		call uart_putc
 4731               	.LBE442:
 4732               	.LM752:
 4733 19dc 80E0      		ldi r24,lo8(__c.2740)
 4734 19de 90E0      		ldi r25,hi8(__c.2740)
 4735 19e0 0E94 0000 		call uart_puts_p
 4736               	.LBB443:
 4737 19e4 CE01      		movw r24,r28
 4738 19e6 8796      		adiw r24,39
 4739 19e8 0E94 0000 		call uart_puts
 4740 19ec 8AE0      		ldi r24,lo8(10)
 4741 19ee 0E94 0000 		call uart_putc
 4742               	.LBE443:
 4743               	.LM753:
 4744 19f2 80E0      		ldi r24,lo8(__c.2742)
 4745 19f4 90E0      		ldi r25,hi8(__c.2742)
 4746 19f6 0E94 0000 		call uart_puts_p
 4747               	.LBB444:
 4748 19fa CE01      		movw r24,r28
 4749 19fc 8A96      		adiw r24,42
 4750 19fe 0E94 0000 		call uart_puts
 4751 1a02 8AE0      		ldi r24,lo8(10)
 4752 1a04 0E94 0000 		call uart_putc
 4753               	.LBE444:
 4754               	.LM754:
 4755 1a08 80E0      		ldi r24,lo8(__c.2744)
 4756 1a0a 90E0      		ldi r25,hi8(__c.2744)
 4757 1a0c 0E94 0000 		call uart_puts_p
 4758               	.LBB445:
 4759 1a10 88A9      		ldd r24,Y+48
 4760 1a12 0E94 0000 		call uart_putc_hex
 4761 1a16 8AE0      		ldi r24,lo8(10)
 4762 1a18 0E94 0000 		call uart_putc
 4763               	.LBE445:
 4764               	.LM755:
 4765 1a1c 80E0      		ldi r24,lo8(__c.2746)
 4766 1a1e 90E0      		ldi r25,hi8(__c.2746)
 4767 1a20 0E94 0000 		call uart_puts_p
 4768               	.LBB446:
 4769 1a24 69A9      		ldd r22,Y+49
 4770 1a26 7AA9      		ldd r23,Y+50
 4771 1a28 8BA9      		ldd r24,Y+51
 4772 1a2a 9CA9      		ldd r25,Y+52
 4773 1a2c 0E94 0000 		call uart_putdw_hex
 4774 1a30 8AE0      		ldi r24,lo8(10)
 4775 1a32 0E94 0000 		call uart_putc
 4776               	.LBE446:
 4777               	.LM756:
 4778 1a36 80E0      		ldi r24,lo8(__c.2748)
 4779 1a38 90E0      		ldi r25,hi8(__c.2748)
 4780 1a3a 0E94 0000 		call uart_puts_p
 4781               	.LBB447:
 4782 1a3e 8EA9      		ldd r24,Y+54
 4783 1a40 90E0      		ldi r25,lo8(0)
 4784 1a42 0E94 0000 		call uart_putw_dec
 4785 1a46 8FE2      		ldi r24,lo8(47)
 4786 1a48 0E94 0000 		call uart_putc
 4787               	.LM757:
 4788 1a4c 8DA9      		ldd r24,Y+53
 4789 1a4e 90E0      		ldi r25,lo8(0)
 4790 1a50 0E94 0000 		call uart_putw_dec
 4791 1a54 8AE0      		ldi r24,lo8(10)
 4792 1a56 0E94 0000 		call uart_putc
 4793               	.LBE447:
 4794               	.LM758:
 4795 1a5a 80E0      		ldi r24,lo8(__c.2750)
 4796 1a5c 90E0      		ldi r25,hi8(__c.2750)
 4797 1a5e 0E94 0000 		call uart_puts_p
 4798               	.LBB448:
 4799 1a62 2FA9      		ldd r18,Y+55
 4800 1a64 38AD      		ldd r19,Y+56
 4801 1a66 49AD      		ldd r20,Y+57
 4802 1a68 5AAD      		ldd r21,Y+58
 4803 1a6a 6BAD      		ldd r22,Y+59
 4804 1a6c 7CAD      		ldd r23,Y+60
 4805 1a6e 8DAD      		ldd r24,Y+61
 4806 1a70 9EAD      		ldd r25,Y+62
 4807 1a72 04E1      		ldi r16,lo8(20)
 4808               	.LVL259:
 4809 1a74 0E94 0000 		call __lshrdi3
 4810 1a78 B901      		movw r22,r18
 4811 1a7a CA01      		movw r24,r20
 4812 1a7c 0E94 0000 		call uart_putdw_dec
 4813               	.LBE448:
 4814 1a80 80E0      		ldi r24,lo8(__c.2752)
 4815 1a82 90E0      		ldi r25,hi8(__c.2752)
 4816 1a84 0E94 0000 		call uart_puts_p
 4817               	.LM759:
 4818 1a88 80E0      		ldi r24,lo8(__c.2754)
 4819 1a8a 90E0      		ldi r25,hi8(__c.2754)
 4820 1a8c 0E94 0000 		call uart_puts_p
 4821               	.LBB449:
 4822 1a90 8FAD      		ldd r24,Y+63
 4823 1a92 90E0      		ldi r25,lo8(0)
 4824 1a94 0E94 0000 		call uart_putw_dec
 4825 1a98 8AE0      		ldi r24,lo8(10)
 4826 1a9a 0E94 0000 		call uart_putc
 4827               	.LBE449:
 4828               	.LM760:
 4829 1a9e 80E0      		ldi r24,lo8(__c.2756)
 4830 1aa0 90E0      		ldi r25,hi8(__c.2756)
 4831 1aa2 0E94 0000 		call uart_puts_p
 4832               	.LBB450:
 4833 1aa6 2296      		adiw r28,65-63
 4834 1aa8 8FAD      		ldd r24,Y+63
 4835 1aaa 2297      		sbiw r28,65-63
 4836 1aac 90E0      		ldi r25,lo8(0)
 4837 1aae 0E94 0000 		call uart_putw_dec
 4838 1ab2 8FE2      		ldi r24,lo8(47)
 4839 1ab4 0E94 0000 		call uart_putc
 4840               	.LM761:
 4841 1ab8 2196      		adiw r28,64-63
 4842 1aba 8FAD      		ldd r24,Y+63
 4843 1abc 2197      		sbiw r28,64-63
 4844 1abe 90E0      		ldi r25,lo8(0)
 4845 1ac0 0E94 0000 		call uart_putw_dec
 4846 1ac4 8AE0      		ldi r24,lo8(10)
 4847 1ac6 0E94 0000 		call uart_putc
 4848               	.LBE450:
 4849               	.LM762:
 4850 1aca 80E0      		ldi r24,lo8(__c.2758)
 4851 1acc 90E0      		ldi r25,hi8(__c.2758)
 4852 1ace 0E94 0000 		call uart_puts_p
 4853               	.LBB451:
 4854 1ad2 2396      		adiw r28,66-63
 4855 1ad4 8FAD      		ldd r24,Y+63
 4856 1ad6 2397      		sbiw r28,66-63
 4857 1ad8 90E0      		ldi r25,lo8(0)
 4858 1ada 0E94 0000 		call uart_putw_dec
 4859 1ade 8AE0      		ldi r24,lo8(10)
 4860 1ae0 0E94 0000 		call uart_putc
 4861               	.LBE451:
 4862               	.LM763:
 4863 1ae4 80E0      		ldi r24,lo8(__c.2760)
 4864 1ae6 90E0      		ldi r25,hi8(__c.2760)
 4865 1ae8 0E94 0000 		call uart_puts_p
 4866 1aec C701      		movw r24,r14
 4867 1aee 0E94 0000 		call fat_get_fs_free
 4868               	.LBB452:
 4869 1af2 B901      		movw r22,r18
 4870 1af4 CA01      		movw r24,r20
 4871 1af6 0E94 0000 		call uart_putdw_dec
 4872 1afa 8FE2      		ldi r24,lo8(47)
 4873 1afc 0E94 0000 		call uart_putc
 4874               	.LBE452:
 4875               	.LM764:
 4876 1b00 C701      		movw r24,r14
 4877 1b02 0E94 0000 		call fat_get_fs_size
 4878               	.LBB453:
 4879 1b06 B901      		movw r22,r18
 4880 1b08 CA01      		movw r24,r20
 4881 1b0a 00C0      		rjmp .L419
 4882               	.LVL260:
 4883               	.L378:
 4884               	.LBE453:
 4885               	.LBE439:
 4886               	.LM765:
 4887 1b0c 80E0      		ldi r24,lo8(__c.2310)
 4888 1b0e 90E0      		ldi r25,hi8(__c.2310)
 4889 1b10 00C0      		rjmp .L412
 4890               	.LVL261:
 4891               	.L377:
 4892               	.LM766:
 4893 1b12 C801      		movw r24,r16
 4894 1b14 60E0      		ldi r22,lo8(__c.2312)
 4895 1b16 70E0      		ldi r23,hi8(__c.2312)
 4896 1b18 44E0      		ldi r20,lo8(4)
 4897 1b1a 50E0      		ldi r21,hi8(4)
 4898 1b1c 0E94 0000 		call strncmp_P
 4899 1b20 892B      		or r24,r25
 4900 1b22 01F4      		brne .L379
 4901               	.LBB454:
 4902               	.LM767:
 4903 1b24 82E0      		ldi r24,lo8(2)
 4904 1b26 B201      		movw r22,r4
 4905 1b28 0E94 0000 		call too_many_arguments_error
 4906 1b2c 8823      		tst r24
 4907 1b2e 01F0      		breq .+2
 4908 1b30 00C0      		rjmp .L407
 4909               	.LM768:
 4910 1b32 81E0      		ldi r24,lo8(1)
 4911 1b34 0E94 0000 		call get_cmd_arg
 4912 1b38 AC01      		movw r20,r24
 4913               	.LVL262:
 4914               	.LM769:
 4915 1b3a 0097      		sbiw r24,0
 4916 1b3c 01F4      		brne .+2
 4917 1b3e 00C0      		rjmp .L407
 4918               	.LVL263:
 4919               	.LM770:
 4920 1b40 6091 0000 		lds r22,dd
 4921 1b44 7091 0000 		lds r23,(dd)+1
 4922 1b48 8091 0000 		lds r24,fs
 4923 1b4c 9091 0000 		lds r25,(fs)+1
 4924               	.LVL264:
 4925 1b50 9301      		movw r18,r6
 4926 1b52 00E0      		ldi r16,lo8(0)
 4927 1b54 0E94 0000 		call find_file_in_dir
 4928               	.LVL265:
 4929 1b58 8823      		tst r24
 4930 1b5a 01F0      		breq .L380
 4931               	.LM771:
 4932 1b5c D301      		movw r26,r6
 4933 1b5e 9596      		adiw r26,37
 4934 1b60 6D91      		ld r22,X+
 4935 1b62 7D91      		ld r23,X+
 4936 1b64 8D91      		ld r24,X+
 4937 1b66 9C91      		ld r25,X
 4938 1b68 9897      		sbiw r26,37+3
 4939               	.L419:
 4940 1b6a 0E94 0000 		call uart_putdw_dec
 4941 1b6e 00C0      		rjmp .L416
 4942               	.L380:
 4943               	.LM772:
 4944 1b70 80E0      		ldi r24,lo8(.LC16)
 4945 1b72 90E0      		ldi r25,hi8(.LC16)
 4946 1b74 0E94 0000 		call uart_puts
 4947 1b78 00C0      		rjmp .L407
 4948               	.LVL266:
 4949               	.L379:
 4950               	.LBE454:
 4951               	.LM773:
 4952 1b7a C801      		movw r24,r16
 4953 1b7c 60E0      		ldi r22,lo8(__c.2315)
 4954 1b7e 70E0      		ldi r23,hi8(__c.2315)
 4955 1b80 42E0      		ldi r20,lo8(2)
 4956 1b82 50E0      		ldi r21,hi8(2)
 4957 1b84 0E94 0000 		call strncmp_P
 4958 1b88 892B      		or r24,r25
 4959 1b8a 01F4      		brne .L381
 4960               	.LBB455:
 4961               	.LM774:
 4962 1b8c 83E0      		ldi r24,lo8(3)
 4963 1b8e B201      		movw r22,r4
 4964 1b90 0E94 0000 		call too_many_arguments_error
 4965 1b94 8823      		tst r24
 4966 1b96 01F0      		breq .+2
 4967 1b98 00C0      		rjmp .L407
 4968               	.LM775:
 4969 1b9a 81E0      		ldi r24,lo8(1)
 4970 1b9c 0E94 0000 		call get_cmd_arg
 4971 1ba0 7C01      		movw r14,r24
 4972               	.LVL267:
 4973               	.LM776:
 4974 1ba2 0097      		sbiw r24,0
 4975 1ba4 01F4      		brne .L409
 4976               	.LVL268:
 4977 1ba6 00C0      		rjmp .L407
 4978               	.LVL269:
 4979               	.L383:
 4980               	.LM777:
 4981 1ba8 8091 0000 		lds r24,fs
 4982 1bac 9091 0000 		lds r25,(fs)+1
 4983 1bb0 B301      		movw r22,r6
 4984 1bb2 0E94 0000 		call fat_delete_file
 4985 1bb6 8823      		tst r24
 4986 1bb8 01F4      		brne .L409
 4987               	.LM778:
 4988 1bba 80E0      		ldi r24,lo8(__c.2318)
 4989 1bbc 90E0      		ldi r25,hi8(__c.2318)
 4990 1bbe 0E94 0000 		call uart_puts_p
 4991               	.LM779:
 4992 1bc2 C201      		movw r24,r4
 4993 1bc4 0E94 0000 		call uart_puts
 4994               	.LM780:
 4995 1bc8 8AE0      		ldi r24,lo8(10)
 4996 1bca 0E94 0000 		call uart_putc
 4997               	.LVL270:
 4998               	.L409:
 4999               	.LM781:
 5000 1bce 6091 0000 		lds r22,dd
 5001 1bd2 7091 0000 		lds r23,(dd)+1
 5002 1bd6 8091 0000 		lds r24,fs
 5003 1bda 9091 0000 		lds r25,(fs)+1
 5004 1bde A701      		movw r20,r14
 5005 1be0 9301      		movw r18,r6
 5006 1be2 01E0      		ldi r16,lo8(1)
 5007 1be4 0E94 0000 		call find_file_in_dir
 5008 1be8 8823      		tst r24
 5009 1bea 01F4      		brne .L383
 5010 1bec 00C0      		rjmp .L407
 5011               	.LVL271:
 5012               	.L381:
 5013               	.LBE455:
 5014               	.LM782:
 5015 1bee C801      		movw r24,r16
 5016 1bf0 60E0      		ldi r22,lo8(__c.2323)
 5017 1bf2 70E0      		ldi r23,hi8(__c.2323)
 5018 1bf4 43E0      		ldi r20,lo8(3)
 5019 1bf6 50E0      		ldi r21,hi8(3)
 5020 1bf8 0E94 0000 		call strncmp_P
 5021 1bfc 892B      		or r24,r25
 5022 1bfe 01F4      		brne .L384
 5023               	.LBB456:
 5024               	.LM783:
 5025 1c00 82E0      		ldi r24,lo8(2)
 5026 1c02 B201      		movw r22,r4
 5027 1c04 0E94 0000 		call too_many_arguments_error
 5028 1c08 8823      		tst r24
 5029 1c0a 01F0      		breq .+2
 5030 1c0c 00C0      		rjmp .L407
 5031               	.LM784:
 5032 1c0e 81E0      		ldi r24,lo8(1)
 5033 1c10 0E94 0000 		call get_cmd_arg
 5034 1c14 BC01      		movw r22,r24
 5035               	.LVL272:
 5036               	.LM785:
 5037 1c16 0097      		sbiw r24,0
 5038 1c18 01F4      		brne .+2
 5039 1c1a 00C0      		rjmp .L407
 5040               	.LVL273:
 5041               	.LM786:
 5042 1c1c 8091 0000 		lds r24,dd
 5043 1c20 9091 0000 		lds r25,(dd)+1
 5044               	.LVL274:
 5045 1c24 A301      		movw r20,r6
 5046 1c26 0E94 0000 		call fat_create_file
 5047               	.LVL275:
 5048 1c2a 8823      		tst r24
 5049 1c2c 01F0      		breq .+2
 5050 1c2e 00C0      		rjmp .L407
 5051               	.LM787:
 5052 1c30 80E0      		ldi r24,lo8(__c.2326)
 5053 1c32 90E0      		ldi r25,hi8(__c.2326)
 5054 1c34 0E94 0000 		call uart_puts_p
 5055               	.LM788:
 5056 1c38 C201      		movw r24,r4
 5057 1c3a 00C0      		rjmp .L414
 5058               	.LVL276:
 5059               	.L384:
 5060               	.LBE456:
 5061               	.LM789:
 5062 1c3c C801      		movw r24,r16
 5063 1c3e 60E0      		ldi r22,lo8(__c.2328)
 5064 1c40 70E0      		ldi r23,hi8(__c.2328)
 5065 1c42 45E0      		ldi r20,lo8(5)
 5066 1c44 50E0      		ldi r21,hi8(5)
 5067 1c46 0E94 0000 		call strncmp_P
 5068 1c4a 892B      		or r24,r25
 5069 1c4c 01F0      		breq .+2
 5070 1c4e 00C0      		rjmp .L385
 5071               	.LBB457:
 5072               	.LM790:
 5073 1c50 81E0      		ldi r24,lo8(1)
 5074 1c52 0E94 0000 		call get_cmd_arg
 5075 1c56 5C01      		movw r10,r24
 5076               	.LVL277:
 5077               	.LM791:
 5078 1c58 0097      		sbiw r24,0
 5079 1c5a 01F4      		brne .+2
 5080 1c5c 00C0      		rjmp .L407
 5081               	.LVL278:
 5082               	.LM792:
 5083 1c5e 82E0      		ldi r24,lo8(2)
 5084               	.LVL279:
 5085 1c60 0E94 0000 		call get_cmd_arg
 5086 1c64 8C01      		movw r16,r24
 5087               	.LVL280:
 5088 1c66 0097      		sbiw r24,0
 5089 1c68 01F0      		breq .L386
 5090               	.LVL281:
 5091               	.LM793:
 5092 1c6a FC01      		movw r30,r24
 5093 1c6c 0190      		ld __tmp_reg__,Z+
 5094 1c6e 0020      		tst __tmp_reg__
 5095 1c70 01F4      		brne .-6
 5096 1c72 3197      		sbiw r30,1
 5097 1c74 E81B      		sub r30,r24
 5098 1c76 20E0      		ldi r18,lo8(0)
 5099 1c78 30E0      		ldi r19,hi8(0)
 5100               	.LVL282:
 5101               	.LBB458:
 5102               	.LBB459:
 5103               	.LBB460:
 5104               	.LM794:
 5105 1c7a 4E2F      		mov r20,r30
 5106 1c7c 50E0      		ldi r21,lo8(0)
 5107 1c7e 00C0      		rjmp .L387
 5108               	.LVL283:
 5109               	.L388:
 5110               	.LM795:
 5111 1c80 F801      		movw r30,r16
 5112 1c82 E20F      		add r30,r18
 5113 1c84 F31F      		adc r31,r19
 5114 1c86 8081      		ld r24,Z
 5115 1c88 90E0      		ldi r25,lo8(0)
 5116 1c8a C097      		sbiw r24,48
 5117 1c8c 0A97      		sbiw r24,10
 5118 1c8e 00F0      		brlo .+2
 5119 1c90 00C0      		rjmp .L407
 5120               	.LM796:
 5121 1c92 2F5F      		subi r18,lo8(-(1))
 5122 1c94 3F4F      		sbci r19,hi8(-(1))
 5123               	.LVL284:
 5124               	.L387:
 5125 1c96 2417      		cp r18,r20
 5126 1c98 3507      		cpc r19,r21
 5127 1c9a 04F0      		brlt .L388
 5128               	.LVL285:
 5129               	.L386:
 5130               	.LBE460:
 5131               	.LBE459:
 5132               	.LBE458:
 5133               	.LM797:
 5134 1c9c 6091 0000 		lds r22,dd
 5135 1ca0 7091 0000 		lds r23,(dd)+1
 5136 1ca4 8091 0000 		lds r24,fs
 5137 1ca8 9091 0000 		lds r25,(fs)+1
 5138               	.LVL286:
 5139 1cac A501      		movw r20,r10
 5140 1cae 0E94 0000 		call open_file_in_dir
 5141               	.LVL287:
 5142 1cb2 7C01      		movw r14,r24
 5143               	.LVL288:
 5144               	.LM798:
 5145 1cb4 0097      		sbiw r24,0
 5146 1cb6 01F0      		breq .L389
 5147               	.LVL289:
 5148 1cb8 20E0      		ldi r18,lo8(0)
 5149 1cba 30E0      		ldi r19,hi8(0)
 5150 1cbc 40E0      		ldi r20,hlo8(0)
 5151 1cbe 50E0      		ldi r21,hhi8(0)
 5152               	.LVL290:
 5153 1cc0 00C0      		rjmp .L390
 5154               	.LVL291:
 5155               	.L389:
 5156               	.LM799:
 5157 1cc2 80E0      		ldi r24,lo8(__c.2332)
 5158 1cc4 90E0      		ldi r25,hi8(__c.2332)
 5159               	.LVL292:
 5160 1cc6 0E94 0000 		call uart_puts_p
 5161               	.LM800:
 5162 1cca C501      		movw r24,r10
 5163 1ccc 00C0      		rjmp .L414
 5164               	.LVL293:
 5165               	.L391:
 5166               	.LBB461:
 5167               	.LBB462:
 5168               	.LM801:
 5169 1cce CA01      		movw r24,r20
 5170 1cd0 B901      		movw r22,r18
 5171 1cd2 2AE0      		ldi r18,lo8(10)
 5172 1cd4 30E0      		ldi r19,hi8(10)
 5173 1cd6 40E0      		ldi r20,hlo8(10)
 5174 1cd8 50E0      		ldi r21,hhi8(10)
 5175               	.LVL294:
 5176 1cda 0E94 0000 		call __mulsi3
 5177 1cde 9B01      		movw r18,r22
 5178 1ce0 AC01      		movw r20,r24
 5179               	.LVL295:
 5180 1ce2 8D2D      		mov r24,r13
 5181 1ce4 90E0      		ldi r25,lo8(0)
 5182 1ce6 C097      		sbiw r24,48
 5183 1ce8 AA27      		clr r26
 5184 1cea 97FD      		sbrc r25,7
 5185 1cec A095      		com r26
 5186 1cee BA2F      		mov r27,r26
 5187 1cf0 280F      		add r18,r24
 5188 1cf2 391F      		adc r19,r25
 5189 1cf4 4A1F      		adc r20,r26
 5190 1cf6 5B1F      		adc r21,r27
 5191 1cf8 0F5F      		subi r16,lo8(-(1))
 5192 1cfa 1F4F      		sbci r17,hi8(-(1))
 5193               	.LVL296:
 5194               	.L390:
 5195               	.LM802:
 5196 1cfc F801      		movw r30,r16
 5197 1cfe D080      		ld r13,Z
 5198 1d00 8D2D      		mov r24,r13
 5199 1d02 8053      		subi r24,lo8(-(-48))
 5200 1d04 8A30      		cpi r24,lo8(10)
 5201 1d06 00F0      		brlo .L391
 5202               	.LBE462:
 5203               	.LBE461:
 5204               	.LM803:
 5205 1d08 2A83      		std Y+2,r18
 5206 1d0a 3B83      		std Y+3,r19
 5207 1d0c 4C83      		std Y+4,r20
 5208 1d0e 5D83      		std Y+5,r21
 5209               	.LVL297:
 5210               	.LM804:
 5211 1d10 C701      		movw r24,r14
 5212 1d12 BE01      		movw r22,r28
 5213 1d14 6E5F      		subi r22,lo8(-(2))
 5214 1d16 7F4F      		sbci r23,hi8(-(2))
 5215 1d18 40E0      		ldi r20,lo8(0)
 5216 1d1a 0E94 0000 		call fat_seek_file
 5217               	.LVL298:
 5218 1d1e 8823      		tst r24
 5219 1d20 01F4      		brne .L401
 5220               	.LM805:
 5221 1d22 80E0      		ldi r24,lo8(__c.2335)
 5222 1d24 90E0      		ldi r25,hi8(__c.2335)
 5223 1d26 0E94 0000 		call uart_puts_p
 5224               	.LM806:
 5225 1d2a C501      		movw r24,r10
 5226 1d2c 0E94 0000 		call uart_puts
 5227               	.LM807:
 5228 1d30 8AE0      		ldi r24,lo8(10)
 5229 1d32 0E94 0000 		call uart_putc
 5230 1d36 00C0      		rjmp .L393
 5231               	.LVL299:
 5232               	.L401:
 5233               	.LM808:
 5234 1d38 8CE3      		ldi r24,lo8(60)
 5235 1d3a 0E94 0000 		call uart_putc
 5236               	.LVL300:
 5237               	.LM809:
 5238 1d3e C201      		movw r24,r4
 5239 1d40 68E1      		ldi r22,lo8(24)
 5240 1d42 0E94 0000 		call read_line
 5241 1d46 182F      		mov r17,r24
 5242               	.LVL301:
 5243               	.LM810:
 5244 1d48 8823      		tst r24
 5245 1d4a 01F0      		breq .L393
 5246               	.LVL302:
 5247               	.LM811:
 5248 1d4c C701      		movw r24,r14
 5249               	.LVL303:
 5250 1d4e B201      		movw r22,r4
 5251 1d50 412F      		mov r20,r17
 5252 1d52 50E0      		ldi r21,lo8(0)
 5253 1d54 0E94 0000 		call fat_write_file
 5254 1d58 212F      		mov r18,r17
 5255 1d5a 30E0      		ldi r19,lo8(0)
 5256               	.LVL304:
 5257 1d5c 8217      		cp r24,r18
 5258 1d5e 9307      		cpc r25,r19
 5259 1d60 01F0      		breq .L401
 5260               	.LVL305:
 5261               	.LM812:
 5262 1d62 80E0      		ldi r24,lo8(__c.2339)
 5263 1d64 90E0      		ldi r25,hi8(__c.2339)
 5264 1d66 0E94 0000 		call uart_puts_p
 5265               	.LVL306:
 5266               	.L393:
 5267               	.LM813:
 5268 1d6a C701      		movw r24,r14
 5269 1d6c 00C0      		rjmp .L415
 5270               	.LVL307:
 5271               	.L385:
 5272               	.LBE457:
 5273               	.LM814:
 5274 1d6e C801      		movw r24,r16
 5275 1d70 60E0      		ldi r22,lo8(__c.2342)
 5276 1d72 70E0      		ldi r23,hi8(__c.2342)
 5277 1d74 46E0      		ldi r20,lo8(6)
 5278 1d76 50E0      		ldi r21,hi8(6)
 5279 1d78 0E94 0000 		call strncmp_P
 5280 1d7c 892B      		or r24,r25
 5281 1d7e 01F4      		brne .L394
 5282               	.LM815:
 5283 1d80 82E0      		ldi r24,lo8(2)
 5284 1d82 B201      		movw r22,r4
 5285 1d84 0E94 0000 		call too_many_arguments_error
 5286 1d88 8823      		tst r24
 5287 1d8a 01F0      		breq .+2
 5288 1d8c 00C0      		rjmp .L407
 5289               	.LM816:
 5290 1d8e 81E0      		ldi r24,lo8(1)
 5291 1d90 0E94 0000 		call get_cmd_arg
 5292               	.LM817:
 5293 1d94 0097      		sbiw r24,0
 5294 1d96 01F4      		brne .+2
 5295 1d98 00C0      		rjmp .L407
 5296               	.LVL308:
 5297               	.LM818:
 5298 1d9a 0E94 0000 		call append_file
 5299               	.LVL309:
 5300 1d9e 00C0      		rjmp .L407
 5301               	.L394:
 5302               	.LM819:
 5303 1da0 C801      		movw r24,r16
 5304 1da2 60E0      		ldi r22,lo8(__c.2344)
 5305 1da4 70E0      		ldi r23,hi8(__c.2344)
 5306 1da6 42E0      		ldi r20,lo8(2)
 5307 1da8 50E0      		ldi r21,hi8(2)
 5308 1daa 0E94 0000 		call strncmp_P
 5309 1dae 892B      		or r24,r25
 5310 1db0 01F4      		brne .L395
 5311               	.LBB463:
 5312               	.LM820:
 5313 1db2 81E0      		ldi r24,lo8(1)
 5314 1db4 0E94 0000 		call get_cmd_arg
 5315 1db8 8C01      		movw r16,r24
 5316               	.LVL310:
 5317               	.LM821:
 5318 1dba 0097      		sbiw r24,0
 5319 1dbc 01F4      		brne .+2
 5320 1dbe 00C0      		rjmp .L407
 5321               	.LVL311:
 5322               	.LM822:
 5323 1dc0 8091 0000 		lds r24,dd
 5324 1dc4 9091 0000 		lds r25,(dd)+1
 5325               	.LVL312:
 5326 1dc8 B801      		movw r22,r16
 5327 1dca A301      		movw r20,r6
 5328 1dcc 0E94 0000 		call fat_create_dir
 5329 1dd0 8823      		tst r24
 5330 1dd2 01F0      		breq .+2
 5331 1dd4 00C0      		rjmp .L407
 5332               	.LM823:
 5333 1dd6 80E0      		ldi r24,lo8(__c.2347)
 5334 1dd8 90E0      		ldi r25,hi8(__c.2347)
 5335 1dda 00C0      		rjmp .L411
 5336               	.L395:
 5337               	.LBE463:
 5338               	.LM824:
 5339 1ddc C801      		movw r24,r16
 5340 1dde 60E0      		ldi r22,lo8(__c.2349)
 5341 1de0 70E0      		ldi r23,hi8(__c.2349)
 5342 1de2 0E94 0000 		call strcmp_P
 5343 1de6 892B      		or r24,r25
 5344 1de8 01F4      		brne .L396
 5345               	.LM825:
 5346 1dea 0E94 0000 		call sd_raw_sync
 5347 1dee 8823      		tst r24
 5348 1df0 01F0      		breq .+2
 5349 1df2 00C0      		rjmp .L407
 5350               	.LM826:
 5351 1df4 80E0      		ldi r24,lo8(__c.2351)
 5352 1df6 90E0      		ldi r25,hi8(__c.2351)
 5353               	.L412:
 5354 1df8 0E94 0000 		call uart_puts_p
 5355 1dfc 00C0      		rjmp .L407
 5356               	.L396:
 5357               	.LM827:
 5358 1dfe 80E0      		ldi r24,lo8(__c.2353)
 5359 1e00 90E0      		ldi r25,hi8(__c.2353)
 5360               	.L411:
 5361 1e02 0E94 0000 		call uart_puts_p
 5362               	.LM828:
 5363 1e06 C801      		movw r24,r16
 5364               	.LVL313:
 5365               	.L414:
 5366 1e08 0E94 0000 		call uart_puts
 5367               	.L416:
 5368               	.LM829:
 5369 1e0c 8AE0      		ldi r24,lo8(10)
 5370 1e0e 0E94 0000 		call uart_putc
 5371 1e12 00C0      		rjmp .L407
 5372               	.LBE417:
 5373               	.LFE13:
 5375               	.global	read_config_file
 5377               	read_config_file:
 5378               	.LFB6:
 5379               	.LM830:
 5380 1e14 4F92      		push r4
 5381 1e16 5F92      		push r5
 5382 1e18 6F92      		push r6
 5383 1e1a 7F92      		push r7
 5384 1e1c 8F92      		push r8
 5385 1e1e 9F92      		push r9
 5386 1e20 AF92      		push r10
 5387 1e22 BF92      		push r11
 5388 1e24 CF92      		push r12
 5389 1e26 DF92      		push r13
 5390 1e28 EF92      		push r14
 5391 1e2a FF92      		push r15
 5392 1e2c 0F93      		push r16
 5393 1e2e 1F93      		push r17
 5394 1e30 DF93      		push r29
 5395 1e32 CF93      		push r28
 5396 1e34 CDB7      		in r28,__SP_L__
 5397 1e36 DEB7      		in r29,__SP_H__
 5398 1e38 C555      		subi r28,lo8(-(-85))
 5399 1e3a D040      		sbci r29,hi8(-(-85))
 5400 1e3c 0FB6      		in __tmp_reg__,__SREG__
 5401 1e3e F894      		cli
 5402 1e40 DEBF      		out __SP_H__,r29
 5403 1e42 0FBE      		out __SREG__,__tmp_reg__
 5404 1e44 CDBF      		out __SP_L__,r28
 5405               	/* prologue: function */
 5406               	/* frame size = 85 */
 5407               	.LM831:
 5408 1e46 58E0      		ldi r21,lo8(8)
 5409 1e48 E52E      		mov r14,r21
 5410 1e4a F12C      		mov r15,__zero_reg__
 5411 1e4c EC0E      		add r14,r28
 5412 1e4e FD1E      		adc r15,r29
 5413 1e50 C701      		movw r24,r14
 5414 1e52 60E0      		ldi r22,lo8(.LC3)
 5415 1e54 70E0      		ldi r23,hi8(.LC3)
 5416 1e56 0E94 0000 		call strcpy
 5417               	.LM832:
 5418 1e5a 6091 0000 		lds r22,dd
 5419 1e5e 7091 0000 		lds r23,(dd)+1
 5420 1e62 8091 0000 		lds r24,fs
 5421 1e66 9091 0000 		lds r25,(fs)+1
 5422 1e6a A701      		movw r20,r14
 5423 1e6c 9E01      		movw r18,r28
 5424 1e6e 2B5D      		subi r18,lo8(-(37))
 5425 1e70 3F4F      		sbci r19,hi8(-(37))
 5426 1e72 00E0      		ldi r16,lo8(0)
 5427 1e74 0E94 0000 		call find_file_in_dir
 5428 1e78 8823      		tst r24
 5429 1e7a 01F4      		brne .+2
 5430 1e7c 00C0      		rjmp .L421
 5431               	.LBB464:
 5432               	.LM833:
 5433 1e7e 6091 0000 		lds r22,dd
 5434 1e82 7091 0000 		lds r23,(dd)+1
 5435 1e86 8091 0000 		lds r24,fs
 5436 1e8a 9091 0000 		lds r25,(fs)+1
 5437 1e8e A701      		movw r20,r14
 5438 1e90 0E94 0000 		call open_file_in_dir
 5439 1e94 7C01      		movw r14,r24
 5440               	.LVL314:
 5441               	.LM834:
 5442 1e96 0097      		sbiw r24,0
 5443 1e98 01F4      		brne .L422
 5444               	.LVL315:
 5445               	.LM835:
 5446 1e9a 80E0      		ldi r24,lo8(__c.2085)
 5447 1e9c 90E0      		ldi r25,hi8(__c.2085)
 5448               	.LVL316:
 5449 1e9e 0E94 0000 		call uart_puts_p
 5450 1ea2 00C0      		rjmp .L447
 5451               	.LVL317:
 5452               	.L422:
 5453               	.LM836:
 5454 1ea4 45E1      		ldi r20,lo8(21)
 5455 1ea6 A42E      		mov r10,r20
 5456 1ea8 B12C      		mov r11,__zero_reg__
 5457 1eaa AC0E      		add r10,r28
 5458 1eac BD1E      		adc r11,r29
 5459 1eae B501      		movw r22,r10
 5460 1eb0 40E1      		ldi r20,lo8(16)
 5461 1eb2 50E0      		ldi r21,hi8(16)
 5462 1eb4 0E94 0000 		call fat_read_file
 5463               	.LVL318:
 5464 1eb8 682E      		mov r6,r24
 5465               	.LVL319:
 5466               	.LM837:
 5467 1eba C701      		movw r24,r14
 5468 1ebc 0E94 0000 		call fat_close_file
 5469 1ec0 11E0      		ldi r17,lo8(1)
 5470               	.LVL320:
 5471 1ec2 9924      		clr r9
 5472               	.LVL321:
 5473 1ec4 3AE1      		ldi r19,lo8(26)
 5474 1ec6 832E      		mov r8,r19
 5475               	.LVL322:
 5476 1ec8 23E0      		ldi r18,lo8(3)
 5477 1eca 722E      		mov r7,r18
 5478               	.LVL323:
 5479 1ecc DD24      		clr r13
 5480               	.LVL324:
 5481 1ece CC24      		clr r12
 5482               	.LVL325:
 5483               	.LM838:
 5484 1ed0 7E01      		movw r14,r28
 5485               	.LVL326:
 5486 1ed2 0894      		sec
 5487 1ed4 E11C      		adc r14,__zero_reg__
 5488 1ed6 F11C      		adc r15,__zero_reg__
 5489               	.LM839:
 5490 1ed8 2501      		movw r4,r10
 5491 1eda 97E0      		ldi r25,lo8(7)
 5492 1edc A92E      		mov r10,r25
 5493 1ede B12C      		mov r11,__zero_reg__
 5494 1ee0 AC0E      		add r10,r28
 5495 1ee2 BD1E      		adc r11,r29
 5496 1ee4 00C0      		rjmp .L424
 5497               	.LVL327:
 5498               	.L426:
 5499               	.LM840:
 5500 1ee6 ED93      		st X+,r30
 5501               	.LM841:
 5502 1ee8 D394      		inc r13
 5503               	.LVL328:
 5504               	.L438:
 5505 1eea 8A2F      		mov r24,r26
 5506 1eec 8E19      		sub r24,r14
 5507               	.LM842:
 5508 1eee F201      		movw r30,r4
 5509 1ef0 ED0D      		add r30,r13
 5510 1ef2 F11D      		adc r31,__zero_reg__
 5511 1ef4 E081      		ld r30,Z
 5512 1ef6 EC32      		cpi r30,lo8(44)
 5513 1ef8 01F0      		breq .L425
 5514 1efa D614      		cp r13,r6
 5515 1efc 00F4      		brsh .L425
 5516 1efe AA15      		cp r26,r10
 5517 1f00 BB05      		cpc r27,r11
 5518 1f02 01F4      		brne .L426
 5519               	.L425:
 5520               	.LM843:
 5521 1f04 F701      		movw r30,r14
 5522 1f06 E80F      		add r30,r24
 5523 1f08 F11D      		adc r31,__zero_reg__
 5524 1f0a 1082      		st Z,__zero_reg__
 5525               	.LM844:
 5526 1f0c CC20      		tst r12
 5527 1f0e 01F4      		brne .L427
 5528               	.LM845:
 5529 1f10 C701      		movw r24,r14
 5530               	.LVL329:
 5531 1f12 60E0      		ldi r22,lo8(.LC6)
 5532 1f14 70E0      		ldi r23,hi8(.LC6)
 5533 1f16 0E94 0000 		call strcmp
 5534 1f1a 0097      		sbiw r24,0
 5535 1f1c 01F4      		brne .L428
 5536 1f1e 10E0      		ldi r17,lo8(0)
 5537 1f20 00C0      		rjmp .L429
 5538               	.L428:
 5539               	.LM846:
 5540 1f22 C701      		movw r24,r14
 5541 1f24 60E0      		ldi r22,lo8(.LC7)
 5542 1f26 70E0      		ldi r23,hi8(.LC7)
 5543 1f28 0E94 0000 		call strcmp
 5544 1f2c 0097      		sbiw r24,0
 5545 1f2e 01F4      		brne .L430
 5546 1f30 14E0      		ldi r17,lo8(4)
 5547 1f32 00C0      		rjmp .L429
 5548               	.L430:
 5549               	.LM847:
 5550 1f34 C701      		movw r24,r14
 5551 1f36 60E0      		ldi r22,lo8(.LC8)
 5552 1f38 70E0      		ldi r23,hi8(.LC8)
 5553 1f3a 0E94 0000 		call strcmp
 5554 1f3e 0097      		sbiw r24,0
 5555 1f40 01F4      		brne .+2
 5556 1f42 00C0      		rjmp .L431
 5557               	.LM848:
 5558 1f44 C701      		movw r24,r14
 5559 1f46 60E0      		ldi r22,lo8(.LC9)
 5560 1f48 70E0      		ldi r23,hi8(.LC9)
 5561 1f4a 0E94 0000 		call strcmp
 5562 1f4e 0097      		sbiw r24,0
 5563 1f50 01F4      		brne .L432
 5564 1f52 15E0      		ldi r17,lo8(5)
 5565 1f54 00C0      		rjmp .L429
 5566               	.L432:
 5567               	.LM849:
 5568 1f56 C701      		movw r24,r14
 5569 1f58 60E0      		ldi r22,lo8(.LC10)
 5570 1f5a 70E0      		ldi r23,hi8(.LC10)
 5571 1f5c 0E94 0000 		call strcmp
 5572 1f60 0097      		sbiw r24,0
 5573 1f62 01F4      		brne .L433
 5574 1f64 16E0      		ldi r17,lo8(6)
 5575 1f66 00C0      		rjmp .L429
 5576               	.L433:
 5577               	.LM850:
 5578 1f68 C701      		movw r24,r14
 5579 1f6a 60E0      		ldi r22,lo8(.LC11)
 5580 1f6c 70E0      		ldi r23,hi8(.LC11)
 5581 1f6e 0E94 0000 		call strcmp
 5582 1f72 0097      		sbiw r24,0
 5583 1f74 01F4      		brne .L434
 5584 1f76 12E0      		ldi r17,lo8(2)
 5585 1f78 00C0      		rjmp .L429
 5586               	.L434:
 5587               	.LM851:
 5588 1f7a C701      		movw r24,r14
 5589 1f7c 60E0      		ldi r22,lo8(.LC12)
 5590 1f7e 70E0      		ldi r23,hi8(.LC12)
 5591 1f80 0E94 0000 		call strcmp
 5592 1f84 0097      		sbiw r24,0
 5593 1f86 01F4      		brne .L431
 5594 1f88 13E0      		ldi r17,lo8(3)
 5595 1f8a 00C0      		rjmp .L429
 5596               	.LVL330:
 5597               	.L427:
 5598               	.LM852:
 5599 1f8c 81E0      		ldi r24,lo8(1)
 5600               	.LVL331:
 5601 1f8e C816      		cp r12,r24
 5602 1f90 01F4      		brne .L435
 5603               	.LM853:
 5604 1f92 C701      		movw r24,r14
 5605 1f94 0E94 0000 		call atoi
 5606 1f98 882E      		mov r8,r24
 5607               	.LM854:
 5608 1f9a 1816      		cp __zero_reg__,r24
 5609 1f9c 04F0      		brlt .L429
 5610               	.LVL332:
 5611 1f9e 8AE1      		ldi r24,lo8(26)
 5612 1fa0 882E      		mov r8,r24
 5613               	.LVL333:
 5614 1fa2 00C0      		rjmp .L429
 5615               	.L435:
 5616               	.LM855:
 5617 1fa4 82E0      		ldi r24,lo8(2)
 5618 1fa6 C816      		cp r12,r24
 5619 1fa8 01F4      		brne .L436
 5620               	.LM856:
 5621 1faa C701      		movw r24,r14
 5622 1fac 0E94 0000 		call atoi
 5623 1fb0 782E      		mov r7,r24
 5624               	.LM857:
 5625 1fb2 8150      		subi r24,lo8(-(-1))
 5626 1fb4 8A30      		cpi r24,lo8(10)
 5627 1fb6 00F0      		brlo .L429
 5628 1fb8 03E0      		ldi r16,lo8(3)
 5629 1fba 702E      		mov r7,r16
 5630 1fbc 00C0      		rjmp .L429
 5631               	.L436:
 5632               	.LM858:
 5633 1fbe 83E0      		ldi r24,lo8(3)
 5634 1fc0 C816      		cp r12,r24
 5635 1fc2 01F4      		brne .L437
 5636               	.LM859:
 5637 1fc4 C701      		movw r24,r14
 5638 1fc6 0E94 0000 		call atoi
 5639 1fca 982E      		mov r9,r24
 5640               	.LM860:
 5641 1fcc 8150      		subi r24,lo8(-(-1))
 5642 1fce 8530      		cpi r24,lo8(5)
 5643 1fd0 00F0      		brlo .L429
 5644 1fd2 9924      		clr r9
 5645 1fd4 00C0      		rjmp .L429
 5646               	.L431:
 5647 1fd6 11E0      		ldi r17,lo8(1)
 5648               	.LVL334:
 5649               	.L429:
 5650               	.LM861:
 5651 1fd8 C394      		inc r12
 5652               	.LM862:
 5653 1fda D394      		inc r13
 5654               	.L424:
 5655 1fdc D614      		cp r13,r6
 5656 1fde 00F4      		brsh .L437
 5657 1fe0 D701      		movw r26,r14
 5658 1fe2 00C0      		rjmp .L438
 5659               	.L437:
 5660               	.LM863:
 5661 1fe4 8091 0000 		lds r24,setting_uart_speed
 5662 1fe8 1817      		cp r17,r24
 5663 1fea 01F0      		breq .L439
 5664               	.L448:
 5665               	.LBB465:
 5666               	.LBB466:
 5667               	.LM864:
 5668 1fec F999      		sbic 63-32,1
 5669 1fee 00C0      		rjmp .L448
 5670               	.LM865:
 5671 1ff0 12BC      		out 66-32,__zero_reg__
 5672               	.LM866:
 5673 1ff2 81E0      		ldi r24,lo8(1)
 5674 1ff4 81BD      		out 65-32,r24
 5675               	.LM867:
 5676 1ff6 10BD      		out 64-32,r17
 5677               	.LM868:
 5678 1ff8 FA9A      		sbi 63-32,2
 5679               	.LM869:
 5680 1ffa F99A      		sbi 63-32,1
 5681               	.LBE466:
 5682               	.LBE465:
 5683               	.LM870:
 5684 1ffc 1093 0000 		sts setting_uart_speed,r17
 5685               	.LM871:
 5686 2000 812F      		mov r24,r17
 5687 2002 0E94 0000 		call uart_init
 5688               	.L439:
 5689               	.LM872:
 5690 2006 8091 0000 		lds r24,setting_system_mode
 5691 200a 9816      		cp r9,r24
 5692 200c 01F0      		breq .L441
 5693               	.LM873:
 5694 200e 9092 0000 		sts setting_system_mode,r9
 5695               	.L442:
 5696               	.LBB467:
 5697               	.LBB468:
 5698               	.LM874:
 5699 2012 F999      		sbic 63-32,1
 5700 2014 00C0      		rjmp .L442
 5701               	.LM875:
 5702 2016 12BC      		out 66-32,__zero_reg__
 5703               	.LM876:
 5704 2018 82E0      		ldi r24,lo8(2)
 5705 201a 81BD      		out 65-32,r24
 5706               	.LM877:
 5707 201c 90BC      		out 64-32,r9
 5708               	.LM878:
 5709 201e FA9A      		sbi 63-32,2
 5710               	.LM879:
 5711 2020 F99A      		sbi 63-32,1
 5712               	.L441:
 5713               	.LBE468:
 5714               	.LBE467:
 5715               	.LM880:
 5716 2022 8091 0000 		lds r24,setting_escape_character
 5717 2026 8816      		cp r8,r24
 5718 2028 01F0      		breq .L443
 5719               	.LM881:
 5720 202a 8092 0000 		sts setting_escape_character,r8
 5721               	.L444:
 5722               	.LBB469:
 5723               	.LBB470:
 5724               	.LM882:
 5725 202e F999      		sbic 63-32,1
 5726 2030 00C0      		rjmp .L444
 5727               	.LM883:
 5728 2032 12BC      		out 66-32,__zero_reg__
 5729               	.LM884:
 5730 2034 85E0      		ldi r24,lo8(5)
 5731 2036 81BD      		out 65-32,r24
 5732               	.LM885:
 5733 2038 80BC      		out 64-32,r8
 5734               	.LM886:
 5735 203a FA9A      		sbi 63-32,2
 5736               	.LM887:
 5737 203c F99A      		sbi 63-32,1
 5738               	.L443:
 5739               	.LBE470:
 5740               	.LBE469:
 5741               	.LM888:
 5742 203e 8091 0000 		lds r24,setting_max_escape_character
 5743 2042 7816      		cp r7,r24
 5744 2044 01F0      		breq .L421
 5745               	.LM889:
 5746 2046 7092 0000 		sts setting_max_escape_character,r7
 5747               	.L446:
 5748               	.LBB471:
 5749               	.LBB472:
 5750               	.LM890:
 5751 204a F999      		sbic 63-32,1
 5752 204c 00C0      		rjmp .L446
 5753               	.LM891:
 5754 204e 12BC      		out 66-32,__zero_reg__
 5755               	.LM892:
 5756 2050 86E0      		ldi r24,lo8(6)
 5757 2052 81BD      		out 65-32,r24
 5758               	.LM893:
 5759 2054 70BC      		out 64-32,r7
 5760               	.LM894:
 5761 2056 FA9A      		sbi 63-32,2
 5762               	.LM895:
 5763 2058 F99A      		sbi 63-32,1
 5764               	.L421:
 5765               	.LBE472:
 5766               	.LBE471:
 5767               	.LBE464:
 5768               	.LM896:
 5769 205a 0E94 0000 		call record_config_file
 5770               	.LVL335:
 5771               	.L447:
 5772               	/* epilogue start */
 5773               	.LM897:
 5774 205e CB5A      		subi r28,lo8(-(85))
 5775 2060 DF4F      		sbci r29,hi8(-(85))
 5776 2062 0FB6      		in __tmp_reg__,__SREG__
 5777 2064 F894      		cli
 5778 2066 DEBF      		out __SP_H__,r29
 5779 2068 0FBE      		out __SREG__,__tmp_reg__
 5780 206a CDBF      		out __SP_L__,r28
 5781 206c CF91      		pop r28
 5782 206e DF91      		pop r29
 5783 2070 1F91      		pop r17
 5784               	.LVL336:
 5785 2072 0F91      		pop r16
 5786 2074 FF90      		pop r15
 5787 2076 EF90      		pop r14
 5788               	.LVL337:
 5789 2078 DF90      		pop r13
 5790               	.LVL338:
 5791 207a CF90      		pop r12
 5792               	.LVL339:
 5793 207c BF90      		pop r11
 5794 207e AF90      		pop r10
 5795 2080 9F90      		pop r9
 5796               	.LVL340:
 5797 2082 8F90      		pop r8
 5798               	.LVL341:
 5799 2084 7F90      		pop r7
 5800               	.LVL342:
 5801 2086 6F90      		pop r6
 5802               	.LVL343:
 5803 2088 5F90      		pop r5
 5804 208a 4F90      		pop r4
 5805 208c 0895      		ret
 5806               	.LFE6:
 5808               	.global	ioinit
 5810               	ioinit:
 5811               	.LFB5:
 5812               	.LM898:
 5813 208e 0F93      		push r16
 5814 2090 1F93      		push r17
 5815               	/* prologue: function */
 5816               	/* frame size = 0 */
 5817               	.LM899:
 5818 2092 82E0      		ldi r24,lo8(2)
 5819 2094 85BD      		out 69-32,r24
 5820               	.LM900:
 5821 2096 8091 6400 		lds r24,100
 5822 209a 896C      		ori r24,lo8(-55)
 5823 209c 8093 6400 		sts 100,r24
 5824               	.LM901:
 5825 20a0 83B7      		in r24,83-32
 5826 20a2 817F      		andi r24,lo8(-15)
 5827 20a4 83BF      		out 83-32,r24
 5828               	.LM902:
 5829 20a6 83B7      		in r24,83-32
 5830 20a8 8160      		ori r24,lo8(1)
 5831 20aa 83BF      		out 83-32,r24
 5832               	.LM903:
 5833 20ac 209A      		sbi 36-32,0
 5834               	.LM904:
 5835 20ae 219A      		sbi 36-32,1
 5836               	.LM905:
 5837 20b0 0E94 0000 		call check_emergency_reset
 5838 20b4 8823      		tst r24
 5839 20b6 01F0      		breq .L454
 5840               	.LM906:
 5841 20b8 0E94 0000 		call set_default_settings
 5842               	.LM907:
 5843 20bc 0E94 0000 		call init_media
 5844               	.LM908:
 5845 20c0 0E94 0000 		call record_config_file
 5846               	.LM909:
 5847 20c4 289A      		sbi 37-32,0
 5848               	.LM910:
 5849 20c6 299A      		sbi 37-32,1
 5850               	.LM911:
 5851 20c8 01E0      		ldi r16,lo8(1)
 5852               	.LM912:
 5853 20ca 12E0      		ldi r17,lo8(2)
 5854               	.L455:
 5855               	.LM913:
 5856 20cc 84EF      		ldi r24,lo8(500)
 5857 20ce 91E0      		ldi r25,hi8(500)
 5858 20d0 0E94 0000 		call delay_ms
 5859               	.LM914:
 5860 20d4 85B1      		in r24,37-32
 5861 20d6 8027      		eor r24,r16
 5862 20d8 85B9      		out 37-32,r24
 5863               	.LM915:
 5864 20da 85B1      		in r24,37-32
 5865 20dc 8127      		eor r24,r17
 5866 20de 85B9      		out 37-32,r24
 5867 20e0 00C0      		rjmp .L455
 5868               	.L454:
 5869               	.LM916:
 5870 20e2 0E94 0000 		call read_system_settings
 5871               	.LM917:
 5872 20e6 8091 0000 		lds r24,setting_uart_speed
 5873 20ea 0E94 0000 		call uart_init
 5874               	.LM918:
 5875 20ee 80E0      		ldi r24,lo8(__c.2050)
 5876 20f0 90E0      		ldi r25,hi8(__c.2050)
 5877 20f2 0E94 0000 		call uart_puts_p
 5878               	.LM919:
 5879 20f6 0E94 0000 		call init_media
 5880               	.LM920:
 5881 20fa 80E0      		ldi r24,lo8(__c.2052)
 5882 20fc 90E0      		ldi r25,hi8(__c.2052)
 5883 20fe 0E94 0000 		call uart_puts_p
 5884               	.LM921:
 5885 2102 0E94 0000 		call read_config_file
 5886               	/* epilogue start */
 5887               	.LM922:
 5888 2106 1F91      		pop r17
 5889 2108 0F91      		pop r16
 5890 210a 0895      		ret
 5891               	.LFE5:
 5893               	.global	main
 5895               	main:
 5896               	.LFB4:
 5897               	.LM923:
 5898               	/* prologue: function */
 5899               	/* frame size = 0 */
 5900               	.LM924:
 5901 210c 0E94 0000 		call ioinit
 5902               	.LM925:
 5903 2110 8091 0000 		lds r24,setting_system_mode
 5904 2114 8823      		tst r24
 5905 2116 01F4      		brne .L458
 5906               	.LM926:
 5907 2118 0E94 0000 		call newlog
 5908               	.L458:
 5909               	.LM927:
 5910 211c 8091 0000 		lds r24,setting_system_mode
 5911 2120 8130      		cpi r24,lo8(1)
 5912 2122 01F4      		brne .L459
 5913               	.LM928:
 5914 2124 0E94 0000 		call seqlog
 5915               	.L459:
 5916               	.LM929:
 5917 2128 0E94 0000 		call command_shell
 5918               	.LM930:
 5919 212c 80E0      		ldi r24,lo8(0)
 5920 212e 90E0      		ldi r25,hi8(0)
 5921               	/* epilogue start */
 5922 2130 0895      		ret
 5923               	.LFE4:
 5925               		.section	.progmem.data,"a",@progbits
 5928               	__c.3069:
 5929 0000 293A 2000 		.string	"): "
 5932               	__c.3067:
 5933 0004 746F 6F20 		.string	"too many arguments("
 5933      6D61 6E79 
 5933      2061 7267 
 5933      756D 656E 
 5933      7473 2800 
 5936               	__c.2994:
 5937 0018 4578 6974 		.string	"Exiting\n"
 5937      696E 670A 
 5937      00
 5940               	__c.2992:
 5941 0021 7800      		.string	"x"
 5944               	__c.2990:
 5945 0023 0A00      		.string	"\n"
 5948               	__c.2988:
 5949 0025 0A4E 756D 		.string	"\nNumber of escape characters needed: "
 5949      6265 7220 
 5949      6F66 2065 
 5949      7363 6170 
 5949      6520 6368 
 5952               	__c.2983:
 5953 004b 456E 7465 		.string	"Enter number of escape characters to look for: "
 5953      7220 6E75 
 5953      6D62 6572 
 5953      206F 6620 
 5953      6573 6361 
 5956               	__c.2980:
 5957 007b 3600      		.string	"6"
 5960               	__c.2978:
 5961 007d 0A00      		.string	"\n"
 5964               	__c.2976:
 5965 007f 0A4E 6577 		.string	"\nNew escape character: "
 5965      2065 7363 
 5965      6170 6520 
 5965      6368 6172 
 5965      6163 7465 
 5968               	__c.2974:
 5969 0097 456E 7465 		.string	"Enter a new escape character: "
 5969      7220 6120 
 5969      6E65 7720 
 5969      6573 6361 
 5969      7065 2063 
 5972               	__c.2972:
 5973 00b6 3500      		.string	"5"
 5976               	__c.2970:
 5977 00b8 4E65 7720 		.string	"New file number reset to zero\n"
 5977      6669 6C65 
 5977      206E 756D 
 5977      6265 7220 
 5977      7265 7365 
 5980               	__c.2968:
 5981 00d7 3400      		.string	"4"
 5984               	__c.2966:
 5985 00d9 436F 6D6D 		.string	"Command prompt\n"
 5985      616E 6420 
 5985      7072 6F6D 
 5985      7074 0A00 
 5988               	__c.2964:
 5989 00e9 3300      		.string	"3"
 5992               	__c.2962:
 5993 00eb 4170 7065 		.string	"Append file logging\n"
 5993      6E64 2066 
 5993      696C 6520 
 5993      6C6F 6767 
 5993      696E 670A 
 5996               	__c.2960:
 5997 0100 3200      		.string	"2"
 6000               	__c.2958:
 6001 0102 4E65 7720 		.string	"New file logging\n"
 6001      6669 6C65 
 6001      206C 6F67 
 6001      6769 6E67 
 6001      0A00 
 6004               	__c.2956:
 6005 0114 3100      		.string	"1"
 6008               	__c.2952:
 6009 0116 7829 2045 		.string	"x) Exit\n"
 6009      7869 740A 
 6009      00
 6012               	__c.2950:
 6013 011f 3629 204E 		.string	"6) Number of escape characters\n"
 6013      756D 6265 
 6013      7220 6F66 
 6013      2065 7363 
 6013      6170 6520 
 6016               	__c.2948:
 6017 013f 3529 204E 		.string	"5) New escape character\n"
 6017      6577 2065 
 6017      7363 6170 
 6017      6520 6368 
 6017      6172 6163 
 6020               	__c.2946:
 6021 0158 3429 2052 		.string	"4) Reset new file number\n"
 6021      6573 6574 
 6021      206E 6577 
 6021      2066 696C 
 6021      6520 6E75 
 6024               	__c.2944:
 6025 0172 3329 2043 		.string	"3) Command prompt\n"
 6025      6F6D 6D61 
 6025      6E64 2070 
 6025      726F 6D70 
 6025      740A 00
 6028               	__c.2942:
 6029 0185 3229 2041 		.string	"2) Append file logging\n"
 6029      7070 656E 
 6029      6420 6669 
 6029      6C65 206C 
 6029      6F67 6769 
 6032               	__c.2940:
 6033 019d 3129 204E 		.string	"1) New file logging\n"
 6033      6577 2066 
 6033      696C 6520 
 6033      6C6F 6767 
 6033      696E 670A 
 6036               	__c.2938:
 6037 01b2 4368 616E 		.string	"Change to:\n"
 6037      6765 2074 
 6037      6F3A 0A00 
 6040               	__c.2936:
 6041 01be 0A00      		.string	"\n"
 6044               	__c.2934:
 6045 01c0 2078 2000 		.string	" x "
 6048               	__c.2932:
 6049 01c4 4375 7272 		.string	"Current escape character and amount: "
 6049      656E 7420 
 6049      6573 6361 
 6049      7065 2063 
 6049      6861 7261 
 6052               	__c.2930:
 6053 01ea 0A00      		.string	"\n"
 6056               	__c.2928:
 6057 01ec 436F 6D6D 		.string	"Command"
 6057      616E 6400 
 6060               	__c.2926:
 6061 01f4 4170 7065 		.string	"Append file"
 6061      6E64 2066 
 6061      696C 6500 
 6064               	__c.2924:
 6065 0200 4E65 7720 		.string	"New file"
 6065      6669 6C65 
 6065      00
 6068               	__c.2922:
 6069 0209 4375 7272 		.string	"Current boot mode: "
 6069      656E 7420 
 6069      626F 6F74 
 6069      206D 6F64 
 6069      653A 2000 
 6072               	__c.2920:
 6073 021d 0A53 7973 		.string	"\nSystem Configuration\n"
 6073      7465 6D20 
 6073      436F 6E66 
 6073      6967 7572 
 6073      6174 696F 
 6076               	__c.2902:
 6077 0234 0A45 7869 		.string	"\nExiting\n"
 6077      7469 6E67 
 6077      0A00 
 6080               	__c.2900:
 6081 023e 7800      		.string	"x"
 6084               	__c.2898:
 6085 0240 0A47 6F69 		.string	"\nGoing to 115200bps...\n"
 6085      6E67 2074 
 6085      6F20 3131 
 6085      3532 3030 
 6085      6270 732E 
 6088               	__c.2896:
 6089 0258 3700      		.string	"7"
 6092               	__c.2894:
 6093 025a 0A47 6F69 		.string	"\nGoing to 57600bps...\n"
 6093      6E67 2074 
 6093      6F20 3537 
 6093      3630 3062 
 6093      7073 2E2E 
 6096               	__c.2892:
 6097 0271 3600      		.string	"6"
 6100               	__c.2890:
 6101 0273 0A47 6F69 		.string	"\nGoing to 38400bps...\n"
 6101      6E67 2074 
 6101      6F20 3338 
 6101      3430 3062 
 6101      7073 2E2E 
 6104               	__c.2888:
 6105 028a 3500      		.string	"5"
 6108               	__c.2886:
 6109 028c 0A47 6F69 		.string	"\nGoing to 19200bps...\n"
 6109      6E67 2074 
 6109      6F20 3139 
 6109      3230 3062 
 6109      7073 2E2E 
 6112               	__c.2884:
 6113 02a3 3400      		.string	"4"
 6116               	__c.2882:
 6117 02a5 0A47 6F69 		.string	"\nGoing to 9600bps...\n"
 6117      6E67 2074 
 6117      6F20 3936 
 6117      3030 6270 
 6117      732E 2E2E 
 6120               	__c.2880:
 6121 02bb 3300      		.string	"3"
 6124               	__c.2878:
 6125 02bd 0A47 6F69 		.string	"\nGoing to 4800bps...\n"
 6125      6E67 2074 
 6125      6F20 3438 
 6125      3030 6270 
 6125      732E 2E2E 
 6128               	__c.2876:
 6129 02d3 3200      		.string	"2"
 6132               	__c.2874:
 6133 02d5 0A47 6F69 		.string	"\nGoing to 2400bps...\n"
 6133      6E67 2074 
 6133      6F20 3234 
 6133      3030 6270 
 6133      732E 2E2E 
 6136               	__c.2872:
 6137 02eb 3100      		.string	"1"
 6140               	__c.2868:
 6141 02ed 7829 2045 		.string	"x) Exit\n"
 6141      7869 740A 
 6141      00
 6144               	__c.2866:
 6145 02f6 3729 2031 		.string	"7) 115200 bps\n"
 6145      3135 3230 
 6145      3020 6270 
 6145      730A 00
 6148               	__c.2864:
 6149 0305 3629 2035 		.string	"6) 57600 bps\n"
 6149      3736 3030 
 6149      2062 7073 
 6149      0A00 
 6152               	__c.2862:
 6153 0313 3529 2033 		.string	"5) 38400 bps\n"
 6153      3834 3030 
 6153      2062 7073 
 6153      0A00 
 6156               	__c.2860:
 6157 0321 3429 2031 		.string	"4) 19200 bps\n"
 6157      3932 3030 
 6157      2062 7073 
 6157      0A00 
 6160               	__c.2858:
 6161 032f 3329 2039 		.string	"3) 9600 bps\n"
 6161      3630 3020 
 6161      6270 730A 
 6161      00
 6164               	__c.2856:
 6165 033c 3229 2034 		.string	"2) 4800 bps\n"
 6165      3830 3020 
 6165      6270 730A 
 6165      00
 6168               	__c.2854:
 6169 0349 3129 2032 		.string	"1) 2400 bps\n"
 6169      3430 3020 
 6169      6270 730A 
 6169      00
 6172               	__c.2852:
 6173 0356 4368 616E 		.string	"Change to:\n"
 6173      6765 2074 
 6173      6F3A 0A00 
 6176               	__c.2850:
 6177 0362 3030 2062 		.string	"00 bps\n"
 6177      7073 0A00 
 6180               	__c.2848:
 6181 036a 3131 3532 		.string	"1152"
 6181      00
 6184               	__c.2846:
 6185 036f 3537 3600 		.string	"576"
 6188               	__c.2844:
 6189 0373 3338 3400 		.string	"384"
 6192               	__c.2842:
 6193 0377 3139 3200 		.string	"192"
 6196               	__c.2840:
 6197 037b 3936 00   		.string	"96"
 6200               	__c.2838:
 6201 037e 3234 00   		.string	"24"
 6204               	__c.2836:
 6205 0381 3438 00   		.string	"48"
 6208               	__c.2834:
 6209 0384 4375 7272 		.string	"Current: "
 6209      656E 743A 
 6209      2000 
 6212               	__c.2832:
 6213 038e 0A42 6175 		.string	"\nBaud Configuration:\n"
 6213      6420 436F 
 6213      6E66 6967 
 6213      7572 6174 
 6213      696F 6E3A 
 6216               	__c.2825:
 6217 03a4 6261 7564 		.string	"baud\t\t\t: Menu to configure baud rate\n"
 6217      0909 093A 
 6217      204D 656E 
 6217      7520 746F 
 6217      2063 6F6E 
 6220               	__c.2823:
 6221 03ca 7365 7409 		.string	"set\t\t\t: Menu to configure system boot mode\n"
 6221      0909 3A20 
 6221      4D65 6E75 
 6221      2074 6F20 
 6221      636F 6E66 
 6224               	__c.2821:
 6225 03f6 0A4D 656E 		.string	"\nMenus:\n"
 6225      7573 3A0A 
 6225      00
 6228               	__c.2819:
 6229 03ff 7379 6E63 		.string	"sync\t\t\t: Ensures all buffered data is written to the card\n"
 6229      0909 093A 
 6229      2045 6E73 
 6229      7572 6573 
 6229      2061 6C6C 
 6232               	__c.2817:
 6233 043a 696E 6974 		.string	"init\t\t\t: Reinitializes and reopens the memory card\n"
 6233      0909 093A 
 6233      2052 6569 
 6233      6E69 7469 
 6233      616C 697A 
 6236               	__c.2815:
 6237 046e 6469 736B 		.ascii	"disk\t\t\t: Shows card m"
 6237      0909 093A 
 6237      2053 686F 
 6237      7773 2063 
 6237      6172 6420 
 6238 0483 616E 7566 		.string	"anufacturer, status, filesystem capacity and free storage space\n"
 6238      6163 7475 
 6238      7265 722C 
 6238      2073 7461 
 6238      7475 732C 
 6241               	__c.2813:
 6242 04c4 7369 7A65 		.string	"size <file>\t\t: Write size of file to terminal\n"
 6242      203C 6669 
 6242      6C65 3E09 
 6242      093A 2057 
 6242      7269 7465 
 6245               	__c.2811:
 6246 04f3 7265 6164 		.ascii	"read <file> <start> <length>\t\t: Writes ASCII <length> part"
 6246      203C 6669 
 6246      6C65 3E20 
 6246      3C73 7461 
 6246      7274 3E20 
 6247 052d 7320 6F66 		.ascii	"s of <file> to the terminal sta"
 6247      203C 6669 
 6247      6C65 3E20 
 6247      746F 2074 
 6247      6865 2074 
 6248 054c 7274 696E 		.string	"rting at <start>. Ommit <start> and <length> to read whole file\n"
 6248      6720 6174 
 6248      203C 7374 
 6248      6172 743E 
 6248      2E20 4F6D 
 6251               	__c.2809:
 6252 058d 6361 7420 		.string	"cat <file>\t\t: Writes a hexdump of <file> to the terminal\n"
 6252      3C66 696C 
 6252      653E 0909 
 6252      3A20 5772 
 6252      6974 6573 
 6255               	__c.2807:
 6256 05c7 6C73 0909 		.ascii	"ls\t\t\t: Shows the content of the current directory. Use "
 6256      093A 2053 
 6256      686F 7773 
 6256      2074 6865 
 6256      2063 6F6E 
 6257 05fe 7769 6C64 		.string	"wildcard to do a wildcard listing of files in current directory\n"
 6257      6361 7264 
 6257      2074 6F20 
 6257      646F 2061 
 6257      2077 696C 
 6260               	__c.2805:
 6261 063f 6364 202E 		.string	"cd ..\t\t: Changes to lower directory in tree\n"
 6261      2E09 093A 
 6261      2043 6861 
 6261      6E67 6573 
 6261      2074 6F20 
 6264               	__c.2803:
 6265 066c 6364 20   		.ascii	"cd "
 6266 066f 3C64 6972 		.string	"<directory>\t\t: Changes current working directory to <directory>\n"
 6266      6563 746F 
 6266      7279 3E09 
 6266      093A 2043 
 6266      6861 6E67 
 6269               	__c.2801:
 6270 06b0 6D64 203C 		.string	"md <directory>\t: Creates a directory called <directory>\n"
 6270      6469 7265 
 6270      6374 6F72 
 6270      793E 093A 
 6270      2043 7265 
 6273               	__c.2799:
 6274 06e9 726D 203C 		.ascii	"rm <file>\t\t:"
 6274      6669 6C65 
 6274      3E09 093A 
 6275 06f5 2044 656C 		.string	" Deletes <file>. Use wildcard to do a wildcard removal of files\n"
 6275      6574 6573 
 6275      203C 6669 
 6275      6C65 3E2E 
 6275      2055 7365 
 6278               	__c.2797:
 6279 0736 7772 6974 		.ascii	"write <file> <offset>\t: Writes text to <file>, starting fro"
 6279      6520 3C66 
 6279      696C 653E 
 6279      203C 6F66 
 6279      6673 6574 
 6280 0771 6D20 3C6F 		.ascii	"m <offset>. The text"
 6280      6666 7365 
 6280      743E 2E20 
 6280      5468 6520 
 6280      7465 7874 
 6281 0785 2069 7320 		.string	" is read from the UART, line by line. Finish with an empty line\n"
 6281      7265 6164 
 6281      2066 726F 
 6281      6D20 7468 
 6281      6520 5541 
 6284               	__c.2795:
 6285 07c6 6170 7065 		.ascii	"append <file>\t\t: Appends text to end of <file>. The text i"
 6285      6E64 203C 
 6285      6669 6C65 
 6285      3E09 093A 
 6285      2041 7070 
 6286 0800 7320 7265 		.ascii	"s read from the UART in "
 6286      6164 2066 
 6286      726F 6D20 
 6286      7468 6520 
 6286      5541 5254 
 6287 0818 6120 7374 		.string	"a stream and is not echoed. Finish by sending Ctrl+z (ASCII 26)\n"
 6287      7265 616D 
 6287      2061 6E64 
 6287      2069 7320 
 6287      6E6F 7420 
 6290               	__c.2793:
 6291 0859 6E65 7720 		.string	"new <file>\t\t: Creates <file>\n"
 6291      3C66 696C 
 6291      653E 0909 
 6291      3A20 4372 
 6291      6561 7465 
 6294               	__c.2791:
 6295 0877 4176 6169 		.string	"Available commands:\n"
 6295      6C61 626C 
 6295      6520 636F 
 6295      6D6D 616E 
 6295      6473 3A0A 
 6298               	__c.2789:
 6299 088c 0A4F 7065 		.string	"\nOpenLog v1.61\n"
 6299      6E4C 6F67 
 6299      2076 312E 
 6299      3631 0A00 
 6302               	__c.2488:
 6303 089c 7E00      		.string	"~"
 6306               	__c.2486:
 6307 089e 6572 726F 		.string	"error writing to file\n"
 6307      7220 7772 
 6307      6974 696E 
 6307      6720 746F 
 6307      2066 696C 
 6310               	__c.2484:
 6311 08b5 6572 726F 		.string	"error writing to file\n"
 6311      7220 7772 
 6311      6974 696E 
 6311      6720 746F 
 6311      2066 696C 
 6314               	__c.2481:
 6315 08cc 6572 726F 		.string	"error writing to file\n"
 6315      7220 7772 
 6315      6974 696E 
 6315      6720 746F 
 6315      2066 696C 
 6318               	__c.2479:
 6319 08e3 6572 726F 		.string	"error writing to file\n"
 6319      7220 7772 
 6319      6974 696E 
 6319      6720 746F 
 6319      2066 696C 
 6322               	__c.2465:
 6323 08fa 6572 726F 		.string	"error writing to file\n"
 6323      7220 7772 
 6323      6974 696E 
 6323      6720 746F 
 6323      2066 696C 
 6326               	__c.2463:
 6327 0911 6572 726F 		.string	"error writing to file\n"
 6327      7220 7772 
 6327      6974 696E 
 6327      6720 746F 
 6327      2066 696C 
 6330               	__c.2455:
 6331 0928 2165 7272 		.string	"!error seeking on "
 6331      6F72 2073 
 6331      6565 6B69 
 6331      6E67 206F 
 6331      6E20 00
 6334               	__c.2452:
 6335 093b 2165 7272 		.string	"!error opening "
 6335      6F72 206F 
 6335      7065 6E69 
 6335      6E67 2000 
 6338               	__c.2353:
 6339 094b 756E 6B6E 		.string	"unknown command: "
 6339      6F77 6E20 
 6339      636F 6D6D 
 6339      616E 643A 
 6339      2000 
 6342               	__c.2351:
 6343 095d 6572 726F 		.string	"error syncing disk\n"
 6343      7220 7379 
 6343      6E63 696E 
 6343      6720 6469 
 6343      736B 0A00 
 6346               	__c.2349:
 6347 0971 7379 6E63 		.string	"sync"
 6347      00
 6350               	__c.2347:
 6351 0976 6572 726F 		.string	"error creating directory: "
 6351      7220 6372 
 6351      6561 7469 
 6351      6E67 2064 
 6351      6972 6563 
 6354               	__c.2344:
 6355 0991 6D64 00   		.string	"md"
 6358               	__c.2342:
 6359 0994 6170 7065 		.string	"append"
 6359      6E64 00
 6362               	__c.2339:
 6363 099b 6572 726F 		.string	"error writing to file\n"
 6363      7220 7772 
 6363      6974 696E 
 6363      6720 746F 
 6363      2066 696C 
 6366               	__c.2335:
 6367 09b2 6572 726F 		.string	"error seeking on "
 6367      7220 7365 
 6367      656B 696E 
 6367      6720 6F6E 
 6367      2000 
 6370               	__c.2332:
 6371 09c4 6572 726F 		.string	"error opening "
 6371      7220 6F70 
 6371      656E 696E 
 6371      6720 00
 6374               	__c.2328:
 6375 09d3 7772 6974 		.string	"write"
 6375      6500 
 6378               	__c.2326:
 6379 09d9 6572 726F 		.string	"error creating file: "
 6379      7220 6372 
 6379      6561 7469 
 6379      6E67 2066 
 6379      696C 653A 
 6382               	__c.2323:
 6383 09ef 6E65 7700 		.string	"new"
 6386               	__c.2318:
 6387 09f3 6572 726F 		.string	"error deleting file: "
 6387      7220 6465 
 6387      6C65 7469 
 6387      6E67 2066 
 6387      696C 653A 
 6390               	__c.2315:
 6391 0a09 726D 00   		.string	"rm"
 6394               	__c.2312:
 6395 0a0c 7369 7A65 		.string	"size"
 6395      00
 6398               	__c.2310:
 6399 0a11 6572 726F 		.string	"error reading disk info\n"
 6399      7220 7265 
 6399      6164 696E 
 6399      6720 6469 
 6399      736B 2069 
 6402               	__c.2308:
 6403 0a2a 6469 736B 		.string	"disk"
 6403      00
 6406               	__c.2301:
 6407 0a2f 6572 726F 		.string	"error seeking on "
 6407      7220 7365 
 6407      656B 696E 
 6407      6720 6F6E 
 6407      2000 
 6410               	__c.2298:
 6411 0a41 6572 726F 		.string	"error opening "
 6411      7220 6F70 
 6411      656E 696E 
 6411      6720 00
 6414               	__c.2295:
 6415 0a50 7265 6164 		.string	"read"
 6415      00
 6418               	__c.2283:
 6419 0a55 6572 726F 		.string	"error opening "
 6419      7220 6F70 
 6419      656E 696E 
 6419      6720 00
 6422               	__c.2280:
 6423 0a64 6361 7400 		.string	"cat"
 6426               	__c.2270:
 6427 0a68 6C73 00   		.string	"ls"
 6430               	__c.2268:
 6431 0a6b 6469 7265 		.string	"directory not found: "
 6431      6374 6F72 
 6431      7920 6E6F 
 6431      7420 666F 
 6431      756E 643A 
 6434               	__c.2264:
 6435 0a81 6364 00   		.string	"cd"
 6438               	__c.2262:
 6439 0a84 7365 7400 		.string	"set"
 6442               	__c.2260:
 6443 0a88 6261 7564 		.string	"baud"
 6443      00
 6446               	__c.2258:
 6447 0a8d 6865 6C70 		.string	"help"
 6447      00
 6450               	__c.2256:
 6451 0a92 3F00      		.string	"?"
 6454               	__c.2254:
 6455 0a94 4669 6C65 		.string	"File system initialized\n"
 6455      2073 7973 
 6455      7465 6D20 
 6455      696E 6974 
 6455      6961 6C69 
 6458               	__c.2252:
 6459 0aad 436C 6F73 		.string	"Closing down file system\n"
 6459      696E 6720 
 6459      646F 776E 
 6459      2066 696C 
 6459      6520 7379 
 6462               	__c.2250:
 6463 0ac7 696E 6974 		.string	"init"
 6463      00
 6466               	__c.2760:
 6467 0acc 6672 6565 		.string	"free:   "
 6467      3A20 2020 
 6467      00
 6470               	__c.2758:
 6471 0ad5 666F 726D 		.string	"format: "
 6471      6174 3A20 
 6471      00
 6474               	__c.2756:
 6475 0ade 7772 2E70 		.string	"wr.pr.: "
 6475      722E 3A20 
 6475      00
 6478               	__c.2754:
 6479 0ae7 636F 7079 		.string	"copy:   "
 6479      3A20 2020 
 6479      00
 6482               	__c.2752:
 6483 0af0 4D42 0A00 		.string	"MB\n"
 6486               	__c.2750:
 6487 0af4 7369 7A65 		.string	"size:   "
 6487      3A20 2020 
 6487      00
 6490               	__c.2748:
 6491 0afd 6461 7465 		.string	"date:   "
 6491      3A20 2020 
 6491      00
 6494               	__c.2746:
 6495 0b06 7365 7269 		.string	"serial: 0x"
 6495      616C 3A20 
 6495      3078 00
 6498               	__c.2744:
 6499 0b11 7265 763A 		.string	"rev:    "
 6499      2020 2020 
 6499      00
 6502               	__c.2742:
 6503 0b1a 7072 6F64 		.string	"prod:   "
 6503      3A20 2020 
 6503      00
 6506               	__c.2740:
 6507 0b23 6F65 6D3A 		.string	"oem:    "
 6507      2020 2020 
 6507      00
 6510               	__c.2738:
 6511 0b2c 6D61 6E75 		.string	"manuf:  0x"
 6511      663A 2020 
 6511      3078 00
 6514               	__c.2230:
 6515 0b37 2154 6F6F 		.string	"!Too many logs:2!"
 6515      206D 616E 
 6515      7920 6C6F 
 6515      6773 3A32 
 6515      2100 
 6518               	__c.2226:
 6519 0b49 2154 6F6F 		.string	"!Too many logs:1!"
 6519      206D 616E 
 6519      7920 6C6F 
 6519      6773 3A31 
 6519      2100 
 6522               	__c.2214:
 6523 0b5b 4572 726F 		.string	"Error creating SEQLOG\n"
 6523      7220 6372 
 6523      6561 7469 
 6523      6E67 2053 
 6523      4551 4C4F 
 6526               	__c.2211:
 6527 0b72 4372 6561 		.string	"Creating SEQLOG\n"
 6527      7469 6E67 
 6527      2053 4551 
 6527      4C4F 470A 
 6527      00
 6530               	__c.2085:
 6531 0b83 6572 726F 		.string	"error opening config file"
 6531      7220 6F70 
 6531      656E 696E 
 6531      6720 636F 
 6531      6E66 6967 
 6534               	__c.2052:
 6535 0b9d 3200      		.string	"2"
 6538               	__c.2050:
 6539 0b9f 3100      		.string	"1"
 6540               		.lcomm cmd_arg,12
 6541               		.comm input_buffer,1024,1
 6542               		.comm general_buffer,25,1
 6543               		.comm read_spot,2,1
 6544               		.comm checked_spot,2,1
 6545               		.comm fs,2,1
 6546               		.comm partition,2,1
 6547               		.comm dd,2,1
 6548               		.comm setting_uart_speed,1,1
 6549               		.comm setting_system_mode,1,1
 6550               		.comm setting_escape_character,1,1
 6551               		.comm setting_max_escape_character,1,1
 6824               	.Letext0:
DEFINED SYMBOLS
                            *ABS*:00000000 main.c
C:/DOCUME~1/Magnus/LOCALS~1/Temp/ccVg2D1s.s:2      *ABS*:0000003f __SREG__
C:/DOCUME~1/Magnus/LOCALS~1/Temp/ccVg2D1s.s:3      *ABS*:0000003e __SP_H__
C:/DOCUME~1/Magnus/LOCALS~1/Temp/ccVg2D1s.s:4      *ABS*:0000003d __SP_L__
C:/DOCUME~1/Magnus/LOCALS~1/Temp/ccVg2D1s.s:5      *ABS*:00000034 __CCP__
C:/DOCUME~1/Magnus/LOCALS~1/Temp/ccVg2D1s.s:6      *ABS*:00000000 __tmp_reg__
C:/DOCUME~1/Magnus/LOCALS~1/Temp/ccVg2D1s.s:7      *ABS*:00000001 __zero_reg__
C:/DOCUME~1/Magnus/LOCALS~1/Temp/ccVg2D1s.s:18     .text:00000000 __vector_20
                            *COM*:00000002 read_spot
                            *COM*:00000400 input_buffer
C:/DOCUME~1/Magnus/LOCALS~1/Temp/ccVg2D1s.s:76     .text:0000006a set_default_settings
C:/DOCUME~1/Magnus/LOCALS~1/Temp/ccVg2D1s.s:166    .text:000000b0 read_system_settings
                            *COM*:00000001 setting_uart_speed
                            *COM*:00000001 setting_system_mode
                            *COM*:00000001 setting_escape_character
                            *COM*:00000001 setting_max_escape_character
C:/DOCUME~1/Magnus/LOCALS~1/Temp/ccVg2D1s.s:355    .text:00000166 EEPROM_write
C:/DOCUME~1/Magnus/LOCALS~1/Temp/ccVg2D1s.s:383    .text:00000176 EEPROM_read
C:/DOCUME~1/Magnus/LOCALS~1/Temp/ccVg2D1s.s:410    .text:00000184 delay_us
C:/DOCUME~1/Magnus/LOCALS~1/Temp/ccVg2D1s.s:463    .text:000001b4 delay_ms
C:/DOCUME~1/Magnus/LOCALS~1/Temp/ccVg2D1s.s:495    .text:000001d0 blink_error
C:/DOCUME~1/Magnus/LOCALS~1/Temp/ccVg2D1s.s:548    .text:0000020c check_emergency_reset
C:/DOCUME~1/Magnus/LOCALS~1/Temp/ccVg2D1s.s:617    .text:0000025c count_cmd_args
                             .bss:00000000 cmd_arg
C:/DOCUME~1/Magnus/LOCALS~1/Temp/ccVg2D1s.s:652    .text:0000027e add_cmd_arg
C:/DOCUME~1/Magnus/LOCALS~1/Temp/ccVg2D1s.s:710    .text:000002bc is_number
C:/DOCUME~1/Magnus/LOCALS~1/Temp/ccVg2D1s.s:760    .text:000002ea wildcmp
C:/DOCUME~1/Magnus/LOCALS~1/Temp/ccVg2D1s.s:868    .text:00000364 print_menu
C:/DOCUME~1/Magnus/LOCALS~1/Temp/ccVg2D1s.s:6298   .progmem.data:0000088c __c.2789
C:/DOCUME~1/Magnus/LOCALS~1/Temp/ccVg2D1s.s:6294   .progmem.data:00000877 __c.2791
C:/DOCUME~1/Magnus/LOCALS~1/Temp/ccVg2D1s.s:6290   .progmem.data:00000859 __c.2793
C:/DOCUME~1/Magnus/LOCALS~1/Temp/ccVg2D1s.s:6284   .progmem.data:000007c6 __c.2795
C:/DOCUME~1/Magnus/LOCALS~1/Temp/ccVg2D1s.s:6278   .progmem.data:00000736 __c.2797
C:/DOCUME~1/Magnus/LOCALS~1/Temp/ccVg2D1s.s:6273   .progmem.data:000006e9 __c.2799
C:/DOCUME~1/Magnus/LOCALS~1/Temp/ccVg2D1s.s:6269   .progmem.data:000006b0 __c.2801
C:/DOCUME~1/Magnus/LOCALS~1/Temp/ccVg2D1s.s:6264   .progmem.data:0000066c __c.2803
C:/DOCUME~1/Magnus/LOCALS~1/Temp/ccVg2D1s.s:6260   .progmem.data:0000063f __c.2805
C:/DOCUME~1/Magnus/LOCALS~1/Temp/ccVg2D1s.s:6255   .progmem.data:000005c7 __c.2807
C:/DOCUME~1/Magnus/LOCALS~1/Temp/ccVg2D1s.s:6251   .progmem.data:0000058d __c.2809
C:/DOCUME~1/Magnus/LOCALS~1/Temp/ccVg2D1s.s:6245   .progmem.data:000004f3 __c.2811
C:/DOCUME~1/Magnus/LOCALS~1/Temp/ccVg2D1s.s:6241   .progmem.data:000004c4 __c.2813
C:/DOCUME~1/Magnus/LOCALS~1/Temp/ccVg2D1s.s:6236   .progmem.data:0000046e __c.2815
C:/DOCUME~1/Magnus/LOCALS~1/Temp/ccVg2D1s.s:6232   .progmem.data:0000043a __c.2817
C:/DOCUME~1/Magnus/LOCALS~1/Temp/ccVg2D1s.s:6228   .progmem.data:000003ff __c.2819
C:/DOCUME~1/Magnus/LOCALS~1/Temp/ccVg2D1s.s:6224   .progmem.data:000003f6 __c.2821
C:/DOCUME~1/Magnus/LOCALS~1/Temp/ccVg2D1s.s:6220   .progmem.data:000003ca __c.2823
C:/DOCUME~1/Magnus/LOCALS~1/Temp/ccVg2D1s.s:6216   .progmem.data:000003a4 __c.2825
C:/DOCUME~1/Magnus/LOCALS~1/Temp/ccVg2D1s.s:956    .text:000003fe too_many_arguments_error
C:/DOCUME~1/Magnus/LOCALS~1/Temp/ccVg2D1s.s:5932   .progmem.data:00000004 __c.3067
C:/DOCUME~1/Magnus/LOCALS~1/Temp/ccVg2D1s.s:5928   .progmem.data:00000000 __c.3069
C:/DOCUME~1/Magnus/LOCALS~1/Temp/ccVg2D1s.s:1033   .text:0000045c split_cmd_line_args
C:/DOCUME~1/Magnus/LOCALS~1/Temp/ccVg2D1s.s:1197   .text:00000516 get_cmd_arg
                            *COM*:00000019 general_buffer
C:/DOCUME~1/Magnus/LOCALS~1/Temp/ccVg2D1s.s:1261   .text:0000056c read_line
C:/DOCUME~1/Magnus/LOCALS~1/Temp/ccVg2D1s.s:1386   .text:0000060a read_buffer
C:/DOCUME~1/Magnus/LOCALS~1/Temp/ccVg2D1s.s:1509   .text:0000069c init_media
                            *COM*:00000002 partition
                            *COM*:00000002 fs
                            *COM*:00000002 dd
C:/DOCUME~1/Magnus/LOCALS~1/Temp/ccVg2D1s.s:1603   .text:00000756 find_file_in_dir
C:/DOCUME~1/Magnus/LOCALS~1/Temp/ccVg2D1s.s:1676   .text:000007b6 open_file_in_dir
C:/DOCUME~1/Magnus/LOCALS~1/Temp/ccVg2D1s.s:1741   .text:00000818 append_file
C:/DOCUME~1/Magnus/LOCALS~1/Temp/ccVg2D1s.s:6334   .progmem.data:0000093b __c.2452
C:/DOCUME~1/Magnus/LOCALS~1/Temp/ccVg2D1s.s:6330   .progmem.data:00000928 __c.2455
                            *COM*:00000002 checked_spot
C:/DOCUME~1/Magnus/LOCALS~1/Temp/ccVg2D1s.s:6326   .progmem.data:00000911 __c.2463
C:/DOCUME~1/Magnus/LOCALS~1/Temp/ccVg2D1s.s:6322   .progmem.data:000008fa __c.2465
C:/DOCUME~1/Magnus/LOCALS~1/Temp/ccVg2D1s.s:6318   .progmem.data:000008e3 __c.2479
C:/DOCUME~1/Magnus/LOCALS~1/Temp/ccVg2D1s.s:6314   .progmem.data:000008cc __c.2481
C:/DOCUME~1/Magnus/LOCALS~1/Temp/ccVg2D1s.s:6310   .progmem.data:000008b5 __c.2484
C:/DOCUME~1/Magnus/LOCALS~1/Temp/ccVg2D1s.s:6306   .progmem.data:0000089e __c.2486
C:/DOCUME~1/Magnus/LOCALS~1/Temp/ccVg2D1s.s:6302   .progmem.data:0000089c __c.2488
C:/DOCUME~1/Magnus/LOCALS~1/Temp/ccVg2D1s.s:2234   .text:00000b84 newlog
C:/DOCUME~1/Magnus/LOCALS~1/Temp/ccVg2D1s.s:6518   .progmem.data:00000b49 __c.2226
C:/DOCUME~1/Magnus/LOCALS~1/Temp/ccVg2D1s.s:6514   .progmem.data:00000b37 __c.2230
C:/DOCUME~1/Magnus/LOCALS~1/Temp/ccVg2D1s.s:2569   .text:00000d2a seqlog
C:/DOCUME~1/Magnus/LOCALS~1/Temp/ccVg2D1s.s:6526   .progmem.data:00000b72 __c.2211
C:/DOCUME~1/Magnus/LOCALS~1/Temp/ccVg2D1s.s:6522   .progmem.data:00000b5b __c.2214
C:/DOCUME~1/Magnus/LOCALS~1/Temp/ccVg2D1s.s:2689   .text:00000dc4 record_config_file
C:/DOCUME~1/Magnus/LOCALS~1/Temp/ccVg2D1s.s:3112   .text:00001078 system_menu
C:/DOCUME~1/Magnus/LOCALS~1/Temp/ccVg2D1s.s:6072   .progmem.data:0000021d __c.2920
C:/DOCUME~1/Magnus/LOCALS~1/Temp/ccVg2D1s.s:6068   .progmem.data:00000209 __c.2922
C:/DOCUME~1/Magnus/LOCALS~1/Temp/ccVg2D1s.s:6064   .progmem.data:00000200 __c.2924
C:/DOCUME~1/Magnus/LOCALS~1/Temp/ccVg2D1s.s:6060   .progmem.data:000001f4 __c.2926
C:/DOCUME~1/Magnus/LOCALS~1/Temp/ccVg2D1s.s:6056   .progmem.data:000001ec __c.2928
C:/DOCUME~1/Magnus/LOCALS~1/Temp/ccVg2D1s.s:6052   .progmem.data:000001ea __c.2930
C:/DOCUME~1/Magnus/LOCALS~1/Temp/ccVg2D1s.s:6048   .progmem.data:000001c4 __c.2932
C:/DOCUME~1/Magnus/LOCALS~1/Temp/ccVg2D1s.s:6044   .progmem.data:000001c0 __c.2934
C:/DOCUME~1/Magnus/LOCALS~1/Temp/ccVg2D1s.s:6040   .progmem.data:000001be __c.2936
C:/DOCUME~1/Magnus/LOCALS~1/Temp/ccVg2D1s.s:6036   .progmem.data:000001b2 __c.2938
C:/DOCUME~1/Magnus/LOCALS~1/Temp/ccVg2D1s.s:6032   .progmem.data:0000019d __c.2940
C:/DOCUME~1/Magnus/LOCALS~1/Temp/ccVg2D1s.s:6028   .progmem.data:00000185 __c.2942
C:/DOCUME~1/Magnus/LOCALS~1/Temp/ccVg2D1s.s:6024   .progmem.data:00000172 __c.2944
C:/DOCUME~1/Magnus/LOCALS~1/Temp/ccVg2D1s.s:6020   .progmem.data:00000158 __c.2946
C:/DOCUME~1/Magnus/LOCALS~1/Temp/ccVg2D1s.s:6016   .progmem.data:0000013f __c.2948
C:/DOCUME~1/Magnus/LOCALS~1/Temp/ccVg2D1s.s:6012   .progmem.data:0000011f __c.2950
C:/DOCUME~1/Magnus/LOCALS~1/Temp/ccVg2D1s.s:6008   .progmem.data:00000116 __c.2952
C:/DOCUME~1/Magnus/LOCALS~1/Temp/ccVg2D1s.s:6004   .progmem.data:00000114 __c.2956
C:/DOCUME~1/Magnus/LOCALS~1/Temp/ccVg2D1s.s:6000   .progmem.data:00000102 __c.2958
C:/DOCUME~1/Magnus/LOCALS~1/Temp/ccVg2D1s.s:5996   .progmem.data:00000100 __c.2960
C:/DOCUME~1/Magnus/LOCALS~1/Temp/ccVg2D1s.s:5992   .progmem.data:000000eb __c.2962
C:/DOCUME~1/Magnus/LOCALS~1/Temp/ccVg2D1s.s:5988   .progmem.data:000000e9 __c.2964
C:/DOCUME~1/Magnus/LOCALS~1/Temp/ccVg2D1s.s:5984   .progmem.data:000000d9 __c.2966
C:/DOCUME~1/Magnus/LOCALS~1/Temp/ccVg2D1s.s:5980   .progmem.data:000000d7 __c.2968
C:/DOCUME~1/Magnus/LOCALS~1/Temp/ccVg2D1s.s:5976   .progmem.data:000000b8 __c.2970
C:/DOCUME~1/Magnus/LOCALS~1/Temp/ccVg2D1s.s:5972   .progmem.data:000000b6 __c.2972
C:/DOCUME~1/Magnus/LOCALS~1/Temp/ccVg2D1s.s:5968   .progmem.data:00000097 __c.2974
C:/DOCUME~1/Magnus/LOCALS~1/Temp/ccVg2D1s.s:5964   .progmem.data:0000007f __c.2976
C:/DOCUME~1/Magnus/LOCALS~1/Temp/ccVg2D1s.s:5960   .progmem.data:0000007d __c.2978
C:/DOCUME~1/Magnus/LOCALS~1/Temp/ccVg2D1s.s:5956   .progmem.data:0000007b __c.2980
C:/DOCUME~1/Magnus/LOCALS~1/Temp/ccVg2D1s.s:5952   .progmem.data:0000004b __c.2983
C:/DOCUME~1/Magnus/LOCALS~1/Temp/ccVg2D1s.s:5948   .progmem.data:00000025 __c.2988
C:/DOCUME~1/Magnus/LOCALS~1/Temp/ccVg2D1s.s:5944   .progmem.data:00000023 __c.2990
C:/DOCUME~1/Magnus/LOCALS~1/Temp/ccVg2D1s.s:5940   .progmem.data:00000021 __c.2992
C:/DOCUME~1/Magnus/LOCALS~1/Temp/ccVg2D1s.s:5936   .progmem.data:00000018 __c.2994
C:/DOCUME~1/Magnus/LOCALS~1/Temp/ccVg2D1s.s:3540   .text:000012e4 baud_menu
C:/DOCUME~1/Magnus/LOCALS~1/Temp/ccVg2D1s.s:6212   .progmem.data:0000038e __c.2832
C:/DOCUME~1/Magnus/LOCALS~1/Temp/ccVg2D1s.s:6208   .progmem.data:00000384 __c.2834
C:/DOCUME~1/Magnus/LOCALS~1/Temp/ccVg2D1s.s:6204   .progmem.data:00000381 __c.2836
C:/DOCUME~1/Magnus/LOCALS~1/Temp/ccVg2D1s.s:6200   .progmem.data:0000037e __c.2838
C:/DOCUME~1/Magnus/LOCALS~1/Temp/ccVg2D1s.s:6196   .progmem.data:0000037b __c.2840
C:/DOCUME~1/Magnus/LOCALS~1/Temp/ccVg2D1s.s:6192   .progmem.data:00000377 __c.2842
C:/DOCUME~1/Magnus/LOCALS~1/Temp/ccVg2D1s.s:6188   .progmem.data:00000373 __c.2844
C:/DOCUME~1/Magnus/LOCALS~1/Temp/ccVg2D1s.s:6184   .progmem.data:0000036f __c.2846
C:/DOCUME~1/Magnus/LOCALS~1/Temp/ccVg2D1s.s:6180   .progmem.data:0000036a __c.2848
C:/DOCUME~1/Magnus/LOCALS~1/Temp/ccVg2D1s.s:6176   .progmem.data:00000362 __c.2850
C:/DOCUME~1/Magnus/LOCALS~1/Temp/ccVg2D1s.s:6172   .progmem.data:00000356 __c.2852
C:/DOCUME~1/Magnus/LOCALS~1/Temp/ccVg2D1s.s:6168   .progmem.data:00000349 __c.2854
C:/DOCUME~1/Magnus/LOCALS~1/Temp/ccVg2D1s.s:6164   .progmem.data:0000033c __c.2856
C:/DOCUME~1/Magnus/LOCALS~1/Temp/ccVg2D1s.s:6160   .progmem.data:0000032f __c.2858
C:/DOCUME~1/Magnus/LOCALS~1/Temp/ccVg2D1s.s:6156   .progmem.data:00000321 __c.2860
C:/DOCUME~1/Magnus/LOCALS~1/Temp/ccVg2D1s.s:6152   .progmem.data:00000313 __c.2862
C:/DOCUME~1/Magnus/LOCALS~1/Temp/ccVg2D1s.s:6148   .progmem.data:00000305 __c.2864
C:/DOCUME~1/Magnus/LOCALS~1/Temp/ccVg2D1s.s:6144   .progmem.data:000002f6 __c.2866
C:/DOCUME~1/Magnus/LOCALS~1/Temp/ccVg2D1s.s:6140   .progmem.data:000002ed __c.2868
C:/DOCUME~1/Magnus/LOCALS~1/Temp/ccVg2D1s.s:6136   .progmem.data:000002eb __c.2872
C:/DOCUME~1/Magnus/LOCALS~1/Temp/ccVg2D1s.s:6132   .progmem.data:000002d5 __c.2874
C:/DOCUME~1/Magnus/LOCALS~1/Temp/ccVg2D1s.s:6128   .progmem.data:000002d3 __c.2876
C:/DOCUME~1/Magnus/LOCALS~1/Temp/ccVg2D1s.s:6124   .progmem.data:000002bd __c.2878
C:/DOCUME~1/Magnus/LOCALS~1/Temp/ccVg2D1s.s:6120   .progmem.data:000002bb __c.2880
C:/DOCUME~1/Magnus/LOCALS~1/Temp/ccVg2D1s.s:6116   .progmem.data:000002a5 __c.2882
C:/DOCUME~1/Magnus/LOCALS~1/Temp/ccVg2D1s.s:6112   .progmem.data:000002a3 __c.2884
C:/DOCUME~1/Magnus/LOCALS~1/Temp/ccVg2D1s.s:6108   .progmem.data:0000028c __c.2886
C:/DOCUME~1/Magnus/LOCALS~1/Temp/ccVg2D1s.s:6104   .progmem.data:0000028a __c.2888
C:/DOCUME~1/Magnus/LOCALS~1/Temp/ccVg2D1s.s:6100   .progmem.data:00000273 __c.2890
C:/DOCUME~1/Magnus/LOCALS~1/Temp/ccVg2D1s.s:6096   .progmem.data:00000271 __c.2892
C:/DOCUME~1/Magnus/LOCALS~1/Temp/ccVg2D1s.s:6092   .progmem.data:0000025a __c.2894
C:/DOCUME~1/Magnus/LOCALS~1/Temp/ccVg2D1s.s:6088   .progmem.data:00000258 __c.2896
C:/DOCUME~1/Magnus/LOCALS~1/Temp/ccVg2D1s.s:6084   .progmem.data:00000240 __c.2898
C:/DOCUME~1/Magnus/LOCALS~1/Temp/ccVg2D1s.s:6080   .progmem.data:0000023e __c.2900
C:/DOCUME~1/Magnus/LOCALS~1/Temp/ccVg2D1s.s:6076   .progmem.data:00000234 __c.2902
C:/DOCUME~1/Magnus/LOCALS~1/Temp/ccVg2D1s.s:3935   .text:0000150c command_shell
C:/DOCUME~1/Magnus/LOCALS~1/Temp/ccVg2D1s.s:6462   .progmem.data:00000ac7 __c.2250
C:/DOCUME~1/Magnus/LOCALS~1/Temp/ccVg2D1s.s:6458   .progmem.data:00000aad __c.2252
C:/DOCUME~1/Magnus/LOCALS~1/Temp/ccVg2D1s.s:6454   .progmem.data:00000a94 __c.2254
C:/DOCUME~1/Magnus/LOCALS~1/Temp/ccVg2D1s.s:6450   .progmem.data:00000a92 __c.2256
C:/DOCUME~1/Magnus/LOCALS~1/Temp/ccVg2D1s.s:6446   .progmem.data:00000a8d __c.2258
C:/DOCUME~1/Magnus/LOCALS~1/Temp/ccVg2D1s.s:6442   .progmem.data:00000a88 __c.2260
C:/DOCUME~1/Magnus/LOCALS~1/Temp/ccVg2D1s.s:6438   .progmem.data:00000a84 __c.2262
C:/DOCUME~1/Magnus/LOCALS~1/Temp/ccVg2D1s.s:6434   .progmem.data:00000a81 __c.2264
C:/DOCUME~1/Magnus/LOCALS~1/Temp/ccVg2D1s.s:6430   .progmem.data:00000a6b __c.2268
C:/DOCUME~1/Magnus/LOCALS~1/Temp/ccVg2D1s.s:6426   .progmem.data:00000a68 __c.2270
C:/DOCUME~1/Magnus/LOCALS~1/Temp/ccVg2D1s.s:6422   .progmem.data:00000a64 __c.2280
C:/DOCUME~1/Magnus/LOCALS~1/Temp/ccVg2D1s.s:6418   .progmem.data:00000a55 __c.2283
C:/DOCUME~1/Magnus/LOCALS~1/Temp/ccVg2D1s.s:6414   .progmem.data:00000a50 __c.2295
C:/DOCUME~1/Magnus/LOCALS~1/Temp/ccVg2D1s.s:6410   .progmem.data:00000a41 __c.2298
C:/DOCUME~1/Magnus/LOCALS~1/Temp/ccVg2D1s.s:6406   .progmem.data:00000a2f __c.2301
C:/DOCUME~1/Magnus/LOCALS~1/Temp/ccVg2D1s.s:6402   .progmem.data:00000a2a __c.2308
C:/DOCUME~1/Magnus/LOCALS~1/Temp/ccVg2D1s.s:6510   .progmem.data:00000b2c __c.2738
C:/DOCUME~1/Magnus/LOCALS~1/Temp/ccVg2D1s.s:6506   .progmem.data:00000b23 __c.2740
C:/DOCUME~1/Magnus/LOCALS~1/Temp/ccVg2D1s.s:6502   .progmem.data:00000b1a __c.2742
C:/DOCUME~1/Magnus/LOCALS~1/Temp/ccVg2D1s.s:6498   .progmem.data:00000b11 __c.2744
C:/DOCUME~1/Magnus/LOCALS~1/Temp/ccVg2D1s.s:6494   .progmem.data:00000b06 __c.2746
C:/DOCUME~1/Magnus/LOCALS~1/Temp/ccVg2D1s.s:6490   .progmem.data:00000afd __c.2748
C:/DOCUME~1/Magnus/LOCALS~1/Temp/ccVg2D1s.s:6486   .progmem.data:00000af4 __c.2750
C:/DOCUME~1/Magnus/LOCALS~1/Temp/ccVg2D1s.s:6482   .progmem.data:00000af0 __c.2752
C:/DOCUME~1/Magnus/LOCALS~1/Temp/ccVg2D1s.s:6478   .progmem.data:00000ae7 __c.2754
C:/DOCUME~1/Magnus/LOCALS~1/Temp/ccVg2D1s.s:6474   .progmem.data:00000ade __c.2756
C:/DOCUME~1/Magnus/LOCALS~1/Temp/ccVg2D1s.s:6470   .progmem.data:00000ad5 __c.2758
C:/DOCUME~1/Magnus/LOCALS~1/Temp/ccVg2D1s.s:6466   .progmem.data:00000acc __c.2760
C:/DOCUME~1/Magnus/LOCALS~1/Temp/ccVg2D1s.s:6398   .progmem.data:00000a11 __c.2310
C:/DOCUME~1/Magnus/LOCALS~1/Temp/ccVg2D1s.s:6394   .progmem.data:00000a0c __c.2312
C:/DOCUME~1/Magnus/LOCALS~1/Temp/ccVg2D1s.s:6390   .progmem.data:00000a09 __c.2315
C:/DOCUME~1/Magnus/LOCALS~1/Temp/ccVg2D1s.s:6386   .progmem.data:000009f3 __c.2318
C:/DOCUME~1/Magnus/LOCALS~1/Temp/ccVg2D1s.s:6382   .progmem.data:000009ef __c.2323
C:/DOCUME~1/Magnus/LOCALS~1/Temp/ccVg2D1s.s:6378   .progmem.data:000009d9 __c.2326
C:/DOCUME~1/Magnus/LOCALS~1/Temp/ccVg2D1s.s:6374   .progmem.data:000009d3 __c.2328
C:/DOCUME~1/Magnus/LOCALS~1/Temp/ccVg2D1s.s:6370   .progmem.data:000009c4 __c.2332
C:/DOCUME~1/Magnus/LOCALS~1/Temp/ccVg2D1s.s:6366   .progmem.data:000009b2 __c.2335
C:/DOCUME~1/Magnus/LOCALS~1/Temp/ccVg2D1s.s:6362   .progmem.data:0000099b __c.2339
C:/DOCUME~1/Magnus/LOCALS~1/Temp/ccVg2D1s.s:6358   .progmem.data:00000994 __c.2342
C:/DOCUME~1/Magnus/LOCALS~1/Temp/ccVg2D1s.s:6354   .progmem.data:00000991 __c.2344
C:/DOCUME~1/Magnus/LOCALS~1/Temp/ccVg2D1s.s:6350   .progmem.data:00000976 __c.2347
C:/DOCUME~1/Magnus/LOCALS~1/Temp/ccVg2D1s.s:6346   .progmem.data:00000971 __c.2349
C:/DOCUME~1/Magnus/LOCALS~1/Temp/ccVg2D1s.s:6342   .progmem.data:0000095d __c.2351
C:/DOCUME~1/Magnus/LOCALS~1/Temp/ccVg2D1s.s:6338   .progmem.data:0000094b __c.2353
C:/DOCUME~1/Magnus/LOCALS~1/Temp/ccVg2D1s.s:5377   .text:00001e14 read_config_file
C:/DOCUME~1/Magnus/LOCALS~1/Temp/ccVg2D1s.s:6530   .progmem.data:00000b83 __c.2085
C:/DOCUME~1/Magnus/LOCALS~1/Temp/ccVg2D1s.s:5810   .text:0000208e ioinit
C:/DOCUME~1/Magnus/LOCALS~1/Temp/ccVg2D1s.s:6538   .progmem.data:00000b9f __c.2050
C:/DOCUME~1/Magnus/LOCALS~1/Temp/ccVg2D1s.s:6534   .progmem.data:00000b9d __c.2052
C:/DOCUME~1/Magnus/LOCALS~1/Temp/ccVg2D1s.s:5895   .text:0000210c main

UNDEFINED SYMBOLS
uart_puts_p
uart_putw_dec
uart_puts
uart_putc
strncpy
memset
uart_getc
sd_raw_init
fat_clear_handles
sd_raw_read
sd_raw_read_interval
sd_raw_write
sd_raw_write_interval
partition_open
fat_open
fat_get_dir_entry_of_path
fat_open_dir
strcmp
fat_reset_dir
fat_read_dir
fat_open_file
fat_seek_file
fat_close_file
fat_write_file
sd_raw_sync
sprintf
fat_create_file
strcpy
fat_delete_file
strcat
uart_putdw_dec
strcmp_P
fat_close
partition_close
strncmp_P
fat_close_dir
uart_putdw_hex
uart_putc_hex
fat_read_file
__mulsi3
sd_raw_get_info
__lshrdi3
fat_get_fs_free
fat_get_fs_size
fat_create_dir
atoi
uart_init
__do_copy_data
__do_clear_bss
