   1               		.file	"partition.c"
   2               	__SREG__ = 0x3f
   3               	__SP_H__ = 0x3e
   4               	__SP_L__ = 0x3d
   5               	__CCP__  = 0x34
   6               	__tmp_reg__ = 0
   7               	__zero_reg__ = 1
  15               	.Ltext0:
  16               	.global	partition_close
  18               	partition_close:
  19               	.LFB3:
  20               	.LM1:
  21               	.LVL0:
  22               	/* prologue: function */
  23               	/* frame size = 0 */
  24 0000 FC01      		movw r30,r24
  25               	.LM2:
  26 0002 0097      		sbiw r24,0
  27 0004 01F4      		brne .L2
  28 0006 80E0      		ldi r24,lo8(0)
  29               	.LVL1:
  30 0008 0895      		ret
  31               	.LVL2:
  32               	.L2:
  33               	.LM3:
  34 000a 1086      		std Z+8,__zero_reg__
  35 000c 81E0      		ldi r24,lo8(1)
  36               	.LVL3:
  37               	.LM4:
  38 000e 0895      		ret
  39               	.LFE3:
  41               	.global	partition_open
  43               	partition_open:
  44               	.LFB2:
  45               	.LM5:
  46               	.LVL4:
  47 0010 4F92      		push r4
  48 0012 5F92      		push r5
  49 0014 6F92      		push r6
  50 0016 7F92      		push r7
  51 0018 8F92      		push r8
  52 001a 9F92      		push r9
  53 001c BF92      		push r11
  54 001e CF92      		push r12
  55 0020 DF92      		push r13
  56 0022 EF92      		push r14
  57 0024 FF92      		push r15
  58 0026 0F93      		push r16
  59               	.LVL5:
  60 0028 1F93      		push r17
  61 002a DF93      		push r29
  62 002c CF93      		push r28
  63 002e CDB7      		in r28,__SP_L__
  64 0030 DEB7      		in r29,__SP_H__
  65 0032 6097      		sbiw r28,16
  66 0034 0FB6      		in __tmp_reg__,__SREG__
  67 0036 F894      		cli
  68 0038 DEBF      		out __SP_H__,r29
  69 003a 0FBE      		out __SREG__,__tmp_reg__
  70 003c CDBF      		out __SP_L__,r28
  71               	/* prologue: function */
  72               	/* frame size = 16 */
  73 003e 6C01      		movw r12,r24
  74 0040 4B01      		movw r8,r22
  75 0042 3A01      		movw r6,r20
  76 0044 2901      		movw r4,r18
  77 0046 B02E      		mov r11,r16
  78               	.LVL6:
  79               	.LM6:
  80 0048 0097      		sbiw r24,0
  81 004a 01F4      		brne .+2
  82 004c 00C0      		rjmp .L6
  83               	.LVL7:
  84 004e 6115      		cp r22,__zero_reg__
  85 0050 7105      		cpc r23,__zero_reg__
  86 0052 01F4      		brne .+2
  87 0054 00C0      		rjmp .L6
  88               	.LVL8:
  89 0056 83E0      		ldi r24,lo8(3)
  90               	.LVL9:
  91 0058 8017      		cp r24,r16
  92 005a 04F4      		brge .+2
  93 005c 00C0      		rjmp .L6
  94               	.LVL10:
  95               	.LM7:
  96 005e 07FD      		sbrc r16,7
  97 0060 00C0      		rjmp .L7
  98               	.LM8:
  99 0062 802F      		mov r24,r16
 100 0064 9927      		clr r25
 101 0066 87FD      		sbrc r24,7
 102 0068 9095      		com r25
 103 006a B4E0      		ldi r27,4
 104 006c 880F      	1:	lsl r24
 105 006e 991F      		rol r25
 106 0070 BA95      		dec r27
 107 0072 01F4      		brne 1b
 108 0074 8254      		subi r24,lo8(-(446))
 109 0076 9E4F      		sbci r25,hi8(-(446))
 110 0078 FC01      		movw r30,r24
 111 007a FF0F      		lsl r31
 112 007c EE0B      		sbc r30,r30
 113 007e FE2F      		mov r31,r30
 114 0080 9C01      		movw r18,r24
 115 0082 4E2F      		mov r20,r30
 116 0084 5E2F      		mov r21,r30
 117 0086 6E2F      		mov r22,r30
 118               	.LVL11:
 119 0088 7E2F      		mov r23,r30
 120 008a 8E2F      		mov r24,r30
 121 008c 9E2F      		mov r25,r30
 122 008e 8E01      		movw r16,r28
 123               	.LVL12:
 124 0090 0F5F      		subi r16,lo8(-(1))
 125 0092 1F4F      		sbci r17,hi8(-(1))
 126 0094 E0E1      		ldi r30,lo8(16)
 127 0096 EE2E      		mov r14,r30
 128 0098 F12C      		mov r15,__zero_reg__
 129 009a F601      		movw r30,r12
 130 009c 0995      		icall
 131 009e 8823      		tst r24
 132 00a0 01F4      		brne .+2
 133 00a2 00C0      		rjmp .L6
 134               	.LM9:
 135 00a4 8D81      		ldd r24,Y+5
 136 00a6 8823      		tst r24
 137 00a8 01F4      		brne .+2
 138 00aa 00C0      		rjmp .L6
 139               	.LVL13:
 140               	.L7:
 141               	.LM10:
 142 00ac 8091 0000 		lds r24,partition_handles+8
 143 00b0 8823      		tst r24
 144 00b2 01F0      		breq .+2
 145 00b4 00C0      		rjmp .L6
 146 00b6 00C0      		rjmp .L15
 147               	.L10:
 148               	.LM11:
 149 00b8 8D81      		ldd r24,Y+5
 150 00ba 8093 0000 		sts partition_handles+8,r24
 151               	.LM12:
 152 00be 2A85      		ldd r18,Y+10
 153 00c0 30E0      		ldi r19,lo8(0)
 154 00c2 40E0      		ldi r20,lo8(0)
 155 00c4 50E0      		ldi r21,hi8(0)
 156 00c6 542F      		mov r21,r20
 157 00c8 432F      		mov r20,r19
 158 00ca 322F      		mov r19,r18
 159 00cc 2227      		clr r18
 160 00ce 8B85      		ldd r24,Y+11
 161 00d0 90E0      		ldi r25,lo8(0)
 162 00d2 A0E0      		ldi r26,lo8(0)
 163 00d4 B0E0      		ldi r27,hi8(0)
 164 00d6 DC01      		movw r26,r24
 165 00d8 9927      		clr r25
 166 00da 8827      		clr r24
 167 00dc 282B      		or r18,r24
 168 00de 392B      		or r19,r25
 169 00e0 4A2B      		or r20,r26
 170 00e2 5B2B      		or r21,r27
 171 00e4 8985      		ldd r24,Y+9
 172 00e6 90E0      		ldi r25,lo8(0)
 173 00e8 A0E0      		ldi r26,lo8(0)
 174 00ea B0E0      		ldi r27,hi8(0)
 175 00ec 282B      		or r18,r24
 176 00ee 392B      		or r19,r25
 177 00f0 4A2B      		or r20,r26
 178 00f2 5B2B      		or r21,r27
 179 00f4 8C85      		ldd r24,Y+12
 180 00f6 90E0      		ldi r25,lo8(0)
 181 00f8 A0E0      		ldi r26,lo8(0)
 182 00fa B0E0      		ldi r27,hi8(0)
 183 00fc B82F      		mov r27,r24
 184 00fe AA27      		clr r26
 185 0100 9927      		clr r25
 186 0102 8827      		clr r24
 187 0104 282B      		or r18,r24
 188 0106 392B      		or r19,r25
 189 0108 4A2B      		or r20,r26
 190 010a 5B2B      		or r21,r27
 191 010c 2093 0000 		sts partition_handles+9,r18
 192 0110 3093 0000 		sts (partition_handles+9)+1,r19
 193 0114 4093 0000 		sts (partition_handles+9)+2,r20
 194 0118 5093 0000 		sts (partition_handles+9)+3,r21
 195               	.LM13:
 196 011c 2E85      		ldd r18,Y+14
 197 011e 30E0      		ldi r19,lo8(0)
 198 0120 40E0      		ldi r20,lo8(0)
 199 0122 50E0      		ldi r21,hi8(0)
 200 0124 542F      		mov r21,r20
 201 0126 432F      		mov r20,r19
 202 0128 322F      		mov r19,r18
 203 012a 2227      		clr r18
 204 012c 8F85      		ldd r24,Y+15
 205 012e 90E0      		ldi r25,lo8(0)
 206 0130 A0E0      		ldi r26,lo8(0)
 207 0132 B0E0      		ldi r27,hi8(0)
 208 0134 DC01      		movw r26,r24
 209 0136 9927      		clr r25
 210 0138 8827      		clr r24
 211 013a 282B      		or r18,r24
 212 013c 392B      		or r19,r25
 213 013e 4A2B      		or r20,r26
 214 0140 5B2B      		or r21,r27
 215 0142 8D85      		ldd r24,Y+13
 216 0144 90E0      		ldi r25,lo8(0)
 217 0146 A0E0      		ldi r26,lo8(0)
 218 0148 B0E0      		ldi r27,hi8(0)
 219 014a 282B      		or r18,r24
 220 014c 392B      		or r19,r25
 221 014e 4A2B      		or r20,r26
 222 0150 5B2B      		or r21,r27
 223 0152 8889      		ldd r24,Y+16
 224 0154 90E0      		ldi r25,lo8(0)
 225 0156 A0E0      		ldi r26,lo8(0)
 226 0158 B0E0      		ldi r27,hi8(0)
 227 015a B82F      		mov r27,r24
 228 015c AA27      		clr r26
 229 015e 9927      		clr r25
 230 0160 8827      		clr r24
 231 0162 282B      		or r18,r24
 232 0164 392B      		or r19,r25
 233 0166 4A2B      		or r20,r26
 234 0168 5B2B      		or r21,r27
 235 016a 2093 0000 		sts partition_handles+13,r18
 236 016e 3093 0000 		sts (partition_handles+13)+1,r19
 237 0172 4093 0000 		sts (partition_handles+13)+2,r20
 238 0176 5093 0000 		sts (partition_handles+13)+3,r21
 239 017a 00C0      		rjmp .L14
 240               	.LVL14:
 241               	.L16:
 242               	.LM14:
 243 017c 8FEF      		ldi r24,lo8(-1)
 244 017e 8093 0000 		sts partition_handles+8,r24
 245               	.L14:
 246 0182 9F01      		movw r18,r30
 247               	.LVL15:
 248 0184 00C0      		rjmp .L9
 249               	.LVL16:
 250               	.L6:
 251 0186 20E0      		ldi r18,lo8(0)
 252 0188 30E0      		ldi r19,hi8(0)
 253               	.LVL17:
 254               	.L9:
 255               	.LM15:
 256 018a C901      		movw r24,r18
 257               	.LVL18:
 258               	/* epilogue start */
 259 018c 6096      		adiw r28,16
 260 018e 0FB6      		in __tmp_reg__,__SREG__
 261 0190 F894      		cli
 262 0192 DEBF      		out __SP_H__,r29
 263 0194 0FBE      		out __SREG__,__tmp_reg__
 264 0196 CDBF      		out __SP_L__,r28
 265 0198 CF91      		pop r28
 266 019a DF91      		pop r29
 267 019c 1F91      		pop r17
 268 019e 0F91      		pop r16
 269 01a0 FF90      		pop r15
 270 01a2 EF90      		pop r14
 271 01a4 DF90      		pop r13
 272 01a6 CF90      		pop r12
 273               	.LVL19:
 274 01a8 BF90      		pop r11
 275               	.LVL20:
 276 01aa 9F90      		pop r9
 277 01ac 8F90      		pop r8
 278               	.LVL21:
 279 01ae 7F90      		pop r7
 280 01b0 6F90      		pop r6
 281               	.LVL22:
 282 01b2 5F90      		pop r5
 283 01b4 4F90      		pop r4
 284               	.LVL23:
 285 01b6 0895      		ret
 286               	.LVL24:
 287               	.L15:
 288               	.LM16:
 289 01b8 E0E0      		ldi r30,lo8(partition_handles)
 290 01ba F0E0      		ldi r31,hi8(partition_handles)
 291 01bc 81E1      		ldi r24,lo8(17)
 292 01be DF01      		movw r26,r30
 293 01c0 1D92      		st X+,__zero_reg__
 294 01c2 8A95      	        dec r24
 295 01c4 01F4      		brne .-6
 296               	.LM17:
 297 01c6 D092 0000 		sts (partition_handles)+1,r13
 298 01ca C092 0000 		sts partition_handles,r12
 299               	.LM18:
 300 01ce 9092 0000 		sts (partition_handles+2)+1,r9
 301 01d2 8092 0000 		sts partition_handles+2,r8
 302               	.LM19:
 303 01d6 7092 0000 		sts (partition_handles+4)+1,r7
 304 01da 6092 0000 		sts partition_handles+4,r6
 305               	.LM20:
 306 01de 5092 0000 		sts (partition_handles+6)+1,r5
 307 01e2 4092 0000 		sts partition_handles+6,r4
 308               	.LM21:
 309 01e6 B7FE      		sbrs r11,7
 310 01e8 00C0      		rjmp .L10
 311 01ea 00C0      		rjmp .L16
 312               	.LFE2:
 314               		.lcomm partition_handles,17
 347               	.Letext0:
DEFINED SYMBOLS
                            *ABS*:00000000 partition.c
C:/DOCUME~1/Magnus/LOCALS~1/Temp/ccsl4S6t.s:2      *ABS*:0000003f __SREG__
C:/DOCUME~1/Magnus/LOCALS~1/Temp/ccsl4S6t.s:3      *ABS*:0000003e __SP_H__
C:/DOCUME~1/Magnus/LOCALS~1/Temp/ccsl4S6t.s:4      *ABS*:0000003d __SP_L__
C:/DOCUME~1/Magnus/LOCALS~1/Temp/ccsl4S6t.s:5      *ABS*:00000034 __CCP__
C:/DOCUME~1/Magnus/LOCALS~1/Temp/ccsl4S6t.s:6      *ABS*:00000000 __tmp_reg__
C:/DOCUME~1/Magnus/LOCALS~1/Temp/ccsl4S6t.s:7      *ABS*:00000001 __zero_reg__
C:/DOCUME~1/Magnus/LOCALS~1/Temp/ccsl4S6t.s:18     .text:00000000 partition_close
C:/DOCUME~1/Magnus/LOCALS~1/Temp/ccsl4S6t.s:43     .text:00000010 partition_open
                             .bss:00000000 partition_handles

UNDEFINED SYMBOLS
__do_clear_bss
