   1               		.file	"fat.c"
   2               	__SREG__ = 0x3f
   3               	__SP_H__ = 0x3e
   4               	__SP_L__ = 0x3d
   5               	__CCP__  = 0x34
   6               	__tmp_reg__ = 0
   7               	__zero_reg__ = 1
  15               	.Ltext0:
  16               	.global	fat_close
  18               	fat_close:
  19               	.LFB3:
  20               	.LM1:
  21               	.LVL0:
  22               	/* prologue: function */
  23               	/* frame size = 0 */
  24 0000 FC01      		movw r30,r24
  25               	.LM2:
  26 0002 0097      		sbiw r24,0
  27 0004 01F0      		breq .L3
  28               	.LM3:
  29 0006 1182      		std Z+1,__zero_reg__
  30 0008 1082      		st Z,__zero_reg__
  31               	.LVL1:
  32               	.L3:
  33 000a 0895      		ret
  34               	.LFE3:
  37               	fat_get_next_cluster:
  38               	.LFB5:
  39               	.LM4:
  40               	.LVL2:
  41 000c 8F92      		push r8
  42 000e 9F92      		push r9
  43 0010 AF92      		push r10
  44 0012 BF92      		push r11
  45 0014 CF92      		push r12
  46 0016 DF92      		push r13
  47 0018 EF92      		push r14
  48 001a FF92      		push r15
  49 001c 0F93      		push r16
  50 001e 1F93      		push r17
  51 0020 DF93      		push r29
  52 0022 CF93      		push r28
  53 0024 00D0      		rcall .
  54 0026 00D0      		rcall .
  55 0028 00D0      		rcall .
  56 002a CDB7      		in r28,__SP_L__
  57 002c DEB7      		in r29,__SP_H__
  58               	/* prologue: function */
  59               	/* frame size = 6 */
  60 002e DC01      		movw r26,r24
  61               	.LM5:
  62 0030 0097      		sbiw r24,0
  63 0032 01F4      		brne .+2
  64 0034 00C0      		rjmp .L5
  65 0036 4230      		cpi r20,lo8(2)
  66 0038 5105      		cpc r21,__zero_reg__
  67 003a 6105      		cpc r22,__zero_reg__
  68 003c 7105      		cpc r23,__zero_reg__
  69 003e 00F4      		brsh .+2
  70 0040 00C0      		rjmp .L5
  71               	.LM6:
  72 0042 ED91      		ld r30,X+
  73 0044 FC91      		ld r31,X
  74 0046 1197      		sbiw r26,1
  75 0048 8085      		ldd r24,Z+8
  76               	.LVL3:
  77 004a 8B30      		cpi r24,lo8(11)
  78 004c 01F0      		breq .+2
  79 004e 00C0      		rjmp .L6
  80               	.LBB42:
  81               	.LM7:
  82 0050 12E0      		ldi r17,2
  83 0052 440F      	1:	lsl r20
  84 0054 551F      		rol r21
  85 0056 661F      		rol r22
  86 0058 771F      		rol r23
  87 005a 1A95      		dec r17
  88 005c 01F4      		brne 1b
  89               	.LVL4:
  90 005e 5A01      		movw r10,r20
  91 0060 6B01      		movw r12,r22
  92 0062 EE24      		clr r14
  93 0064 FF24      		clr r15
  94 0066 8701      		movw r16,r14
  95 0068 1A96      		adiw r26,10
  96 006a 9C90      		ld r9,X
  97 006c 1A97      		sbiw r26,10
  98 006e 1B96      		adiw r26,11
  99 0070 8C91      		ld r24,X
 100 0072 1B97      		sbiw r26,11
 101 0074 1C96      		adiw r26,12
 102 0076 6C91      		ld r22,X
 103 0078 1C97      		sbiw r26,12
 104 007a 1D96      		adiw r26,13
 105 007c 7C91      		ld r23,X
 106 007e 1D97      		sbiw r26,13
 107 0080 1E96      		adiw r26,14
 108 0082 9C91      		ld r25,X
 109 0084 1E97      		sbiw r26,14
 110 0086 1F96      		adiw r26,15
 111 0088 2C91      		ld r18,X
 112 008a 1F97      		sbiw r26,15
 113 008c 5096      		adiw r26,16
 114 008e 8C90      		ld r8,X
 115 0090 5097      		sbiw r26,16
 116 0092 5196      		adiw r26,17
 117 0094 BC91      		ld r27,X
 118 0096 9A0C      		add r9,r10
 119 0098 31E0      		ldi r19,lo8(1)
 120 009a 9A14      		cp r9,r10
 121 009c 00F0      		brlo .L7
 122 009e 30E0      		ldi r19,lo8(0)
 123               	.L7:
 124 00a0 8B0D      		add r24,r11
 125 00a2 41E0      		ldi r20,lo8(1)
 126               	.LVL5:
 127 00a4 8B15      		cp r24,r11
 128 00a6 00F0      		brlo .L8
 129 00a8 40E0      		ldi r20,lo8(0)
 130               	.L8:
 131 00aa 380F      		add r19,r24
 132 00ac 51E0      		ldi r21,lo8(1)
 133 00ae 3817      		cp r19,r24
 134 00b0 00F0      		brlo .L9
 135 00b2 50E0      		ldi r21,lo8(0)
 136               	.L9:
 137 00b4 452B      		or r20,r21
 138 00b6 8C2D      		mov r24,r12
 139 00b8 860F      		add r24,r22
 140 00ba 51E0      		ldi r21,lo8(1)
 141 00bc 8C15      		cp r24,r12
 142 00be 00F0      		brlo .L10
 143 00c0 50E0      		ldi r21,lo8(0)
 144               	.L10:
 145 00c2 480F      		add r20,r24
 146 00c4 61E0      		ldi r22,lo8(1)
 147 00c6 4817      		cp r20,r24
 148 00c8 00F0      		brlo .L11
 149 00ca 60E0      		ldi r22,lo8(0)
 150               	.L11:
 151 00cc 562B      		or r21,r22
 152 00ce 8D2D      		mov r24,r13
 153 00d0 870F      		add r24,r23
 154 00d2 61E0      		ldi r22,lo8(1)
 155 00d4 8D15      		cp r24,r13
 156 00d6 00F0      		brlo .L12
 157 00d8 60E0      		ldi r22,lo8(0)
 158               	.L12:
 159 00da 580F      		add r21,r24
 160 00dc 71E0      		ldi r23,lo8(1)
 161 00de 5817      		cp r21,r24
 162 00e0 00F0      		brlo .L13
 163 00e2 70E0      		ldi r23,lo8(0)
 164               	.L13:
 165 00e4 672B      		or r22,r23
 166 00e6 71E0      		ldi r23,lo8(1)
 167 00e8 9E15      		cp r25,r14
 168 00ea 00F0      		brlo .L14
 169 00ec 70E0      		ldi r23,lo8(0)
 170               	.L14:
 171 00ee 690F      		add r22,r25
 172 00f0 81E0      		ldi r24,lo8(1)
 173 00f2 6917      		cp r22,r25
 174 00f4 00F0      		brlo .L15
 175 00f6 80E0      		ldi r24,lo8(0)
 176               	.L15:
 177 00f8 782B      		or r23,r24
 178 00fa 81E0      		ldi r24,lo8(1)
 179 00fc 2F15      		cp r18,r15
 180 00fe 00F0      		brlo .L16
 181 0100 80E0      		ldi r24,lo8(0)
 182               	.L16:
 183 0102 720F      		add r23,r18
 184 0104 A1E0      		ldi r26,lo8(1)
 185               	.LVL6:
 186 0106 7217      		cp r23,r18
 187 0108 00F0      		brlo .L17
 188 010a A0E0      		ldi r26,lo8(0)
 189               	.L17:
 190 010c 8A2B      		or r24,r26
 191 010e 91E0      		ldi r25,lo8(1)
 192 0110 8016      		cp r8,r16
 193 0112 00F0      		brlo .L18
 194 0114 90E0      		ldi r25,lo8(0)
 195               	.L18:
 196 0116 880D      		add r24,r8
 197 0118 A1E0      		ldi r26,lo8(1)
 198 011a 8815      		cp r24,r8
 199 011c 00F0      		brlo .L19
 200 011e A0E0      		ldi r26,lo8(0)
 201               	.L19:
 202 0120 9A2B      		or r25,r26
 203 0122 0190      		ld __tmp_reg__,Z+
 204 0124 F081      		ld r31,Z
 205 0126 E02D      		mov r30,__tmp_reg__
 206 0128 292D      		mov r18,r9
 207 012a 9B0F      		add r25,r27
 208 012c 8E01      		movw r16,r28
 209 012e 0D5F      		subi r16,lo8(-(3))
 210 0130 1F4F      		sbci r17,hi8(-(3))
 211 0132 A4E0      		ldi r26,lo8(4)
 212 0134 EA2E      		mov r14,r26
 213 0136 F12C      		mov r15,__zero_reg__
 214 0138 0995      		icall
 215 013a 8823      		tst r24
 216 013c 01F4      		brne .+2
 217 013e 00C0      		rjmp .L5
 218               	.LM8:
 219 0140 2B81      		ldd r18,Y+3
 220 0142 3C81      		ldd r19,Y+4
 221 0144 4D81      		ldd r20,Y+5
 222 0146 5E81      		ldd r21,Y+6
 223               	.LVL7:
 224               	.LM9:
 225 0148 2115      		cp r18,__zero_reg__
 226 014a 3105      		cpc r19,__zero_reg__
 227 014c 4105      		cpc r20,__zero_reg__
 228 014e 5105      		cpc r21,__zero_reg__
 229 0150 01F4      		brne .+2
 230 0152 00C0      		rjmp .L20
 231 0154 273F      		cpi r18,lo8(268435447)
 232 0156 8FEF      		ldi r24,hi8(268435447)
 233 0158 3807      		cpc r19,r24
 234 015a 8FEF      		ldi r24,hlo8(268435447)
 235 015c 4807      		cpc r20,r24
 236 015e 8FE0      		ldi r24,hhi8(268435447)
 237 0160 5807      		cpc r21,r24
 238 0162 01F4      		brne .+2
 239 0164 00C0      		rjmp .L5
 240 0166 DA01      		movw r26,r20
 241 0168 C901      		movw r24,r18
 242 016a 805F      		subi r24,lo8(-(-268435440))
 243 016c 9F4F      		sbci r25,hi8(-(-268435440))
 244 016e AF4F      		sbci r26,hlo8(-(-268435440))
 245 0170 BF40      		sbci r27,hhi8(-(-268435440))
 246 0172 0797      		sbiw r24,7
 247 0174 A105      		cpc r26,__zero_reg__
 248 0176 B105      		cpc r27,__zero_reg__
 249 0178 00F4      		brsh .+2
 250 017a 00C0      		rjmp .L5
 251 017c DA01      		movw r26,r20
 252 017e C901      		movw r24,r18
 253 0180 885F      		subi r24,lo8(-(-268435448))
 254 0182 9F4F      		sbci r25,hi8(-(-268435448))
 255 0184 AF4F      		sbci r26,hlo8(-(-268435448))
 256 0186 BF40      		sbci r27,hhi8(-(-268435448))
 257 0188 00C0      		rjmp .L23
 258               	.LVL8:
 259               	.L6:
 260               	.LBE42:
 261               	.LBB43:
 262               	.LM10:
 263 018a 440F      		lsl r20
 264 018c 551F      		rol r21
 265 018e 661F      		rol r22
 266 0190 771F      		rol r23
 267               	.LVL9:
 268               	.LM11:
 269 0192 1A96      		adiw r26,10
 270 0194 AD90      		ld r10,X+
 271 0196 BD90      		ld r11,X+
 272 0198 CD90      		ld r12,X+
 273 019a DC90      		ld r13,X
 274 019c 1D97      		sbiw r26,10+3
 275 019e A40E      		add r10,r20
 276 01a0 B51E      		adc r11,r21
 277 01a2 C61E      		adc r12,r22
 278 01a4 D71E      		adc r13,r23
 279 01a6 0190      		ld __tmp_reg__,Z+
 280 01a8 F081      		ld r31,Z
 281 01aa E02D      		mov r30,__tmp_reg__
 282 01ac 9501      		movw r18,r10
 283 01ae A601      		movw r20,r12
 284               	.LVL10:
 285 01b0 60E0      		ldi r22,lo8(0)
 286 01b2 70E0      		ldi r23,lo8(0)
 287 01b4 80E0      		ldi r24,lo8(0)
 288 01b6 90E0      		ldi r25,lo8(0)
 289 01b8 8E01      		movw r16,r28
 290 01ba 0F5F      		subi r16,lo8(-(1))
 291 01bc 1F4F      		sbci r17,hi8(-(1))
 292 01be A2E0      		ldi r26,lo8(2)
 293 01c0 EA2E      		mov r14,r26
 294 01c2 F12C      		mov r15,__zero_reg__
 295               	.LVL11:
 296 01c4 0995      		icall
 297 01c6 8823      		tst r24
 298 01c8 01F0      		breq .L5
 299               	.LM12:
 300 01ca 8981      		ldd r24,Y+1
 301 01cc 9A81      		ldd r25,Y+2
 302               	.LVL12:
 303 01ce 9C01      		movw r18,r24
 304               	.LVL13:
 305 01d0 40E0      		ldi r20,lo8(0)
 306 01d2 50E0      		ldi r21,hi8(0)
 307               	.LVL14:
 308               	.LM13:
 309 01d4 2115      		cp r18,__zero_reg__
 310 01d6 3105      		cpc r19,__zero_reg__
 311 01d8 4105      		cpc r20,__zero_reg__
 312 01da 5105      		cpc r21,__zero_reg__
 313 01dc 01F0      		breq .L20
 314               	.LVL15:
 315 01de 273F      		cpi r18,lo8(65527)
 316 01e0 8FEF      		ldi r24,hi8(65527)
 317 01e2 3807      		cpc r19,r24
 318 01e4 80E0      		ldi r24,hlo8(65527)
 319 01e6 4807      		cpc r20,r24
 320 01e8 80E0      		ldi r24,hhi8(65527)
 321 01ea 5807      		cpc r21,r24
 322               	.LVL16:
 323 01ec 01F0      		breq .L5
 324 01ee DA01      		movw r26,r20
 325 01f0 C901      		movw r24,r18
 326 01f2 805F      		subi r24,lo8(-(-65520))
 327 01f4 9F4F      		sbci r25,hi8(-(-65520))
 328 01f6 A040      		sbci r26,hlo8(-(-65520))
 329 01f8 B040      		sbci r27,hhi8(-(-65520))
 330 01fa 0797      		sbiw r24,7
 331 01fc A105      		cpc r26,__zero_reg__
 332 01fe B105      		cpc r27,__zero_reg__
 333 0200 00F0      		brlo .L5
 334 0202 DA01      		movw r26,r20
 335 0204 C901      		movw r24,r18
 336 0206 885F      		subi r24,lo8(-(-65528))
 337 0208 9F4F      		sbci r25,hi8(-(-65528))
 338 020a A040      		sbci r26,hlo8(-(-65528))
 339 020c B040      		sbci r27,hhi8(-(-65528))
 340               	.LVL17:
 341               	.L23:
 342 020e 0897      		sbiw r24,8
 343 0210 A105      		cpc r26,__zero_reg__
 344 0212 B105      		cpc r27,__zero_reg__
 345 0214 00F4      		brsh .L20
 346               	.LVL18:
 347               	.L5:
 348 0216 20E0      		ldi r18,lo8(0)
 349 0218 30E0      		ldi r19,hi8(0)
 350 021a 40E0      		ldi r20,hlo8(0)
 351 021c 50E0      		ldi r21,hhi8(0)
 352               	.LVL19:
 353               	.L20:
 354               	.LBE43:
 355               	.LM14:
 356 021e B901      		movw r22,r18
 357               	.LVL20:
 358 0220 CA01      		movw r24,r20
 359               	.LVL21:
 360               	/* epilogue start */
 361 0222 2696      		adiw r28,6
 362 0224 0FB6      		in __tmp_reg__,__SREG__
 363 0226 F894      		cli
 364 0228 DEBF      		out __SP_H__,r29
 365 022a 0FBE      		out __SREG__,__tmp_reg__
 366 022c CDBF      		out __SP_L__,r28
 367 022e CF91      		pop r28
 368 0230 DF91      		pop r29
 369 0232 1F91      		pop r17
 370 0234 0F91      		pop r16
 371 0236 FF90      		pop r15
 372 0238 EF90      		pop r14
 373 023a DF90      		pop r13
 374 023c CF90      		pop r12
 375 023e BF90      		pop r11
 376 0240 AF90      		pop r10
 377 0242 9F90      		pop r9
 378 0244 8F90      		pop r8
 379 0246 0895      		ret
 380               	.LFE5:
 383               	fat_free_clusters:
 384               	.LFB7:
 385               	.LM15:
 386               	.LVL22:
 387 0248 2F92      		push r2
 388 024a 3F92      		push r3
 389 024c 4F92      		push r4
 390 024e 5F92      		push r5
 391 0250 6F92      		push r6
 392 0252 7F92      		push r7
 393 0254 8F92      		push r8
 394 0256 9F92      		push r9
 395 0258 AF92      		push r10
 396 025a BF92      		push r11
 397 025c CF92      		push r12
 398 025e DF92      		push r13
 399 0260 EF92      		push r14
 400 0262 FF92      		push r15
 401 0264 0F93      		push r16
 402 0266 1F93      		push r17
 403 0268 DF93      		push r29
 404 026a CF93      		push r28
 405 026c CDB7      		in r28,__SP_L__
 406 026e DEB7      		in r29,__SP_H__
 407 0270 6097      		sbiw r28,16
 408 0272 0FB6      		in __tmp_reg__,__SREG__
 409 0274 F894      		cli
 410 0276 DEBF      		out __SP_H__,r29
 411 0278 0FBE      		out __SREG__,__tmp_reg__
 412 027a CDBF      		out __SP_L__,r28
 413               	/* prologue: function */
 414               	/* frame size = 16 */
 415 027c 4C01      		movw r8,r24
 416               	.LM16:
 417 027e 0097      		sbiw r24,0
 418 0280 01F4      		brne .+2
 419 0282 00C0      		rjmp .L25
 420 0284 4230      		cpi r20,lo8(2)
 421 0286 5105      		cpc r21,__zero_reg__
 422 0288 6105      		cpc r22,__zero_reg__
 423 028a 7105      		cpc r23,__zero_reg__
 424 028c 00F4      		brsh .+2
 425 028e 00C0      		rjmp .L25
 426               	.LM17:
 427 0290 DC01      		movw r26,r24
 428 0292 1A96      		adiw r26,10
 429 0294 BC91      		ld r27,X
 430 0296 B887      		std Y+8,r27
 431 0298 FC01      		movw r30,r24
 432 029a F385      		ldd r31,Z+11
 433 029c F987      		std Y+9,r31
 434 029e DC01      		movw r26,r24
 435 02a0 1C96      		adiw r26,12
 436 02a2 BC91      		ld r27,X
 437 02a4 BA87      		std Y+10,r27
 438 02a6 FC01      		movw r30,r24
 439 02a8 F585      		ldd r31,Z+13
 440 02aa FB87      		std Y+11,r31
 441 02ac DC01      		movw r26,r24
 442 02ae 1E96      		adiw r26,14
 443 02b0 BC91      		ld r27,X
 444 02b2 BC87      		std Y+12,r27
 445 02b4 FC01      		movw r30,r24
 446 02b6 F785      		ldd r31,Z+15
 447 02b8 FD87      		std Y+13,r31
 448 02ba DC01      		movw r26,r24
 449 02bc 5096      		adiw r26,16
 450 02be BC91      		ld r27,X
 451 02c0 BE87      		std Y+14,r27
 452 02c2 FC01      		movw r30,r24
 453 02c4 F189      		ldd r31,Z+17
 454 02c6 FF87      		std Y+15,r31
 455               	.LM18:
 456 02c8 DC01      		movw r26,r24
 457 02ca ED91      		ld r30,X+
 458 02cc FC91      		ld r31,X
 459 02ce 8085      		ldd r24,Z+8
 460               	.LVL23:
 461 02d0 8B30      		cpi r24,lo8(11)
 462 02d2 01F0      		breq .+2
 463 02d4 00C0      		rjmp .L60
 464               	.LVL24:
 465               	.L59:
 466               	.LBB44:
 467               	.LBB45:
 468               	.LM19:
 469 02d6 12E0      		ldi r17,2
 470 02d8 440F      	1:	lsl r20
 471 02da 551F      		rol r21
 472 02dc 661F      		rol r22
 473 02de 771F      		rol r23
 474 02e0 1A95      		dec r17
 475 02e2 01F4      		brne 1b
 476               	.LVL25:
 477 02e4 80E0      		ldi r24,lo8(0)
 478 02e6 90E0      		ldi r25,hi8(0)
 479 02e8 A0E0      		ldi r26,hlo8(0)
 480 02ea B0E0      		ldi r27,hhi8(0)
 481 02ec E885      		ldd r30,Y+8
 482 02ee E40F      		add r30,r20
 483               	.LVL26:
 484 02f0 E88B      		std Y+16,r30
 485 02f2 31E0      		ldi r19,lo8(1)
 486 02f4 E417      		cp r30,r20
 487 02f6 00F0      		brlo .L27
 488 02f8 30E0      		ldi r19,lo8(0)
 489               	.L27:
 490 02fa 2985      		ldd r18,Y+9
 491 02fc 250F      		add r18,r21
 492 02fe E1E0      		ldi r30,lo8(1)
 493 0300 2517      		cp r18,r21
 494 0302 00F0      		brlo .L28
 495 0304 E0E0      		ldi r30,lo8(0)
 496               	.L28:
 497 0306 320F      		add r19,r18
 498 0308 3F83      		std Y+7,r19
 499 030a 31E0      		ldi r19,lo8(1)
 500 030c FF81      		ldd r31,Y+7
 501 030e F217      		cp r31,r18
 502 0310 00F0      		brlo .L29
 503 0312 30E0      		ldi r19,lo8(0)
 504               	.L29:
 505 0314 E32B      		or r30,r19
 506 0316 2A85      		ldd r18,Y+10
 507 0318 260F      		add r18,r22
 508 031a F1E0      		ldi r31,lo8(1)
 509 031c 2617      		cp r18,r22
 510 031e 00F0      		brlo .L30
 511 0320 F0E0      		ldi r31,lo8(0)
 512               	.L30:
 513 0322 2E2E      		mov r2,r30
 514 0324 220E      		add r2,r18
 515 0326 31E0      		ldi r19,lo8(1)
 516 0328 2216      		cp r2,r18
 517 032a 00F0      		brlo .L31
 518 032c 30E0      		ldi r19,lo8(0)
 519               	.L31:
 520 032e F32B      		or r31,r19
 521 0330 2B85      		ldd r18,Y+11
 522 0332 270F      		add r18,r23
 523 0334 31E0      		ldi r19,lo8(1)
 524 0336 2717      		cp r18,r23
 525 0338 00F0      		brlo .L32
 526 033a 30E0      		ldi r19,lo8(0)
 527               	.L32:
 528 033c 3F2E      		mov r3,r31
 529 033e 320E      		add r3,r18
 530 0340 E1E0      		ldi r30,lo8(1)
 531 0342 3216      		cp r3,r18
 532 0344 00F0      		brlo .L33
 533 0346 E0E0      		ldi r30,lo8(0)
 534               	.L33:
 535 0348 3E2B      		or r19,r30
 536 034a 21E0      		ldi r18,lo8(1)
 537 034c EC85      		ldd r30,Y+12
 538 034e E817      		cp r30,r24
 539 0350 00F0      		brlo .L34
 540 0352 20E0      		ldi r18,lo8(0)
 541               	.L34:
 542 0354 4C84      		ldd r4,Y+12
 543 0356 430E      		add r4,r19
 544 0358 31E0      		ldi r19,lo8(1)
 545 035a FC85      		ldd r31,Y+12
 546 035c 4F16      		cp r4,r31
 547 035e 00F0      		brlo .L35
 548 0360 30E0      		ldi r19,lo8(0)
 549               	.L35:
 550 0362 232B      		or r18,r19
 551 0364 31E0      		ldi r19,lo8(1)
 552 0366 ED85      		ldd r30,Y+13
 553 0368 E917      		cp r30,r25
 554 036a 00F0      		brlo .L36
 555 036c 30E0      		ldi r19,lo8(0)
 556               	.L36:
 557 036e 5D84      		ldd r5,Y+13
 558 0370 520E      		add r5,r18
 559 0372 21E0      		ldi r18,lo8(1)
 560 0374 FD85      		ldd r31,Y+13
 561 0376 5F16      		cp r5,r31
 562 0378 00F0      		brlo .L37
 563 037a 20E0      		ldi r18,lo8(0)
 564               	.L37:
 565 037c 322B      		or r19,r18
 566 037e 21E0      		ldi r18,lo8(1)
 567 0380 EE85      		ldd r30,Y+14
 568 0382 EA17      		cp r30,r26
 569 0384 00F0      		brlo .L38
 570 0386 20E0      		ldi r18,lo8(0)
 571               	.L38:
 572 0388 6E84      		ldd r6,Y+14
 573 038a 630E      		add r6,r19
 574 038c 91E0      		ldi r25,lo8(1)
 575 038e FE85      		ldd r31,Y+14
 576 0390 6F16      		cp r6,r31
 577 0392 00F0      		brlo .L39
 578 0394 90E0      		ldi r25,lo8(0)
 579               	.L39:
 580 0396 722E      		mov r7,r18
 581 0398 792A      		or r7,r25
 582 039a 2F85      		ldd r18,Y+15
 583 039c 720E      		add r7,r18
 584 039e D401      		movw r26,r8
 585 03a0 ED91      		ld r30,X+
 586 03a2 FC91      		ld r31,X
 587 03a4 0190      		ld __tmp_reg__,Z+
 588 03a6 F081      		ld r31,Z
 589 03a8 E02D      		mov r30,__tmp_reg__
 590 03aa 2889      		ldd r18,Y+16
 591 03ac 3F81      		ldd r19,Y+7
 592 03ae A101      		movw r20,r2
 593 03b0 B201      		movw r22,r4
 594 03b2 C301      		movw r24,r6
 595 03b4 8E01      		movw r16,r28
 596 03b6 0D5F      		subi r16,lo8(-(3))
 597 03b8 1F4F      		sbci r17,hi8(-(3))
 598 03ba B4E0      		ldi r27,lo8(4)
 599 03bc EB2E      		mov r14,r27
 600 03be F12C      		mov r15,__zero_reg__
 601 03c0 0995      		icall
 602 03c2 8823      		tst r24
 603 03c4 01F4      		brne .+2
 604 03c6 00C0      		rjmp .L25
 605               	.LM20:
 606 03c8 AB80      		ldd r10,Y+3
 607 03ca BC80      		ldd r11,Y+4
 608 03cc CD80      		ldd r12,Y+5
 609 03ce DE80      		ldd r13,Y+6
 610               	.LM21:
 611 03d0 A114      		cp r10,__zero_reg__
 612 03d2 B104      		cpc r11,__zero_reg__
 613 03d4 C104      		cpc r12,__zero_reg__
 614 03d6 D104      		cpc r13,__zero_reg__
 615 03d8 01F4      		brne .+2
 616 03da 00C0      		rjmp .L40
 617               	.LM22:
 618 03dc D601      		movw r26,r12
 619 03de C501      		movw r24,r10
 620 03e0 805F      		subi r24,lo8(-(-268435440))
 621 03e2 9F4F      		sbci r25,hi8(-(-268435440))
 622 03e4 AF4F      		sbci r26,hlo8(-(-268435440))
 623 03e6 BF40      		sbci r27,hhi8(-(-268435440))
 624 03e8 0897      		sbiw r24,8
 625 03ea A105      		cpc r26,__zero_reg__
 626 03ec B105      		cpc r27,__zero_reg__
 627 03ee 00F4      		brsh .+2
 628 03f0 00C0      		rjmp .L25
 629               	.LM23:
 630 03f2 D601      		movw r26,r12
 631 03f4 C501      		movw r24,r10
 632 03f6 885F      		subi r24,lo8(-(-268435448))
 633 03f8 9F4F      		sbci r25,hi8(-(-268435448))
 634 03fa AF4F      		sbci r26,hlo8(-(-268435448))
 635 03fc BF40      		sbci r27,hhi8(-(-268435448))
 636 03fe 0897      		sbiw r24,8
 637 0400 A105      		cpc r26,__zero_reg__
 638 0402 B105      		cpc r27,__zero_reg__
 639 0404 00F4      		brsh .L41
 640 0406 AA24      		clr r10
 641 0408 BB24      		clr r11
 642 040a 6501      		movw r12,r10
 643               	.L41:
 644               	.LM24:
 645 040c 1B82      		std Y+3,__zero_reg__
 646 040e 1C82      		std Y+4,__zero_reg__
 647 0410 1D82      		std Y+5,__zero_reg__
 648 0412 1E82      		std Y+6,__zero_reg__
 649               	.LVL27:
 650               	.LM25:
 651 0414 D401      		movw r26,r8
 652 0416 ED91      		ld r30,X+
 653 0418 FC91      		ld r31,X
 654 041a 0480      		ldd __tmp_reg__,Z+4
 655 041c F581      		ldd r31,Z+5
 656 041e E02D      		mov r30,__tmp_reg__
 657 0420 2889      		ldd r18,Y+16
 658 0422 3F81      		ldd r19,Y+7
 659 0424 A101      		movw r20,r2
 660 0426 B201      		movw r22,r4
 661 0428 C301      		movw r24,r6
 662 042a 8E01      		movw r16,r28
 663 042c 0D5F      		subi r16,lo8(-(3))
 664 042e 1F4F      		sbci r17,hi8(-(3))
 665 0430 A4E0      		ldi r26,lo8(4)
 666 0432 EA2E      		mov r14,r26
 667 0434 F12C      		mov r15,__zero_reg__
 668 0436 0995      		icall
 669 0438 B601      		movw r22,r12
 670 043a A501      		movw r20,r10
 671               	.LVL28:
 672               	.LBE45:
 673               	.LM26:
 674 043c A114      		cp r10,__zero_reg__
 675 043e B104      		cpc r11,__zero_reg__
 676 0440 C104      		cpc r12,__zero_reg__
 677 0442 D104      		cpc r13,__zero_reg__
 678 0444 01F0      		breq .+2
 679 0446 00C0      		rjmp .L59
 680               	.LVL29:
 681 0448 00C0      		rjmp .L40
 682               	.LVL30:
 683               	.L60:
 684               	.LBE44:
 685               	.LBB46:
 686               	.LBB47:
 687               	.LM27:
 688 044a 440F      		lsl r20
 689 044c 551F      		rol r21
 690 044e 661F      		rol r22
 691 0450 771F      		rol r23
 692               	.LVL31:
 693 0452 80E0      		ldi r24,lo8(0)
 694 0454 90E0      		ldi r25,hi8(0)
 695 0456 A0E0      		ldi r26,hlo8(0)
 696 0458 B0E0      		ldi r27,hhi8(0)
 697 045a 2884      		ldd r2,Y+8
 698 045c 240E      		add r2,r20
 699               	.LVL32:
 700 045e 31E0      		ldi r19,lo8(1)
 701 0460 2416      		cp r2,r20
 702 0462 00F0      		brlo .L43
 703 0464 30E0      		ldi r19,lo8(0)
 704               	.L43:
 705 0466 2985      		ldd r18,Y+9
 706 0468 250F      		add r18,r21
 707 046a E1E0      		ldi r30,lo8(1)
 708 046c 2517      		cp r18,r21
 709 046e 00F0      		brlo .L44
 710 0470 E0E0      		ldi r30,lo8(0)
 711               	.L44:
 712 0472 332E      		mov r3,r19
 713 0474 320E      		add r3,r18
 714 0476 31E0      		ldi r19,lo8(1)
 715 0478 3216      		cp r3,r18
 716 047a 00F0      		brlo .L45
 717 047c 30E0      		ldi r19,lo8(0)
 718               	.L45:
 719 047e E32B      		or r30,r19
 720 0480 2A85      		ldd r18,Y+10
 721 0482 260F      		add r18,r22
 722               	.LVL33:
 723 0484 F1E0      		ldi r31,lo8(1)
 724 0486 2617      		cp r18,r22
 725 0488 00F0      		brlo .L46
 726 048a F0E0      		ldi r31,lo8(0)
 727               	.L46:
 728 048c 4E2E      		mov r4,r30
 729 048e 420E      		add r4,r18
 730 0490 31E0      		ldi r19,lo8(1)
 731 0492 4216      		cp r4,r18
 732 0494 00F0      		brlo .L47
 733 0496 30E0      		ldi r19,lo8(0)
 734               	.L47:
 735 0498 F32B      		or r31,r19
 736 049a 2B85      		ldd r18,Y+11
 737 049c 270F      		add r18,r23
 738 049e 31E0      		ldi r19,lo8(1)
 739 04a0 2717      		cp r18,r23
 740 04a2 00F0      		brlo .L48
 741 04a4 30E0      		ldi r19,lo8(0)
 742               	.L48:
 743 04a6 5F2E      		mov r5,r31
 744 04a8 520E      		add r5,r18
 745 04aa E1E0      		ldi r30,lo8(1)
 746 04ac 5216      		cp r5,r18
 747 04ae 00F0      		brlo .L49
 748 04b0 E0E0      		ldi r30,lo8(0)
 749               	.L49:
 750 04b2 3E2B      		or r19,r30
 751 04b4 21E0      		ldi r18,lo8(1)
 752 04b6 EC85      		ldd r30,Y+12
 753 04b8 E817      		cp r30,r24
 754 04ba 00F0      		brlo .L50
 755 04bc 20E0      		ldi r18,lo8(0)
 756               	.L50:
 757 04be 6C84      		ldd r6,Y+12
 758 04c0 630E      		add r6,r19
 759 04c2 31E0      		ldi r19,lo8(1)
 760 04c4 FC85      		ldd r31,Y+12
 761 04c6 6F16      		cp r6,r31
 762 04c8 00F0      		brlo .L51
 763 04ca 30E0      		ldi r19,lo8(0)
 764               	.L51:
 765 04cc 232B      		or r18,r19
 766 04ce 31E0      		ldi r19,lo8(1)
 767 04d0 ED85      		ldd r30,Y+13
 768 04d2 E917      		cp r30,r25
 769 04d4 00F0      		brlo .L52
 770 04d6 30E0      		ldi r19,lo8(0)
 771               	.L52:
 772 04d8 7D84      		ldd r7,Y+13
 773 04da 720E      		add r7,r18
 774 04dc 21E0      		ldi r18,lo8(1)
 775 04de FD85      		ldd r31,Y+13
 776 04e0 7F16      		cp r7,r31
 777 04e2 00F0      		brlo .L53
 778 04e4 20E0      		ldi r18,lo8(0)
 779               	.L53:
 780 04e6 322B      		or r19,r18
 781 04e8 21E0      		ldi r18,lo8(1)
 782 04ea EE85      		ldd r30,Y+14
 783 04ec EA17      		cp r30,r26
 784 04ee 00F0      		brlo .L54
 785 04f0 20E0      		ldi r18,lo8(0)
 786               	.L54:
 787 04f2 AE84      		ldd r10,Y+14
 788 04f4 A30E      		add r10,r19
 789 04f6 91E0      		ldi r25,lo8(1)
 790 04f8 FE85      		ldd r31,Y+14
 791 04fa AF16      		cp r10,r31
 792 04fc 00F0      		brlo .L55
 793 04fe 90E0      		ldi r25,lo8(0)
 794               	.L55:
 795 0500 B22E      		mov r11,r18
 796 0502 B92A      		or r11,r25
 797 0504 2F85      		ldd r18,Y+15
 798 0506 B20E      		add r11,r18
 799 0508 D401      		movw r26,r8
 800 050a ED91      		ld r30,X+
 801 050c FC91      		ld r31,X
 802 050e 0190      		ld __tmp_reg__,Z+
 803 0510 F081      		ld r31,Z
 804 0512 E02D      		mov r30,__tmp_reg__
 805 0514 9101      		movw r18,r2
 806 0516 A201      		movw r20,r4
 807 0518 B301      		movw r22,r6
 808 051a C501      		movw r24,r10
 809 051c 8E01      		movw r16,r28
 810 051e 0F5F      		subi r16,lo8(-(1))
 811 0520 1F4F      		sbci r17,hi8(-(1))
 812 0522 B2E0      		ldi r27,lo8(2)
 813 0524 EB2E      		mov r14,r27
 814 0526 F12C      		mov r15,__zero_reg__
 815 0528 0995      		icall
 816 052a 8823      		tst r24
 817 052c 01F0      		breq .L25
 818               	.LM28:
 819 052e C980      		ldd r12,Y+1
 820 0530 DA80      		ldd r13,Y+2
 821               	.LM29:
 822 0532 C114      		cp r12,__zero_reg__
 823 0534 D104      		cpc r13,__zero_reg__
 824 0536 01F0      		breq .L40
 825               	.LM30:
 826 0538 C601      		movw r24,r12
 827 053a 4096      		adiw r24,16
 828 053c 0897      		sbiw r24,8
 829 053e 00F0      		brlo .L25
 830               	.LM31:
 831 0540 B8EF      		ldi r27,lo8(-8)
 832 0542 CB16      		cp r12,r27
 833 0544 BFEF      		ldi r27,hi8(-8)
 834 0546 DB06      		cpc r13,r27
 835 0548 00F0      		brlo .L56
 836 054a CC24      		clr r12
 837 054c DD24      		clr r13
 838               	.L56:
 839               	.LM32:
 840 054e 1A82      		std Y+2,__zero_reg__
 841 0550 1982      		std Y+1,__zero_reg__
 842               	.LVL34:
 843               	.LM33:
 844 0552 D401      		movw r26,r8
 845 0554 ED91      		ld r30,X+
 846 0556 FC91      		ld r31,X
 847 0558 0480      		ldd __tmp_reg__,Z+4
 848 055a F581      		ldd r31,Z+5
 849 055c E02D      		mov r30,__tmp_reg__
 850 055e 9101      		movw r18,r2
 851 0560 A201      		movw r20,r4
 852 0562 B301      		movw r22,r6
 853 0564 C501      		movw r24,r10
 854 0566 8E01      		movw r16,r28
 855 0568 0F5F      		subi r16,lo8(-(1))
 856 056a 1F4F      		sbci r17,hi8(-(1))
 857 056c A2E0      		ldi r26,lo8(2)
 858 056e EA2E      		mov r14,r26
 859 0570 F12C      		mov r15,__zero_reg__
 860 0572 0995      		icall
 861               	.LM34:
 862 0574 A601      		movw r20,r12
 863               	.LVL35:
 864 0576 60E0      		ldi r22,lo8(0)
 865 0578 70E0      		ldi r23,hi8(0)
 866               	.LVL36:
 867               	.LBE47:
 868               	.LM35:
 869 057a 4115      		cp r20,__zero_reg__
 870 057c 5105      		cpc r21,__zero_reg__
 871 057e 6105      		cpc r22,__zero_reg__
 872 0580 7105      		cpc r23,__zero_reg__
 873 0582 01F0      		breq .+2
 874 0584 00C0      		rjmp .L60
 875 0586 00C0      		rjmp .L40
 876               	.LVL37:
 877               	.L25:
 878 0588 80E0      		ldi r24,lo8(0)
 879 058a 00C0      		rjmp .L57
 880               	.LVL38:
 881               	.L40:
 882 058c 81E0      		ldi r24,lo8(1)
 883               	.L57:
 884               	/* epilogue start */
 885               	.LBE46:
 886               	.LM36:
 887 058e 6096      		adiw r28,16
 888 0590 0FB6      		in __tmp_reg__,__SREG__
 889 0592 F894      		cli
 890 0594 DEBF      		out __SP_H__,r29
 891 0596 0FBE      		out __SREG__,__tmp_reg__
 892 0598 CDBF      		out __SP_L__,r28
 893 059a CF91      		pop r28
 894 059c DF91      		pop r29
 895 059e 1F91      		pop r17
 896 05a0 0F91      		pop r16
 897 05a2 FF90      		pop r15
 898 05a4 EF90      		pop r14
 899 05a6 DF90      		pop r13
 900 05a8 CF90      		pop r12
 901               	.LVL39:
 902 05aa BF90      		pop r11
 903 05ac AF90      		pop r10
 904               	.LVL40:
 905 05ae 9F90      		pop r9
 906 05b0 8F90      		pop r8
 907               	.LVL41:
 908 05b2 7F90      		pop r7
 909 05b4 6F90      		pop r6
 910 05b6 5F90      		pop r5
 911 05b8 4F90      		pop r4
 912 05ba 3F90      		pop r3
 913 05bc 2F90      		pop r2
 914 05be 0895      		ret
 915               	.LFE7:
 918               	fat_append_clusters:
 919               	.LFB6:
 920               	.LM37:
 921               	.LVL42:
 922 05c0 2F92      		push r2
 923 05c2 3F92      		push r3
 924 05c4 4F92      		push r4
 925 05c6 5F92      		push r5
 926 05c8 6F92      		push r6
 927 05ca 7F92      		push r7
 928 05cc 8F92      		push r8
 929 05ce 9F92      		push r9
 930 05d0 AF92      		push r10
 931 05d2 BF92      		push r11
 932 05d4 CF92      		push r12
 933 05d6 DF92      		push r13
 934 05d8 EF92      		push r14
 935 05da FF92      		push r15
 936 05dc 0F93      		push r16
 937               	.LVL43:
 938 05de 1F93      		push r17
 939 05e0 DF93      		push r29
 940 05e2 CF93      		push r28
 941 05e4 CDB7      		in r28,__SP_L__
 942 05e6 DEB7      		in r29,__SP_H__
 943 05e8 AD97      		sbiw r28,45
 944 05ea 0FB6      		in __tmp_reg__,__SREG__
 945 05ec F894      		cli
 946 05ee DEBF      		out __SP_H__,r29
 947 05f0 0FBE      		out __SREG__,__tmp_reg__
 948 05f2 CDBF      		out __SP_L__,r28
 949               	/* prologue: function */
 950               	/* frame size = 45 */
 951 05f4 9D8F      		std Y+29,r25
 952 05f6 8C8F      		std Y+28,r24
 953 05f8 3A01      		movw r6,r20
 954 05fa 4B01      		movw r8,r22
 955 05fc B901      		movw r22,r18
 956               	.LM38:
 957 05fe 0097      		sbiw r24,0
 958 0600 01F4      		brne .+2
 959 0602 00C0      		rjmp .L64
 960               	.LVL44:
 961               	.LM39:
 962 0604 DC01      		movw r26,r24
 963 0606 ED91      		ld r30,X+
 964 0608 FC91      		ld r31,X
 965 060a 1197      		sbiw r26,1
 966 060c E080      		ld r14,Z
 967 060e F180      		ldd r15,Z+1
 968 0610 FB8E      		std Y+27,r15
 969 0612 EA8E      		std Y+26,r14
 970               	.LVL45:
 971               	.LM40:
 972 0614 2481      		ldd r18,Z+4
 973 0616 3581      		ldd r19,Z+5
 974 0618 398F      		std Y+25,r19
 975 061a 288F      		std Y+24,r18
 976               	.LVL46:
 977               	.LM41:
 978 061c 1A96      		adiw r26,10
 979 061e 3C91      		ld r19,X
 980 0620 1A97      		sbiw r26,10
 981 0622 3CA3      		std Y+36,r19
 982 0624 1B96      		adiw r26,11
 983 0626 4C91      		ld r20,X
 984 0628 1B97      		sbiw r26,11
 985 062a 4DA3      		std Y+37,r20
 986 062c 1C96      		adiw r26,12
 987 062e 5C91      		ld r21,X
 988 0630 1C97      		sbiw r26,12
 989 0632 5EA3      		std Y+38,r21
 990 0634 1D96      		adiw r26,13
 991 0636 8C91      		ld r24,X
 992 0638 1D97      		sbiw r26,13
 993               	.LVL47:
 994 063a 8FA3      		std Y+39,r24
 995 063c 1E96      		adiw r26,14
 996 063e 9C91      		ld r25,X
 997 0640 1E97      		sbiw r26,14
 998 0642 98A7      		std Y+40,r25
 999 0644 1F96      		adiw r26,15
 1000 0646 AC91      		ld r26,X
 1001 0648 A9A7      		std Y+41,r26
 1002 064a AC8D      		ldd r26,Y+28
 1003 064c BD8D      		ldd r27,Y+29
 1004 064e 5096      		adiw r26,16
 1005 0650 BC91      		ld r27,X
 1006 0652 BAA7      		std Y+42,r27
 1007 0654 AC8D      		ldd r26,Y+28
 1008 0656 BD8D      		ldd r27,Y+29
 1009 0658 5196      		adiw r26,17
 1010 065a BC91      		ld r27,X
 1011 065c BBA7      		std Y+43,r27
 1012               	.LM42:
 1013 065e 1F86      		std Y+15,__zero_reg__
 1014               	.LVL48:
 1015 0660 8085      		ldd r24,Z+8
 1016 0662 8B30      		cpi r24,lo8(11)
 1017 0664 01F4      		brne .L65
 1018 0666 E1E0      		ldi r30,lo8(1)
 1019 0668 EF87      		std Y+15,r30
 1020               	.LVL49:
 1021               	.L65:
 1022 066a EC8D      		ldd r30,Y+28
 1023 066c FD8D      		ldd r31,Y+29
 1024 066e 8289      		ldd r24,Z+18
 1025 0670 9389      		ldd r25,Z+19
 1026 0672 A489      		ldd r26,Z+20
 1027 0674 B589      		ldd r27,Z+21
 1028               	.LM43:
 1029 0676 FF85      		ldd r31,Y+15
 1030 0678 FF23      		tst r31
 1031 067a 01F0      		breq .L66
 1032               	.LM44:
 1033 067c 9C01      		movw r18,r24
 1034 067e AD01      		movw r20,r26
 1035 0680 82E0      		ldi r24,2
 1036 0682 5695      	1:	lsr r21
 1037 0684 4795      		ror r20
 1038 0686 3795      		ror r19
 1039 0688 2795      		ror r18
 1040 068a 8A95      		dec r24
 1041 068c 01F4      		brne 1b
 1042 068e 00C0      		rjmp .L140
 1043               	.L66:
 1044               	.LM45:
 1045 0690 9C01      		movw r18,r24
 1046 0692 AD01      		movw r20,r26
 1047 0694 5695      		lsr r21
 1048 0696 4795      		ror r20
 1049 0698 3795      		ror r19
 1050 069a 2795      		ror r18
 1051               	.L140:
 1052 069c 288B      		std Y+16,r18
 1053 069e 398B      		std Y+17,r19
 1054 06a0 4A8B      		std Y+18,r20
 1055 06a2 5B8B      		std Y+19,r21
 1056               	.LVL50:
 1057 06a4 C801      		movw r24,r16
 1058 06a6 DB01      		movw r26,r22
 1059 06a8 8C8B      		std Y+20,r24
 1060 06aa 9D8B      		std Y+21,r25
 1061 06ac AE8B      		std Y+22,r26
 1062 06ae BF8B      		std Y+23,r27
 1063               	.LVL51:
 1064 06b0 AA24      		clr r10
 1065 06b2 BB24      		clr r11
 1066 06b4 6501      		movw r12,r10
 1067               	.LVL52:
 1068 06b6 82E0      		ldi r24,lo8(2)
 1069 06b8 90E0      		ldi r25,hi8(2)
 1070 06ba A0E0      		ldi r26,hlo8(2)
 1071 06bc B0E0      		ldi r27,hhi8(2)
 1072               	.LVL53:
 1073 06be 8B87      		std Y+11,r24
 1074 06c0 9C87      		std Y+12,r25
 1075 06c2 AD87      		std Y+13,r26
 1076 06c4 BE87      		std Y+14,r27
 1077               	.LVL54:
 1078 06c6 A4E0      		ldi r26,lo8(4)
 1079 06c8 EA2E      		mov r14,r26
 1080 06ca F12C      		mov r15,__zero_reg__
 1081 06cc 012D      		mov r16,__zero_reg__
 1082 06ce 112D      		mov r17,__zero_reg__
 1083 06d0 EF82      		std Y+7,r14
 1084 06d2 F886      		std Y+8,r15
 1085 06d4 0987      		std Y+9,r16
 1086 06d6 1A87      		std Y+10,r17
 1087 06d8 00C0      		rjmp .L68
 1088               	.LVL55:
 1089               	.L107:
 1090               	.LBB48:
 1091               	.LM46:
 1092 06da FF84      		ldd r15,Y+15
 1093 06dc FF20      		tst r15
 1094 06de 01F4      		brne .+2
 1095 06e0 00C0      		rjmp .L69
 1096               	.LM47:
 1097 06e2 8F81      		ldd r24,Y+7
 1098 06e4 9885      		ldd r25,Y+8
 1099 06e6 A985      		ldd r26,Y+9
 1100 06e8 BA85      		ldd r27,Y+10
 1101 06ea 880F      		lsl r24
 1102 06ec 991F      		rol r25
 1103 06ee AA1F      		rol r26
 1104 06f0 BB1F      		rol r27
 1105 06f2 9C01      		movw r18,r24
 1106 06f4 AD01      		movw r20,r26
 1107 06f6 60E0      		ldi r22,lo8(0)
 1108 06f8 70E0      		ldi r23,hi8(0)
 1109 06fa 80E0      		ldi r24,hlo8(0)
 1110 06fc 90E0      		ldi r25,hhi8(0)
 1111 06fe 0CA1      		ldd r16,Y+36
 1112 0700 020F      		add r16,r18
 1113 0702 0CA7      		std Y+44,r16
 1114 0704 F1E0      		ldi r31,lo8(1)
 1115 0706 0217      		cp r16,r18
 1116 0708 00F0      		brlo .L70
 1117 070a F0E0      		ldi r31,lo8(0)
 1118               	.L70:
 1119 070c EDA1      		ldd r30,Y+37
 1120 070e E30F      		add r30,r19
 1121 0710 A1E0      		ldi r26,lo8(1)
 1122 0712 E317      		cp r30,r19
 1123 0714 00F0      		brlo .L71
 1124 0716 A0E0      		ldi r26,lo8(0)
 1125               	.L71:
 1126 0718 FE0F      		add r31,r30
 1127 071a FE8F      		std Y+30,r31
 1128 071c F1E0      		ldi r31,lo8(1)
 1129 071e 1E8D      		ldd r17,Y+30
 1130 0720 1E17      		cp r17,r30
 1131 0722 00F0      		brlo .L72
 1132 0724 F0E0      		ldi r31,lo8(0)
 1133               	.L72:
 1134 0726 AF2B      		or r26,r31
 1135 0728 EEA1      		ldd r30,Y+38
 1136 072a E40F      		add r30,r20
 1137 072c B1E0      		ldi r27,lo8(1)
 1138 072e E417      		cp r30,r20
 1139 0730 00F0      		brlo .L73
 1140 0732 B0E0      		ldi r27,lo8(0)
 1141               	.L73:
 1142 0734 AE0F      		add r26,r30
 1143 0736 AF8F      		std Y+31,r26
 1144 0738 F1E0      		ldi r31,lo8(1)
 1145 073a AE17      		cp r26,r30
 1146 073c 00F0      		brlo .L74
 1147 073e F0E0      		ldi r31,lo8(0)
 1148               	.L74:
 1149 0740 BF2B      		or r27,r31
 1150 0742 EFA1      		ldd r30,Y+39
 1151 0744 E50F      		add r30,r21
 1152 0746 F1E0      		ldi r31,lo8(1)
 1153 0748 E517      		cp r30,r21
 1154 074a 00F0      		brlo .L75
 1155 074c F0E0      		ldi r31,lo8(0)
 1156               	.L75:
 1157 074e BE0F      		add r27,r30
 1158 0750 B8A3      		std Y+32,r27
 1159 0752 A1E0      		ldi r26,lo8(1)
 1160 0754 BE17      		cp r27,r30
 1161 0756 00F0      		brlo .L76
 1162 0758 A0E0      		ldi r26,lo8(0)
 1163               	.L76:
 1164 075a FA2B      		or r31,r26
 1165 075c E1E0      		ldi r30,lo8(1)
 1166 075e A8A5      		ldd r26,Y+40
 1167 0760 A617      		cp r26,r22
 1168 0762 00F0      		brlo .L77
 1169 0764 E0E0      		ldi r30,lo8(0)
 1170               	.L77:
 1171 0766 28A4      		ldd r2,Y+40
 1172 0768 2F0E      		add r2,r31
 1173 076a F1E0      		ldi r31,lo8(1)
 1174 076c B8A5      		ldd r27,Y+40
 1175 076e 2B16      		cp r2,r27
 1176 0770 00F0      		brlo .L78
 1177 0772 F0E0      		ldi r31,lo8(0)
 1178               	.L78:
 1179 0774 EF2B      		or r30,r31
 1180 0776 F1E0      		ldi r31,lo8(1)
 1181 0778 E9A4      		ldd r14,Y+41
 1182 077a E716      		cp r14,r23
 1183 077c 00F0      		brlo .L79
 1184 077e F0E0      		ldi r31,lo8(0)
 1185               	.L79:
 1186 0780 39A4      		ldd r3,Y+41
 1187 0782 3E0E      		add r3,r30
 1188 0784 E1E0      		ldi r30,lo8(1)
 1189 0786 F9A4      		ldd r15,Y+41
 1190 0788 3F14      		cp r3,r15
 1191 078a 00F0      		brlo .L80
 1192 078c E0E0      		ldi r30,lo8(0)
 1193               	.L80:
 1194 078e FE2B      		or r31,r30
 1195 0790 E1E0      		ldi r30,lo8(1)
 1196 0792 0AA5      		ldd r16,Y+42
 1197 0794 0817      		cp r16,r24
 1198 0796 00F0      		brlo .L81
 1199 0798 E0E0      		ldi r30,lo8(0)
 1200               	.L81:
 1201 079a 4AA4      		ldd r4,Y+42
 1202 079c 4F0E      		add r4,r31
 1203 079e 91E0      		ldi r25,lo8(1)
 1204 07a0 1AA5      		ldd r17,Y+42
 1205 07a2 4116      		cp r4,r17
 1206 07a4 00F0      		brlo .L82
 1207 07a6 90E0      		ldi r25,lo8(0)
 1208               	.L82:
 1209 07a8 5E2E      		mov r5,r30
 1210 07aa 592A      		or r5,r25
 1211 07ac 2BA5      		ldd r18,Y+43
 1212 07ae 520E      		add r5,r18
 1213 07b0 2CA5      		ldd r18,Y+44
 1214 07b2 3E8D      		ldd r19,Y+30
 1215 07b4 4F8D      		ldd r20,Y+31
 1216 07b6 58A1      		ldd r21,Y+32
 1217 07b8 B101      		movw r22,r2
 1218 07ba C201      		movw r24,r4
 1219 07bc 8E01      		movw r16,r28
 1220 07be 0D5F      		subi r16,lo8(-(3))
 1221 07c0 1F4F      		sbci r17,hi8(-(3))
 1222 07c2 E4E0      		ldi r30,lo8(4)
 1223 07c4 EE2E      		mov r14,r30
 1224 07c6 F12C      		mov r15,__zero_reg__
 1225 07c8 AA8D      		ldd r26,Y+26
 1226 07ca BB8D      		ldd r27,Y+27
 1227 07cc FD01      		movw r30,r26
 1228 07ce 0995      		icall
 1229 07d0 8823      		tst r24
 1230 07d2 01F0      		breq .+2
 1231 07d4 00C0      		rjmp .L138
 1232 07d6 00C0      		rjmp .L64
 1233               	.L69:
 1234               	.LM48:
 1235 07d8 EF80      		ldd r14,Y+7
 1236 07da F884      		ldd r15,Y+8
 1237 07dc 0985      		ldd r16,Y+9
 1238 07de 1A85      		ldd r17,Y+10
 1239 07e0 A801      		movw r20,r16
 1240 07e2 9701      		movw r18,r14
 1241 07e4 60E0      		ldi r22,lo8(0)
 1242 07e6 70E0      		ldi r23,hi8(0)
 1243 07e8 80E0      		ldi r24,hlo8(0)
 1244 07ea 90E0      		ldi r25,hhi8(0)
 1245 07ec FCA0      		ldd r15,Y+36
 1246 07ee F20E      		add r15,r18
 1247 07f0 FDA6      		std Y+45,r15
 1248 07f2 F1E0      		ldi r31,lo8(1)
 1249 07f4 F216      		cp r15,r18
 1250 07f6 00F0      		brlo .L84
 1251 07f8 F0E0      		ldi r31,lo8(0)
 1252               	.L84:
 1253 07fa EDA1      		ldd r30,Y+37
 1254 07fc E30F      		add r30,r19
 1255 07fe A1E0      		ldi r26,lo8(1)
 1256 0800 E317      		cp r30,r19
 1257 0802 00F0      		brlo .L85
 1258 0804 A0E0      		ldi r26,lo8(0)
 1259               	.L85:
 1260 0806 FE0F      		add r31,r30
 1261 0808 F9A3      		std Y+33,r31
 1262 080a F1E0      		ldi r31,lo8(1)
 1263 080c 09A1      		ldd r16,Y+33
 1264 080e 0E17      		cp r16,r30
 1265 0810 00F0      		brlo .L86
 1266 0812 F0E0      		ldi r31,lo8(0)
 1267               	.L86:
 1268 0814 AF2B      		or r26,r31
 1269 0816 EEA1      		ldd r30,Y+38
 1270 0818 E40F      		add r30,r20
 1271 081a B1E0      		ldi r27,lo8(1)
 1272 081c E417      		cp r30,r20
 1273 081e 00F0      		brlo .L87
 1274 0820 B0E0      		ldi r27,lo8(0)
 1275               	.L87:
 1276 0822 AE0F      		add r26,r30
 1277 0824 AAA3      		std Y+34,r26
 1278 0826 F1E0      		ldi r31,lo8(1)
 1279 0828 AE17      		cp r26,r30
 1280 082a 00F0      		brlo .L88
 1281 082c F0E0      		ldi r31,lo8(0)
 1282               	.L88:
 1283 082e BF2B      		or r27,r31
 1284 0830 EFA1      		ldd r30,Y+39
 1285 0832 E50F      		add r30,r21
 1286 0834 A1E0      		ldi r26,lo8(1)
 1287 0836 E517      		cp r30,r21
 1288 0838 00F0      		brlo .L89
 1289 083a A0E0      		ldi r26,lo8(0)
 1290               	.L89:
 1291 083c BE0F      		add r27,r30
 1292 083e BBA3      		std Y+35,r27
 1293 0840 F1E0      		ldi r31,lo8(1)
 1294 0842 BE17      		cp r27,r30
 1295 0844 00F0      		brlo .L90
 1296 0846 F0E0      		ldi r31,lo8(0)
 1297               	.L90:
 1298 0848 AF2B      		or r26,r31
 1299 084a E8A5      		ldd r30,Y+40
 1300 084c E60F      		add r30,r22
 1301 084e B1E0      		ldi r27,lo8(1)
 1302 0850 E617      		cp r30,r22
 1303 0852 00F0      		brlo .L91
 1304 0854 B0E0      		ldi r27,lo8(0)
 1305               	.L91:
 1306 0856 2A2E      		mov r2,r26
 1307 0858 2E0E      		add r2,r30
 1308 085a F1E0      		ldi r31,lo8(1)
 1309 085c 2E16      		cp r2,r30
 1310 085e 00F0      		brlo .L92
 1311 0860 F0E0      		ldi r31,lo8(0)
 1312               	.L92:
 1313 0862 BF2B      		or r27,r31
 1314 0864 E9A5      		ldd r30,Y+41
 1315 0866 E70F      		add r30,r23
 1316 0868 A1E0      		ldi r26,lo8(1)
 1317 086a E717      		cp r30,r23
 1318 086c 00F0      		brlo .L93
 1319 086e A0E0      		ldi r26,lo8(0)
 1320               	.L93:
 1321 0870 3B2E      		mov r3,r27
 1322 0872 3E0E      		add r3,r30
 1323 0874 F1E0      		ldi r31,lo8(1)
 1324 0876 3E16      		cp r3,r30
 1325 0878 00F0      		brlo .L94
 1326 087a F0E0      		ldi r31,lo8(0)
 1327               	.L94:
 1328 087c AF2B      		or r26,r31
 1329 087e EAA5      		ldd r30,Y+42
 1330 0880 E80F      		add r30,r24
 1331 0882 B1E0      		ldi r27,lo8(1)
 1332 0884 E817      		cp r30,r24
 1333 0886 00F0      		brlo .L95
 1334 0888 B0E0      		ldi r27,lo8(0)
 1335               	.L95:
 1336 088a 4A2E      		mov r4,r26
 1337 088c 4E0E      		add r4,r30
 1338 088e F1E0      		ldi r31,lo8(1)
 1339 0890 4E16      		cp r4,r30
 1340 0892 00F0      		brlo .L96
 1341 0894 F0E0      		ldi r31,lo8(0)
 1342               	.L96:
 1343 0896 5B2E      		mov r5,r27
 1344 0898 5F2A      		or r5,r31
 1345 089a 8BA5      		ldd r24,Y+43
 1346 089c 890F      		add r24,r25
 1347 089e 580E      		add r5,r24
 1348 08a0 2DA5      		ldd r18,Y+45
 1349 08a2 39A1      		ldd r19,Y+33
 1350 08a4 4AA1      		ldd r20,Y+34
 1351 08a6 5BA1      		ldd r21,Y+35
 1352 08a8 B101      		movw r22,r2
 1353 08aa C201      		movw r24,r4
 1354 08ac 8E01      		movw r16,r28
 1355 08ae 0F5F      		subi r16,lo8(-(1))
 1356 08b0 1F4F      		sbci r17,hi8(-(1))
 1357 08b2 B2E0      		ldi r27,lo8(2)
 1358 08b4 EB2E      		mov r14,r27
 1359 08b6 F12C      		mov r15,__zero_reg__
 1360 08b8 AA8D      		ldd r26,Y+26
 1361 08ba BB8D      		ldd r27,Y+27
 1362 08bc FD01      		movw r30,r26
 1363 08be 0995      		icall
 1364 08c0 8823      		tst r24
 1365 08c2 01F4      		brne .+2
 1366 08c4 00C0      		rjmp .L64
 1367               	.LM49:
 1368 08c6 8981      		ldd r24,Y+1
 1369 08c8 9A81      		ldd r25,Y+2
 1370 08ca 892B      		or r24,r25
 1371 08cc 01F0      		breq .+2
 1372 08ce 00C0      		rjmp .L97
 1373               	.LVL56:
 1374 08d0 00C0      		rjmp .L143
 1375               	.LVL57:
 1376               	.L138:
 1377               	.LM50:
 1378 08d2 8B81      		ldd r24,Y+3
 1379 08d4 9C81      		ldd r25,Y+4
 1380 08d6 AD81      		ldd r26,Y+5
 1381 08d8 BE81      		ldd r27,Y+6
 1382 08da 0097      		sbiw r24,0
 1383 08dc A105      		cpc r26,__zero_reg__
 1384 08de B105      		cpc r27,__zero_reg__
 1385 08e0 01F0      		breq .+2
 1386 08e2 00C0      		rjmp .L97
 1387               	.LVL58:
 1388               	.LM51:
 1389 08e4 A114      		cp r10,__zero_reg__
 1390 08e6 B104      		cpc r11,__zero_reg__
 1391 08e8 C104      		cpc r12,__zero_reg__
 1392 08ea D104      		cpc r13,__zero_reg__
 1393 08ec 01F4      		brne .L99
 1394               	.LM52:
 1395 08ee AFEF      		ldi r26,lo8(268435455)
 1396 08f0 EA2E      		mov r14,r26
 1397 08f2 AFEF      		ldi r26,hi8(268435455)
 1398 08f4 FA2E      		mov r15,r26
 1399 08f6 AFEF      		ldi r26,hlo8(268435455)
 1400 08f8 0A2F      		mov r16,r26
 1401 08fa AFE0      		ldi r26,hhi8(268435455)
 1402 08fc 1A2F      		mov r17,r26
 1403 08fe EB82      		std Y+3,r14
 1404 0900 FC82      		std Y+4,r15
 1405 0902 0D83      		std Y+5,r16
 1406 0904 1E83      		std Y+6,r17
 1407               	.LVL59:
 1408 0906 00C0      		rjmp .L100
 1409               	.LVL60:
 1410               	.L99:
 1411               	.LM53:
 1412 0908 AB82      		std Y+3,r10
 1413 090a BC82      		std Y+4,r11
 1414 090c CD82      		std Y+5,r12
 1415 090e DE82      		std Y+6,r13
 1416               	.LVL61:
 1417               	.L100:
 1418               	.LM54:
 1419 0910 2CA5      		ldd r18,Y+44
 1420 0912 3E8D      		ldd r19,Y+30
 1421 0914 4F8D      		ldd r20,Y+31
 1422 0916 58A1      		ldd r21,Y+32
 1423 0918 B101      		movw r22,r2
 1424 091a C201      		movw r24,r4
 1425 091c 8E01      		movw r16,r28
 1426 091e 0D5F      		subi r16,lo8(-(3))
 1427 0920 1F4F      		sbci r17,hi8(-(3))
 1428 0922 F4E0      		ldi r31,lo8(4)
 1429 0924 EF2E      		mov r14,r31
 1430 0926 F12C      		mov r15,__zero_reg__
 1431 0928 00C0      		rjmp .L141
 1432               	.LVL62:
 1433               	.L143:
 1434               	.LM55:
 1435 092a A114      		cp r10,__zero_reg__
 1436 092c B104      		cpc r11,__zero_reg__
 1437 092e C104      		cpc r12,__zero_reg__
 1438 0930 D104      		cpc r13,__zero_reg__
 1439 0932 01F4      		brne .L103
 1440               	.LM56:
 1441 0934 EFEF      		ldi r30,lo8(-1)
 1442 0936 FFEF      		ldi r31,hi8(-1)
 1443 0938 FA83      		std Y+2,r31
 1444 093a E983      		std Y+1,r30
 1445               	.LVL63:
 1446 093c 00C0      		rjmp .L104
 1447               	.LVL64:
 1448               	.L103:
 1449               	.LM57:
 1450 093e BA82      		std Y+2,r11
 1451 0940 A982      		std Y+1,r10
 1452               	.LVL65:
 1453               	.L104:
 1454               	.LM58:
 1455 0942 2DA5      		ldd r18,Y+45
 1456 0944 39A1      		ldd r19,Y+33
 1457 0946 4AA1      		ldd r20,Y+34
 1458 0948 5BA1      		ldd r21,Y+35
 1459 094a B101      		movw r22,r2
 1460 094c C201      		movw r24,r4
 1461 094e 8E01      		movw r16,r28
 1462 0950 0F5F      		subi r16,lo8(-(1))
 1463 0952 1F4F      		sbci r17,hi8(-(1))
 1464 0954 E2E0      		ldi r30,lo8(2)
 1465 0956 EE2E      		mov r14,r30
 1466 0958 F12C      		mov r15,__zero_reg__
 1467               	.L141:
 1468 095a A88D      		ldd r26,Y+24
 1469 095c B98D      		ldd r27,Y+25
 1470 095e FD01      		movw r30,r26
 1471 0960 0995      		icall
 1472 0962 8823      		tst r24
 1473 0964 01F4      		brne .+2
 1474 0966 00C0      		rjmp .L101
 1475               	.LM59:
 1476 0968 0C89      		ldd r16,Y+20
 1477 096a 1D89      		ldd r17,Y+21
 1478 096c 2E89      		ldd r18,Y+22
 1479 096e 3F89      		ldd r19,Y+23
 1480 0970 0150      		subi r16,lo8(-(-1))
 1481 0972 1040      		sbci r17,hi8(-(-1))
 1482 0974 2040      		sbci r18,hlo8(-(-1))
 1483 0976 3040      		sbci r19,hhi8(-(-1))
 1484 0978 0C8B      		std Y+20,r16
 1485 097a 1D8B      		std Y+21,r17
 1486 097c 2E8B      		std Y+22,r18
 1487 097e 3F8B      		std Y+23,r19
 1488               	.LVL66:
 1489 0980 0115      		cp r16,__zero_reg__
 1490 0982 1105      		cpc r17,__zero_reg__
 1491 0984 2105      		cpc r18,__zero_reg__
 1492 0986 3105      		cpc r19,__zero_reg__
 1493 0988 01F4      		brne .L105
 1494 098a AB84      		ldd r10,Y+11
 1495 098c BC84      		ldd r11,Y+12
 1496 098e CD84      		ldd r12,Y+13
 1497 0990 DE84      		ldd r13,Y+14
 1498 0992 00C0      		rjmp .L106
 1499               	.L105:
 1500 0994 AB84      		ldd r10,Y+11
 1501 0996 BC84      		ldd r11,Y+12
 1502 0998 CD84      		ldd r12,Y+13
 1503 099a DE84      		ldd r13,Y+14
 1504               	.LVL67:
 1505               	.L97:
 1506               	.LM60:
 1507 099c 2B85      		ldd r18,Y+11
 1508 099e 3C85      		ldd r19,Y+12
 1509 09a0 4D85      		ldd r20,Y+13
 1510 09a2 5E85      		ldd r21,Y+14
 1511 09a4 2F5F      		subi r18,lo8(-(1))
 1512 09a6 3F4F      		sbci r19,hi8(-(1))
 1513 09a8 4F4F      		sbci r20,hlo8(-(1))
 1514 09aa 5F4F      		sbci r21,hhi8(-(1))
 1515 09ac 2B87      		std Y+11,r18
 1516 09ae 3C87      		std Y+12,r19
 1517 09b0 4D87      		std Y+13,r20
 1518 09b2 5E87      		std Y+14,r21
 1519               	.LVL68:
 1520 09b4 8F81      		ldd r24,Y+7
 1521 09b6 9885      		ldd r25,Y+8
 1522 09b8 A985      		ldd r26,Y+9
 1523 09ba BA85      		ldd r27,Y+10
 1524 09bc 0296      		adiw r24,2
 1525 09be A11D      		adc r26,__zero_reg__
 1526 09c0 B11D      		adc r27,__zero_reg__
 1527 09c2 8F83      		std Y+7,r24
 1528 09c4 9887      		std Y+8,r25
 1529 09c6 A987      		std Y+9,r26
 1530 09c8 BA87      		std Y+10,r27
 1531               	.L68:
 1532 09ca EB84      		ldd r14,Y+11
 1533 09cc FC84      		ldd r15,Y+12
 1534 09ce 0D85      		ldd r16,Y+13
 1535 09d0 1E85      		ldd r17,Y+14
 1536 09d2 2889      		ldd r18,Y+16
 1537 09d4 3989      		ldd r19,Y+17
 1538 09d6 4A89      		ldd r20,Y+18
 1539 09d8 5B89      		ldd r21,Y+19
 1540 09da E216      		cp r14,r18
 1541 09dc F306      		cpc r15,r19
 1542 09de 0407      		cpc r16,r20
 1543 09e0 1507      		cpc r17,r21
 1544 09e2 00F4      		brsh .+2
 1545 09e4 00C0      		rjmp .L107
 1546               	.L101:
 1547               	.LBE48:
 1548               	.LM61:
 1549 09e6 8C89      		ldd r24,Y+20
 1550 09e8 9D89      		ldd r25,Y+21
 1551 09ea AE89      		ldd r26,Y+22
 1552 09ec BF89      		ldd r27,Y+23
 1553 09ee 0097      		sbiw r24,0
 1554 09f0 A105      		cpc r26,__zero_reg__
 1555 09f2 B105      		cpc r27,__zero_reg__
 1556 09f4 01F0      		breq .+2
 1557 09f6 00C0      		rjmp .L108
 1558               	.L106:
 1559               	.LM62:
 1560 09f8 92E0      		ldi r25,lo8(2)
 1561 09fa 6916      		cp r6,r25
 1562 09fc 7104      		cpc r7,__zero_reg__
 1563 09fe 8104      		cpc r8,__zero_reg__
 1564 0a00 9104      		cpc r9,__zero_reg__
 1565 0a02 00F4      		brsh .+2
 1566 0a04 00C0      		rjmp .L109
 1567               	.LM63:
 1568 0a06 AF85      		ldd r26,Y+15
 1569 0a08 AA23      		tst r26
 1570 0a0a 01F4      		brne .+2
 1571 0a0c 00C0      		rjmp .L110
 1572               	.LM64:
 1573 0a0e AB82      		std Y+3,r10
 1574 0a10 BC82      		std Y+4,r11
 1575 0a12 CD82      		std Y+5,r12
 1576 0a14 DE82      		std Y+6,r13
 1577               	.LVL69:
 1578               	.LM65:
 1579 0a16 B2E0      		ldi r27,2
 1580 0a18 660C      	1:	lsl r6
 1581 0a1a 771C      		rol r7
 1582 0a1c 881C      		rol r8
 1583 0a1e 991C      		rol r9
 1584 0a20 BA95      		dec r27
 1585 0a22 01F4      		brne 1b
 1586 0a24 B401      		movw r22,r8
 1587 0a26 A301      		movw r20,r6
 1588 0a28 80E0      		ldi r24,lo8(0)
 1589 0a2a 90E0      		ldi r25,hi8(0)
 1590 0a2c A0E0      		ldi r26,hlo8(0)
 1591 0a2e B0E0      		ldi r27,hhi8(0)
 1592 0a30 2CA1      		ldd r18,Y+36
 1593 0a32 260D      		add r18,r6
 1594               	.LVL70:
 1595 0a34 31E0      		ldi r19,lo8(1)
 1596 0a36 2615      		cp r18,r6
 1597 0a38 00F0      		brlo .L111
 1598 0a3a 30E0      		ldi r19,lo8(0)
 1599               	.L111:
 1600 0a3c EDA1      		ldd r30,Y+37
 1601 0a3e E50F      		add r30,r21
 1602 0a40 11E0      		ldi r17,lo8(1)
 1603 0a42 E517      		cp r30,r21
 1604 0a44 00F0      		brlo .L112
 1605 0a46 10E0      		ldi r17,lo8(0)
 1606               	.L112:
 1607 0a48 3E0F      		add r19,r30
 1608 0a4a F1E0      		ldi r31,lo8(1)
 1609 0a4c 3E17      		cp r19,r30
 1610 0a4e 00F0      		brlo .L113
 1611 0a50 F0E0      		ldi r31,lo8(0)
 1612               	.L113:
 1613 0a52 1F2B      		or r17,r31
 1614 0a54 EEA1      		ldd r30,Y+38
 1615 0a56 E60F      		add r30,r22
 1616 0a58 01E0      		ldi r16,lo8(1)
 1617 0a5a E617      		cp r30,r22
 1618 0a5c 00F0      		brlo .L114
 1619 0a5e 00E0      		ldi r16,lo8(0)
 1620               	.L114:
 1621 0a60 912E      		mov r9,r17
 1622 0a62 9E0E      		add r9,r30
 1623 0a64 F1E0      		ldi r31,lo8(1)
 1624 0a66 9E16      		cp r9,r30
 1625 0a68 00F0      		brlo .L115
 1626 0a6a F0E0      		ldi r31,lo8(0)
 1627               	.L115:
 1628 0a6c 0F2B      		or r16,r31
 1629 0a6e EFA1      		ldd r30,Y+39
 1630 0a70 E70F      		add r30,r23
 1631 0a72 F1E0      		ldi r31,lo8(1)
 1632 0a74 E717      		cp r30,r23
 1633 0a76 00F0      		brlo .L116
 1634 0a78 F0E0      		ldi r31,lo8(0)
 1635               	.L116:
 1636 0a7a E02E      		mov r14,r16
 1637 0a7c EE0E      		add r14,r30
 1638 0a7e 11E0      		ldi r17,lo8(1)
 1639 0a80 EE16      		cp r14,r30
 1640 0a82 00F0      		brlo .L117
 1641 0a84 10E0      		ldi r17,lo8(0)
 1642               	.L117:
 1643 0a86 F12B      		or r31,r17
 1644 0a88 E1E0      		ldi r30,lo8(1)
 1645 0a8a F8A4      		ldd r15,Y+40
 1646 0a8c F816      		cp r15,r24
 1647 0a8e 00F0      		brlo .L118
 1648 0a90 E0E0      		ldi r30,lo8(0)
 1649               	.L118:
 1650 0a92 F8A4      		ldd r15,Y+40
 1651 0a94 FF0E      		add r15,r31
 1652 0a96 F1E0      		ldi r31,lo8(1)
 1653 0a98 08A5      		ldd r16,Y+40
 1654 0a9a F016      		cp r15,r16
 1655 0a9c 00F0      		brlo .L119
 1656 0a9e F0E0      		ldi r31,lo8(0)
 1657               	.L119:
 1658 0aa0 EF2B      		or r30,r31
 1659 0aa2 F1E0      		ldi r31,lo8(1)
 1660 0aa4 19A5      		ldd r17,Y+41
 1661 0aa6 1917      		cp r17,r25
 1662 0aa8 00F0      		brlo .L120
 1663 0aaa F0E0      		ldi r31,lo8(0)
 1664               	.L120:
 1665 0aac 09A5      		ldd r16,Y+41
 1666 0aae 0E0F      		add r16,r30
 1667 0ab0 E1E0      		ldi r30,lo8(1)
 1668 0ab2 19A5      		ldd r17,Y+41
 1669 0ab4 0117      		cp r16,r17
 1670 0ab6 00F0      		brlo .L121
 1671 0ab8 E0E0      		ldi r30,lo8(0)
 1672               	.L121:
 1673 0aba FE2B      		or r31,r30
 1674 0abc 11E0      		ldi r17,lo8(1)
 1675 0abe EAA5      		ldd r30,Y+42
 1676 0ac0 EA17      		cp r30,r26
 1677 0ac2 00F0      		brlo .L122
 1678 0ac4 10E0      		ldi r17,lo8(0)
 1679               	.L122:
 1680 0ac6 8AA5      		ldd r24,Y+42
 1681 0ac8 8F0F      		add r24,r31
 1682 0aca E1E0      		ldi r30,lo8(1)
 1683 0acc FAA5      		ldd r31,Y+42
 1684 0ace 8F17      		cp r24,r31
 1685 0ad0 00F0      		brlo .L123
 1686 0ad2 E0E0      		ldi r30,lo8(0)
 1687               	.L123:
 1688 0ad4 1E2B      		or r17,r30
 1689 0ad6 492D      		mov r20,r9
 1690 0ad8 5E2D      		mov r21,r14
 1691 0ada 6F2D      		mov r22,r15
 1692 0adc 702F      		mov r23,r16
 1693 0ade 9BA5      		ldd r25,Y+43
 1694 0ae0 910F      		add r25,r17
 1695 0ae2 8E01      		movw r16,r28
 1696 0ae4 0D5F      		subi r16,lo8(-(3))
 1697 0ae6 1F4F      		sbci r17,hi8(-(3))
 1698 0ae8 A4E0      		ldi r26,lo8(4)
 1699 0aea EA2E      		mov r14,r26
 1700 0aec F12C      		mov r15,__zero_reg__
 1701 0aee 00C0      		rjmp .L142
 1702               	.LVL71:
 1703               	.L110:
 1704               	.LM66:
 1705 0af0 BA82      		std Y+2,r11
 1706 0af2 A982      		std Y+1,r10
 1707               	.LVL72:
 1708               	.LM67:
 1709 0af4 660C      		lsl r6
 1710 0af6 771C      		rol r7
 1711 0af8 881C      		rol r8
 1712 0afa 991C      		rol r9
 1713 0afc B401      		movw r22,r8
 1714 0afe A301      		movw r20,r6
 1715 0b00 80E0      		ldi r24,lo8(0)
 1716 0b02 90E0      		ldi r25,hi8(0)
 1717 0b04 A0E0      		ldi r26,hlo8(0)
 1718 0b06 B0E0      		ldi r27,hhi8(0)
 1719 0b08 2CA1      		ldd r18,Y+36
 1720 0b0a 260D      		add r18,r6
 1721               	.LVL73:
 1722 0b0c 31E0      		ldi r19,lo8(1)
 1723 0b0e 2615      		cp r18,r6
 1724 0b10 00F0      		brlo .L124
 1725 0b12 30E0      		ldi r19,lo8(0)
 1726               	.L124:
 1727 0b14 EDA1      		ldd r30,Y+37
 1728 0b16 E50F      		add r30,r21
 1729 0b18 11E0      		ldi r17,lo8(1)
 1730 0b1a E517      		cp r30,r21
 1731 0b1c 00F0      		brlo .L125
 1732 0b1e 10E0      		ldi r17,lo8(0)
 1733               	.L125:
 1734 0b20 3E0F      		add r19,r30
 1735 0b22 F1E0      		ldi r31,lo8(1)
 1736 0b24 3E17      		cp r19,r30
 1737 0b26 00F0      		brlo .L126
 1738 0b28 F0E0      		ldi r31,lo8(0)
 1739               	.L126:
 1740 0b2a 1F2B      		or r17,r31
 1741 0b2c EEA1      		ldd r30,Y+38
 1742 0b2e E60F      		add r30,r22
 1743 0b30 01E0      		ldi r16,lo8(1)
 1744 0b32 E617      		cp r30,r22
 1745 0b34 00F0      		brlo .L127
 1746 0b36 00E0      		ldi r16,lo8(0)
 1747               	.L127:
 1748 0b38 912E      		mov r9,r17
 1749 0b3a 9E0E      		add r9,r30
 1750 0b3c F1E0      		ldi r31,lo8(1)
 1751 0b3e 9E16      		cp r9,r30
 1752 0b40 00F0      		brlo .L128
 1753 0b42 F0E0      		ldi r31,lo8(0)
 1754               	.L128:
 1755 0b44 0F2B      		or r16,r31
 1756 0b46 EFA1      		ldd r30,Y+39
 1757 0b48 E70F      		add r30,r23
 1758 0b4a F1E0      		ldi r31,lo8(1)
 1759 0b4c E717      		cp r30,r23
 1760 0b4e 00F0      		brlo .L129
 1761 0b50 F0E0      		ldi r31,lo8(0)
 1762               	.L129:
 1763 0b52 E02E      		mov r14,r16
 1764 0b54 EE0E      		add r14,r30
 1765 0b56 11E0      		ldi r17,lo8(1)
 1766 0b58 EE16      		cp r14,r30
 1767 0b5a 00F0      		brlo .L130
 1768 0b5c 10E0      		ldi r17,lo8(0)
 1769               	.L130:
 1770 0b5e F12B      		or r31,r17
 1771 0b60 E1E0      		ldi r30,lo8(1)
 1772 0b62 F8A4      		ldd r15,Y+40
 1773 0b64 F816      		cp r15,r24
 1774 0b66 00F0      		brlo .L131
 1775 0b68 E0E0      		ldi r30,lo8(0)
 1776               	.L131:
 1777 0b6a F8A4      		ldd r15,Y+40
 1778 0b6c FF0E      		add r15,r31
 1779 0b6e F1E0      		ldi r31,lo8(1)
 1780 0b70 08A5      		ldd r16,Y+40
 1781 0b72 F016      		cp r15,r16
 1782 0b74 00F0      		brlo .L132
 1783 0b76 F0E0      		ldi r31,lo8(0)
 1784               	.L132:
 1785 0b78 EF2B      		or r30,r31
 1786 0b7a F1E0      		ldi r31,lo8(1)
 1787 0b7c 19A5      		ldd r17,Y+41
 1788 0b7e 1917      		cp r17,r25
 1789 0b80 00F0      		brlo .L133
 1790 0b82 F0E0      		ldi r31,lo8(0)
 1791               	.L133:
 1792 0b84 09A5      		ldd r16,Y+41
 1793 0b86 0E0F      		add r16,r30
 1794 0b88 E1E0      		ldi r30,lo8(1)
 1795 0b8a 19A5      		ldd r17,Y+41
 1796 0b8c 0117      		cp r16,r17
 1797 0b8e 00F0      		brlo .L134
 1798 0b90 E0E0      		ldi r30,lo8(0)
 1799               	.L134:
 1800 0b92 FE2B      		or r31,r30
 1801 0b94 11E0      		ldi r17,lo8(1)
 1802 0b96 EAA5      		ldd r30,Y+42
 1803 0b98 EA17      		cp r30,r26
 1804 0b9a 00F0      		brlo .L135
 1805 0b9c 10E0      		ldi r17,lo8(0)
 1806               	.L135:
 1807 0b9e 8AA5      		ldd r24,Y+42
 1808 0ba0 8F0F      		add r24,r31
 1809 0ba2 E1E0      		ldi r30,lo8(1)
 1810 0ba4 FAA5      		ldd r31,Y+42
 1811 0ba6 8F17      		cp r24,r31
 1812 0ba8 00F0      		brlo .L136
 1813 0baa E0E0      		ldi r30,lo8(0)
 1814               	.L136:
 1815 0bac 1E2B      		or r17,r30
 1816 0bae 492D      		mov r20,r9
 1817 0bb0 5E2D      		mov r21,r14
 1818 0bb2 6F2D      		mov r22,r15
 1819 0bb4 702F      		mov r23,r16
 1820 0bb6 9BA5      		ldd r25,Y+43
 1821 0bb8 910F      		add r25,r17
 1822 0bba 8E01      		movw r16,r28
 1823 0bbc 0F5F      		subi r16,lo8(-(1))
 1824 0bbe 1F4F      		sbci r17,hi8(-(1))
 1825 0bc0 E2E0      		ldi r30,lo8(2)
 1826 0bc2 EE2E      		mov r14,r30
 1827 0bc4 F12C      		mov r15,__zero_reg__
 1828               	.L142:
 1829 0bc6 A88D      		ldd r26,Y+24
 1830 0bc8 B98D      		ldd r27,Y+25
 1831 0bca FD01      		movw r30,r26
 1832 0bcc 0995      		icall
 1833 0bce 8823      		tst r24
 1834 0bd0 01F4      		brne .L109
 1835               	.LVL74:
 1836               	.L108:
 1837               	.LM68:
 1838 0bd2 8C8D      		ldd r24,Y+28
 1839 0bd4 9D8D      		ldd r25,Y+29
 1840 0bd6 B601      		movw r22,r12
 1841 0bd8 A501      		movw r20,r10
 1842 0bda 0E94 0000 		call fat_free_clusters
 1843               	.LVL75:
 1844               	.L64:
 1845               	.LM69:
 1846 0bde AA24      		clr r10
 1847 0be0 BB24      		clr r11
 1848 0be2 6501      		movw r12,r10
 1849               	.L109:
 1850               	.LM70:
 1851 0be4 B501      		movw r22,r10
 1852               	.LVL76:
 1853 0be6 C601      		movw r24,r12
 1854               	/* epilogue start */
 1855 0be8 AD96      		adiw r28,45
 1856 0bea 0FB6      		in __tmp_reg__,__SREG__
 1857 0bec F894      		cli
 1858 0bee DEBF      		out __SP_H__,r29
 1859 0bf0 0FBE      		out __SREG__,__tmp_reg__
 1860 0bf2 CDBF      		out __SP_L__,r28
 1861 0bf4 CF91      		pop r28
 1862 0bf6 DF91      		pop r29
 1863 0bf8 1F91      		pop r17
 1864 0bfa 0F91      		pop r16
 1865 0bfc FF90      		pop r15
 1866 0bfe EF90      		pop r14
 1867 0c00 DF90      		pop r13
 1868 0c02 CF90      		pop r12
 1869 0c04 BF90      		pop r11
 1870 0c06 AF90      		pop r10
 1871 0c08 9F90      		pop r9
 1872 0c0a 8F90      		pop r8
 1873 0c0c 7F90      		pop r7
 1874 0c0e 6F90      		pop r6
 1875               	.LVL77:
 1876 0c10 5F90      		pop r5
 1877 0c12 4F90      		pop r4
 1878 0c14 3F90      		pop r3
 1879 0c16 2F90      		pop r2
 1880 0c18 0895      		ret
 1881               	.LFE6:
 1884               	fat_clear_cluster_callback:
 1885               	.LFB10:
 1886               	.LM71:
 1887               	.LVL78:
 1888               	/* prologue: function */
 1889               	/* frame size = 0 */
 1890               	.LM72:
 1891 0c1a 80E1      		ldi r24,lo8(16)
 1892 0c1c 90E0      		ldi r25,hi8(16)
 1893               	.LVL79:
 1894               	/* epilogue start */
 1895 0c1e 0895      		ret
 1896               	.LFE10:
 1898               	.global	fat_close_file
 1900               	fat_close_file:
 1901               	.LFB14:
 1902               	.LM73:
 1903               	.LVL80:
 1904               	/* prologue: function */
 1905               	/* frame size = 0 */
 1906 0c20 FC01      		movw r30,r24
 1907               	.LM74:
 1908 0c22 0097      		sbiw r24,0
 1909 0c24 01F0      		breq .L148
 1910               	.LM75:
 1911 0c26 1182      		std Z+1,__zero_reg__
 1912 0c28 1082      		st Z,__zero_reg__
 1913               	.LVL81:
 1914               	.L148:
 1915 0c2a 0895      		ret
 1916               	.LFE14:
 1918               	.global	fat_read_file
 1920               	fat_read_file:
 1921               	.LFB15:
 1922               	.LM76:
 1923               	.LVL82:
 1924 0c2c 2F92      		push r2
 1925 0c2e 3F92      		push r3
 1926 0c30 4F92      		push r4
 1927 0c32 5F92      		push r5
 1928 0c34 6F92      		push r6
 1929 0c36 7F92      		push r7
 1930 0c38 8F92      		push r8
 1931 0c3a 9F92      		push r9
 1932 0c3c AF92      		push r10
 1933 0c3e BF92      		push r11
 1934 0c40 CF92      		push r12
 1935 0c42 DF92      		push r13
 1936 0c44 EF92      		push r14
 1937 0c46 FF92      		push r15
 1938 0c48 0F93      		push r16
 1939 0c4a 1F93      		push r17
 1940 0c4c DF93      		push r29
 1941 0c4e CF93      		push r28
 1942 0c50 CDB7      		in r28,__SP_L__
 1943 0c52 DEB7      		in r29,__SP_H__
 1944 0c54 6897      		sbiw r28,24
 1945 0c56 0FB6      		in __tmp_reg__,__SREG__
 1946 0c58 F894      		cli
 1947 0c5a DEBF      		out __SP_H__,r29
 1948 0c5c 0FBE      		out __SREG__,__tmp_reg__
 1949 0c5e CDBF      		out __SP_L__,r28
 1950               	/* prologue: function */
 1951               	/* frame size = 24 */
 1952 0c60 988F      		std Y+24,r25
 1953 0c62 8F8B      		std Y+23,r24
 1954 0c64 7E87      		std Y+14,r23
 1955 0c66 6D87      		std Y+13,r22
 1956 0c68 588B      		std Y+16,r21
 1957 0c6a 4F87      		std Y+15,r20
 1958               	.LM77:
 1959 0c6c 0097      		sbiw r24,0
 1960 0c6e 01F4      		brne .+2
 1961 0c70 00C0      		rjmp .L150
 1962               	.LVL83:
 1963 0c72 672B      		or r22,r23
 1964 0c74 01F4      		brne .+2
 1965 0c76 00C0      		rjmp .L150
 1966               	.LVL84:
 1967 0c78 4115      		cp r20,__zero_reg__
 1968 0c7a 5105      		cpc r21,__zero_reg__
 1969 0c7c 01F4      		brne .+2
 1970 0c7e 00C0      		rjmp .L150
 1971               	.LVL85:
 1972               	.LM78:
 1973 0c80 DC01      		movw r26,r24
 1974 0c82 D396      		adiw r26,51
 1975 0c84 AC90      		ld r10,X
 1976 0c86 D397      		sbiw r26,51
 1977 0c88 D496      		adiw r26,52
 1978 0c8a BC90      		ld r11,X
 1979 0c8c D497      		sbiw r26,52
 1980 0c8e D596      		adiw r26,53
 1981 0c90 CC90      		ld r12,X
 1982 0c92 D597      		sbiw r26,53
 1983 0c94 D696      		adiw r26,54
 1984 0c96 DC90      		ld r13,X
 1985 0c98 D697      		sbiw r26,54
 1986 0c9a D796      		adiw r26,55
 1987 0c9c EC90      		ld r14,X
 1988 0c9e D797      		sbiw r26,55
 1989 0ca0 D896      		adiw r26,56
 1990 0ca2 FC90      		ld r15,X
 1991 0ca4 D897      		sbiw r26,56
 1992 0ca6 D996      		adiw r26,57
 1993 0ca8 0C91      		ld r16,X
 1994 0caa D997      		sbiw r26,57
 1995 0cac DA96      		adiw r26,58
 1996 0cae 1C91      		ld r17,X
 1997 0cb0 DA97      		sbiw r26,58
 1998 0cb2 9796      		adiw r26,39
 1999 0cb4 2D90      		ld r2,X+
 2000 0cb6 3D90      		ld r3,X+
 2001 0cb8 4D90      		ld r4,X+
 2002 0cba 5C90      		ld r5,X
 2003 0cbc 9A97      		sbiw r26,39+3
 2004 0cbe 9A01      		movw r18,r20
 2005 0cc0 40E0      		ldi r20,lo8(0)
 2006 0cc2 50E0      		ldi r21,hi8(0)
 2007               	.LVL86:
 2008 0cc4 60E0      		ldi r22,lo8(0)
 2009 0cc6 70E0      		ldi r23,hi8(0)
 2010 0cc8 80E0      		ldi r24,hlo8(0)
 2011 0cca 90E0      		ldi r25,hhi8(0)
 2012               	.LVL87:
 2013 0ccc B22F      		mov r27,r18
 2014               	.LVL88:
 2015 0cce BA0D      		add r27,r10
 2016 0cd0 BA8B      		std Y+18,r27
 2017 0cd2 F1E0      		ldi r31,lo8(1)
 2018 0cd4 B217      		cp r27,r18
 2019 0cd6 00F0      		brlo .L152
 2020               	.LVL89:
 2021 0cd8 F0E0      		ldi r31,lo8(0)
 2022               	.L152:
 2023 0cda E32F      		mov r30,r19
 2024 0cdc EB0D      		add r30,r11
 2025 0cde 9924      		clr r9
 2026 0ce0 9394      		inc r9
 2027 0ce2 E317      		cp r30,r19
 2028               	.LVL90:
 2029 0ce4 00F0      		brlo .L153
 2030 0ce6 9924      		clr r9
 2031               	.L153:
 2032 0ce8 FE0F      		add r31,r30
 2033 0cea F98B      		std Y+17,r31
 2034 0cec F1E0      		ldi r31,lo8(1)
 2035 0cee A989      		ldd r26,Y+17
 2036 0cf0 AE17      		cp r26,r30
 2037 0cf2 00F0      		brlo .L154
 2038 0cf4 F0E0      		ldi r31,lo8(0)
 2039               	.L154:
 2040 0cf6 9F2A      		or r9,r31
 2041 0cf8 E42F      		mov r30,r20
 2042               	.LVL91:
 2043 0cfa EC0D      		add r30,r12
 2044 0cfc B1E0      		ldi r27,lo8(1)
 2045 0cfe E417      		cp r30,r20
 2046               	.LVL92:
 2047 0d00 00F0      		brlo .L155
 2048 0d02 B0E0      		ldi r27,lo8(0)
 2049               	.L155:
 2050 0d04 692C      		mov r6,r9
 2051 0d06 6E0E      		add r6,r30
 2052 0d08 F1E0      		ldi r31,lo8(1)
 2053 0d0a 6E16      		cp r6,r30
 2054 0d0c 00F0      		brlo .L156
 2055 0d0e F0E0      		ldi r31,lo8(0)
 2056               	.L156:
 2057 0d10 BF2B      		or r27,r31
 2058 0d12 E52F      		mov r30,r21
 2059 0d14 ED0D      		add r30,r13
 2060 0d16 A1E0      		ldi r26,lo8(1)
 2061 0d18 E517      		cp r30,r21
 2062               	.LVL93:
 2063 0d1a 00F0      		brlo .L157
 2064 0d1c A0E0      		ldi r26,lo8(0)
 2065               	.L157:
 2066 0d1e 7B2E      		mov r7,r27
 2067 0d20 7E0E      		add r7,r30
 2068 0d22 F1E0      		ldi r31,lo8(1)
 2069 0d24 7E16      		cp r7,r30
 2070 0d26 00F0      		brlo .L158
 2071 0d28 F0E0      		ldi r31,lo8(0)
 2072               	.L158:
 2073 0d2a AF2B      		or r26,r31
 2074 0d2c E62F      		mov r30,r22
 2075               	.LVL94:
 2076 0d2e EE0D      		add r30,r14
 2077 0d30 B1E0      		ldi r27,lo8(1)
 2078 0d32 E617      		cp r30,r22
 2079               	.LVL95:
 2080 0d34 00F0      		brlo .L159
 2081 0d36 B0E0      		ldi r27,lo8(0)
 2082               	.L159:
 2083 0d38 8A2E      		mov r8,r26
 2084 0d3a 8E0E      		add r8,r30
 2085 0d3c F1E0      		ldi r31,lo8(1)
 2086 0d3e 8E16      		cp r8,r30
 2087 0d40 00F0      		brlo .L160
 2088 0d42 F0E0      		ldi r31,lo8(0)
 2089               	.L160:
 2090 0d44 BF2B      		or r27,r31
 2091 0d46 E72F      		mov r30,r23
 2092 0d48 EF0D      		add r30,r15
 2093 0d4a A1E0      		ldi r26,lo8(1)
 2094 0d4c E717      		cp r30,r23
 2095               	.LVL96:
 2096 0d4e 00F0      		brlo .L161
 2097 0d50 A0E0      		ldi r26,lo8(0)
 2098               	.L161:
 2099 0d52 9B2E      		mov r9,r27
 2100 0d54 9E0E      		add r9,r30
 2101 0d56 F1E0      		ldi r31,lo8(1)
 2102 0d58 9E16      		cp r9,r30
 2103 0d5a 00F0      		brlo .L162
 2104 0d5c F0E0      		ldi r31,lo8(0)
 2105               	.L162:
 2106 0d5e AF2B      		or r26,r31
 2107 0d60 E82F      		mov r30,r24
 2108               	.LVL97:
 2109 0d62 E00F      		add r30,r16
 2110 0d64 B1E0      		ldi r27,lo8(1)
 2111 0d66 E817      		cp r30,r24
 2112               	.LVL98:
 2113 0d68 00F0      		brlo .L163
 2114 0d6a B0E0      		ldi r27,lo8(0)
 2115               	.L163:
 2116 0d6c AE0F      		add r26,r30
 2117 0d6e F1E0      		ldi r31,lo8(1)
 2118 0d70 AE17      		cp r26,r30
 2119 0d72 00F0      		brlo .L164
 2120 0d74 F0E0      		ldi r31,lo8(0)
 2121               	.L164:
 2122 0d76 EB2F      		mov r30,r27
 2123 0d78 EF2B      		or r30,r31
 2124 0d7a 892F      		mov r24,r25
 2125               	.LVL99:
 2126 0d7c 810F      		add r24,r17
 2127 0d7e E80F      		add r30,r24
 2128 0d80 A201      		movw r20,r4
 2129 0d82 9101      		movw r18,r2
 2130               	.LVL100:
 2131 0d84 60E0      		ldi r22,lo8(0)
 2132 0d86 70E0      		ldi r23,hi8(0)
 2133 0d88 80E0      		ldi r24,hlo8(0)
 2134 0d8a 90E0      		ldi r25,hhi8(0)
 2135               	.LVL101:
 2136 0d8c 9E17      		cp r25,r30
 2137 0d8e 00F0      		brlo .L220
 2138 0d90 E917      		cp r30,r25
 2139 0d92 01F4      		brne .L151
 2140 0d94 8A17      		cp r24,r26
 2141 0d96 00F0      		brlo .L220
 2142 0d98 A817      		cp r26,r24
 2143 0d9a 01F4      		brne .L151
 2144 0d9c 7915      		cp r23,r9
 2145               	.LVL102:
 2146 0d9e 00F0      		brlo .L220
 2147 0da0 9716      		cp r9,r23
 2148 0da2 01F4      		brne .L151
 2149 0da4 6815      		cp r22,r8
 2150 0da6 00F0      		brlo .L220
 2151 0da8 8616      		cp r8,r22
 2152 0daa 01F4      		brne .L151
 2153 0dac 5715      		cp r21,r7
 2154               	.LVL103:
 2155 0dae 00F0      		brlo .L220
 2156 0db0 7516      		cp r7,r21
 2157 0db2 01F4      		brne .L151
 2158 0db4 4615      		cp r20,r6
 2159               	.LVL104:
 2160 0db6 00F0      		brlo .L220
 2161 0db8 6416      		cp r6,r20
 2162 0dba 01F4      		brne .L151
 2163 0dbc B989      		ldd r27,Y+17
 2164 0dbe 3B17      		cp r19,r27
 2165               	.LVL105:
 2166 0dc0 00F0      		brlo .L220
 2167 0dc2 B317      		cp r27,r19
 2168 0dc4 01F4      		brne .L151
 2169 0dc6 EA89      		ldd r30,Y+18
 2170 0dc8 2E16      		cp r2,r30
 2171 0dca 00F4      		brsh .L151
 2172               	.LVL106:
 2173               	.L220:
 2174               	.LM79:
 2175 0dcc 9101      		movw r18,r2
 2176 0dce 2A19      		sub r18,r10
 2177 0dd0 3B09      		sbc r19,r11
 2178 0dd2 388B      		std Y+16,r19
 2179 0dd4 2F87      		std Y+15,r18
 2180               	.LVL107:
 2181               	.LM80:
 2182 0dd6 232B      		or r18,r19
 2183 0dd8 01F4      		brne .+2
 2184 0dda 00C0      		rjmp .L166
 2185               	.L151:
 2186               	.LM81:
 2187 0ddc AF89      		ldd r26,Y+23
 2188 0dde B88D      		ldd r27,Y+24
 2189 0de0 ED91      		ld r30,X+
 2190 0de2 FC91      		ld r31,X
 2191 0de4 1197      		sbiw r26,1
 2192 0de6 208D      		ldd r18,Z+24
 2193 0de8 318D      		ldd r19,Z+25
 2194 0dea 3C87      		std Y+12,r19
 2195 0dec 2B87      		std Y+11,r18
 2196               	.LVL108:
 2197               	.LM82:
 2198 0dee DB96      		adiw r26,59
 2199 0df0 8D91      		ld r24,X+
 2200 0df2 9D91      		ld r25,X+
 2201 0df4 0D90      		ld __tmp_reg__,X+
 2202 0df6 BC91      		ld r27,X
 2203 0df8 A02D      		mov r26,__tmp_reg__
 2204 0dfa 8F83      		std Y+7,r24
 2205 0dfc 9887      		std Y+8,r25
 2206 0dfe A987      		std Y+9,r26
 2207 0e00 BA87      		std Y+10,r27
 2208               	.LVL109:
 2209               	.LM83:
 2210 0e02 0097      		sbiw r24,0
 2211 0e04 A105      		cpc r26,__zero_reg__
 2212 0e06 B105      		cpc r27,__zero_reg__
 2213 0e08 01F0      		breq .+2
 2214 0e0a 00C0      		rjmp .L167
 2215               	.LM84:
 2216 0e0c AF89      		ldd r26,Y+23
 2217 0e0e B88D      		ldd r27,Y+24
 2218 0e10 9396      		adiw r26,35
 2219 0e12 2D91      		ld r18,X+
 2220 0e14 3D91      		ld r19,X+
 2221 0e16 4D91      		ld r20,X+
 2222 0e18 5C91      		ld r21,X
 2223 0e1a 9697      		sbiw r26,35+3
 2224 0e1c 2F83      		std Y+7,r18
 2225 0e1e 3887      		std Y+8,r19
 2226 0e20 4987      		std Y+9,r20
 2227 0e22 5A87      		std Y+10,r21
 2228               	.LVL110:
 2229               	.LM85:
 2230 0e24 2115      		cp r18,__zero_reg__
 2231 0e26 3105      		cpc r19,__zero_reg__
 2232 0e28 4105      		cpc r20,__zero_reg__
 2233 0e2a 5105      		cpc r21,__zero_reg__
 2234 0e2c 01F4      		brne .L168
 2235               	.LM86:
 2236 0e2e 8A2D      		mov r24,r10
 2237 0e30 8B29      		or r24,r11
 2238 0e32 8C29      		or r24,r12
 2239 0e34 8D29      		or r24,r13
 2240 0e36 8E29      		or r24,r14
 2241 0e38 8F29      		or r24,r15
 2242 0e3a 802B      		or r24,r16
 2243 0e3c 812B      		or r24,r17
 2244 0e3e 01F4      		brne .+2
 2245 0e40 00C0      		rjmp .L166
 2246 0e42 00C0      		rjmp .L150
 2247               	.L168:
 2248               	.LM87:
 2249 0e44 8A2D      		mov r24,r10
 2250 0e46 8B29      		or r24,r11
 2251 0e48 8C29      		or r24,r12
 2252 0e4a 8D29      		or r24,r13
 2253 0e4c 8E29      		or r24,r14
 2254 0e4e 8F29      		or r24,r15
 2255 0e50 802B      		or r24,r16
 2256 0e52 812B      		or r24,r17
 2257 0e54 01F0      		breq .L167
 2258               	.LBB49:
 2259               	.LM88:
 2260 0e56 3501      		movw r6,r10
 2261 0e58 4601      		movw r8,r12
 2262               	.LVL111:
 2263               	.LM89:
 2264 0e5a EB85      		ldd r30,Y+11
 2265 0e5c FC85      		ldd r31,Y+12
 2266 0e5e 1F01      		movw r2,r30
 2267 0e60 4424      		clr r4
 2268 0e62 5524      		clr r5
 2269               	.LM90:
 2270 0e64 2227      		clr r18
 2271 0e66 3327      		clr r19
 2272 0e68 A901      		movw r20,r18
 2273 0e6a 2219      		sub r18,r2
 2274 0e6c 3309      		sbc r19,r3
 2275 0e6e 4409      		sbc r20,r4
 2276 0e70 5509      		sbc r21,r5
 2277 0e72 2B8B      		std Y+19,r18
 2278 0e74 3C8B      		std Y+20,r19
 2279 0e76 4D8B      		std Y+21,r20
 2280 0e78 5E8B      		std Y+22,r21
 2281 0e7a 00C0      		rjmp .L169
 2282               	.L170:
 2283               	.LM91:
 2284 0e7c AF89      		ldd r26,Y+23
 2285 0e7e B88D      		ldd r27,Y+24
 2286 0e80 8D91      		ld r24,X+
 2287 0e82 9C91      		ld r25,X
 2288 0e84 4F81      		ldd r20,Y+7
 2289 0e86 5885      		ldd r21,Y+8
 2290 0e88 6985      		ldd r22,Y+9
 2291 0e8a 7A85      		ldd r23,Y+10
 2292               	.LVL112:
 2293 0e8c 0E94 0000 		call fat_get_next_cluster
 2294               	.LVL113:
 2295 0e90 6F83      		std Y+7,r22
 2296 0e92 7887      		std Y+8,r23
 2297 0e94 8987      		std Y+9,r24
 2298 0e96 9A87      		std Y+10,r25
 2299               	.LVL114:
 2300               	.LM92:
 2301 0e98 6115      		cp r22,__zero_reg__
 2302 0e9a 7105      		cpc r23,__zero_reg__
 2303 0e9c 8105      		cpc r24,__zero_reg__
 2304 0e9e 9105      		cpc r25,__zero_reg__
 2305 0ea0 01F4      		brne .+2
 2306 0ea2 00C0      		rjmp .L150
 2307 0ea4 2B89      		ldd r18,Y+19
 2308 0ea6 3C89      		ldd r19,Y+20
 2309 0ea8 4D89      		ldd r20,Y+21
 2310 0eaa 5E89      		ldd r21,Y+22
 2311 0eac 620E      		add r6,r18
 2312 0eae 731E      		adc r7,r19
 2313 0eb0 841E      		adc r8,r20
 2314 0eb2 951E      		adc r9,r21
 2315               	.LVL115:
 2316               	.L169:
 2317               	.LM93:
 2318 0eb4 6214      		cp r6,r2
 2319 0eb6 7304      		cpc r7,r3
 2320 0eb8 8404      		cpc r8,r4
 2321 0eba 9504      		cpc r9,r5
 2322 0ebc 00F4      		brsh .L170
 2323               	.L167:
 2324               	.LBE49:
 2325               	.LM94:
 2326 0ebe 4B85      		ldd r20,Y+11
 2327 0ec0 5C85      		ldd r21,Y+12
 2328               	.LVL116:
 2329 0ec2 4150      		subi r20,lo8(-(-1))
 2330 0ec4 5040      		sbci r21,hi8(-(-1))
 2331 0ec6 5C87      		std Y+12,r21
 2332 0ec8 4B87      		std Y+11,r20
 2333               	.LVL117:
 2334 0eca 4A21      		and r20,r10
 2335 0ecc 5B21      		and r21,r11
 2336 0ece 5C83      		std Y+4,r21
 2337 0ed0 4B83      		std Y+3,r20
 2338               	.LVL118:
 2339 0ed2 8B85      		ldd r24,Y+11
 2340 0ed4 9C85      		ldd r25,Y+12
 2341 0ed6 0196      		adiw r24,1
 2342 0ed8 9C87      		std Y+12,r25
 2343 0eda 8B87      		std Y+11,r24
 2344               	.LVL119:
 2345 0edc AF85      		ldd r26,Y+15
 2346 0ede B889      		ldd r27,Y+16
 2347 0ee0 BE83      		std Y+6,r27
 2348 0ee2 AD83      		std Y+5,r26
 2349               	.LVL120:
 2350               	.L218:
 2351               	.LBB50:
 2352               	.LM95:
 2353 0ee4 EF89      		ldd r30,Y+23
 2354 0ee6 F88D      		ldd r31,Y+24
 2355 0ee8 0190      		ld __tmp_reg__,Z+
 2356 0eea F081      		ld r31,Z
 2357 0eec E02D      		mov r30,__tmp_reg__
 2358 0eee FA83      		std Y+2,r31
 2359 0ef0 E983      		std Y+1,r30
 2360               	.LBB51:
 2361               	.LBB52:
 2362               	.LM96:
 2363 0ef2 3097      		sbiw r30,0
 2364 0ef4 01F4      		brne .+2
 2365 0ef6 00C0      		rjmp .L171
 2366 0ef8 2F81      		ldd r18,Y+7
 2367 0efa 3885      		ldd r19,Y+8
 2368 0efc 4985      		ldd r20,Y+9
 2369 0efe 5A85      		ldd r21,Y+10
 2370 0f00 2230      		cpi r18,lo8(2)
 2371 0f02 3105      		cpc r19,__zero_reg__
 2372 0f04 4105      		cpc r20,__zero_reg__
 2373 0f06 5105      		cpc r21,__zero_reg__
 2374 0f08 00F4      		brsh .+2
 2375 0f0a 00C0      		rjmp .L171
 2376               	.LM97:
 2377 0f0c 2250      		subi r18,lo8(-(-2))
 2378 0f0e 3040      		sbci r19,hi8(-(-2))
 2379 0f10 4040      		sbci r20,hlo8(-(-2))
 2380 0f12 5040      		sbci r21,hhi8(-(-2))
 2381 0f14 5901      		movw r10,r18
 2382 0f16 6A01      		movw r12,r20
 2383 0f18 2E5F      		subi r18,lo8(-(2))
 2384 0f1a 3F4F      		sbci r19,hi8(-(2))
 2385 0f1c 4F4F      		sbci r20,hlo8(-(2))
 2386 0f1e 5F4F      		sbci r21,hhi8(-(2))
 2387 0f20 2F83      		std Y+7,r18
 2388 0f22 3887      		std Y+8,r19
 2389 0f24 4987      		std Y+9,r20
 2390 0f26 5A87      		std Y+10,r21
 2391               	.LVL121:
 2392 0f28 208C      		ldd r2,Z+24
 2393 0f2a 318C      		ldd r3,Z+25
 2394 0f2c 9501      		movw r18,r10
 2395 0f2e A601      		movw r20,r12
 2396               	.LVL122:
 2397 0f30 60E0      		ldi r22,lo8(0)
 2398               	.LVL123:
 2399 0f32 70E0      		ldi r23,lo8(0)
 2400               	.LVL124:
 2401 0f34 80E0      		ldi r24,lo8(0)
 2402 0f36 90E0      		ldi r25,lo8(0)
 2403               	.LVL125:
 2404 0f38 5101      		movw r10,r2
 2405 0f3a CC24      		clr r12
 2406 0f3c DD24      		clr r13
 2407 0f3e EE24      		clr r14
 2408 0f40 FF24      		clr r15
 2409 0f42 00E0      		ldi r16,lo8(0)
 2410 0f44 10E0      		ldi r17,lo8(0)
 2411 0f46 0E94 0000 		call __muldi3
 2412               	.LVL126:
 2413 0f4a E981      		ldd r30,Y+1
 2414 0f4c FA81      		ldd r31,Y+2
 2415 0f4e A28D      		ldd r26,Z+26
 2416 0f50 F38C      		ldd r15,Z+27
 2417 0f52 B48D      		ldd r27,Z+28
 2418 0f54 058D      		ldd r16,Z+29
 2419 0f56 E68C      		ldd r14,Z+30
 2420 0f58 D78C      		ldd r13,Z+31
 2421 0f5a C0A0      		ldd r12,Z+32
 2422 0f5c 11A1      		ldd r17,Z+33
 2423 0f5e A20F      		add r26,r18
 2424 0f60 F1E0      		ldi r31,lo8(1)
 2425 0f62 A217      		cp r26,r18
 2426 0f64 00F0      		brlo .L172
 2427 0f66 F0E0      		ldi r31,lo8(0)
 2428               	.L172:
 2429 0f68 232F      		mov r18,r19
 2430 0f6a 2F0D      		add r18,r15
 2431 0f6c E1E0      		ldi r30,lo8(1)
 2432 0f6e 2317      		cp r18,r19
 2433 0f70 00F0      		brlo .L173
 2434 0f72 E0E0      		ldi r30,lo8(0)
 2435               	.L173:
 2436 0f74 FF2E      		mov r15,r31
 2437 0f76 F20E      		add r15,r18
 2438 0f78 31E0      		ldi r19,lo8(1)
 2439 0f7a F216      		cp r15,r18
 2440 0f7c 00F0      		brlo .L174
 2441 0f7e 30E0      		ldi r19,lo8(0)
 2442               	.L174:
 2443 0f80 E32B      		or r30,r19
 2444 0f82 242F      		mov r18,r20
 2445 0f84 2B0F      		add r18,r27
 2446 0f86 F1E0      		ldi r31,lo8(1)
 2447 0f88 2417      		cp r18,r20
 2448 0f8a 00F0      		brlo .L175
 2449 0f8c F0E0      		ldi r31,lo8(0)
 2450               	.L175:
 2451 0f8e BE2F      		mov r27,r30
 2452 0f90 B20F      		add r27,r18
 2453 0f92 31E0      		ldi r19,lo8(1)
 2454 0f94 B217      		cp r27,r18
 2455 0f96 00F0      		brlo .L176
 2456 0f98 30E0      		ldi r19,lo8(0)
 2457               	.L176:
 2458 0f9a F32B      		or r31,r19
 2459 0f9c 252F      		mov r18,r21
 2460 0f9e 200F      		add r18,r16
 2461 0fa0 41E0      		ldi r20,lo8(1)
 2462 0fa2 2517      		cp r18,r21
 2463 0fa4 00F0      		brlo .L177
 2464 0fa6 40E0      		ldi r20,lo8(0)
 2465               	.L177:
 2466 0fa8 F20F      		add r31,r18
 2467 0faa 31E0      		ldi r19,lo8(1)
 2468 0fac F217      		cp r31,r18
 2469 0fae 00F0      		brlo .L178
 2470 0fb0 30E0      		ldi r19,lo8(0)
 2471               	.L178:
 2472 0fb2 432B      		or r20,r19
 2473 0fb4 262F      		mov r18,r22
 2474 0fb6 2E0D      		add r18,r14
 2475 0fb8 51E0      		ldi r21,lo8(1)
 2476 0fba 2617      		cp r18,r22
 2477 0fbc 00F0      		brlo .L179
 2478 0fbe 50E0      		ldi r21,lo8(0)
 2479               	.L179:
 2480 0fc0 E42F      		mov r30,r20
 2481 0fc2 E20F      		add r30,r18
 2482 0fc4 31E0      		ldi r19,lo8(1)
 2483 0fc6 E217      		cp r30,r18
 2484 0fc8 00F0      		brlo .L180
 2485 0fca 30E0      		ldi r19,lo8(0)
 2486               	.L180:
 2487 0fcc 532B      		or r21,r19
 2488 0fce 272F      		mov r18,r23
 2489 0fd0 2D0D      		add r18,r13
 2490 0fd2 41E0      		ldi r20,lo8(1)
 2491 0fd4 2717      		cp r18,r23
 2492 0fd6 00F0      		brlo .L181
 2493 0fd8 40E0      		ldi r20,lo8(0)
 2494               	.L181:
 2495 0fda 520F      		add r21,r18
 2496 0fdc 31E0      		ldi r19,lo8(1)
 2497 0fde 5217      		cp r21,r18
 2498 0fe0 00F0      		brlo .L182
 2499 0fe2 30E0      		ldi r19,lo8(0)
 2500               	.L182:
 2501 0fe4 432B      		or r20,r19
 2502 0fe6 282F      		mov r18,r24
 2503 0fe8 2C0D      		add r18,r12
 2504 0fea 31E0      		ldi r19,lo8(1)
 2505 0fec 2817      		cp r18,r24
 2506 0fee 00F0      		brlo .L183
 2507 0ff0 30E0      		ldi r19,lo8(0)
 2508               	.L183:
 2509 0ff2 420F      		add r20,r18
 2510 0ff4 81E0      		ldi r24,lo8(1)
 2511 0ff6 4217      		cp r20,r18
 2512 0ff8 00F0      		brlo .L184
 2513 0ffa 80E0      		ldi r24,lo8(0)
 2514               	.L184:
 2515 0ffc 732E      		mov r7,r19
 2516 0ffe 782A      		or r7,r24
 2517 1000 190F      		add r17,r25
 2518 1002 2A2F      		mov r18,r26
 2519 1004 9F2D      		mov r25,r15
 2520 1006 6B2F      		mov r22,r27
 2521 1008 7F2F      		mov r23,r31
 2522 100a AE2F      		mov r26,r30
 2523 100c B52F      		mov r27,r21
 2524 100e 342E      		mov r3,r20
 2525 1010 710E      		add r7,r17
 2526 1012 00C0      		rjmp .L185
 2527               	.LVL127:
 2528               	.L171:
 2529 1014 20E0      		ldi r18,lo8(0)
 2530 1016 90E0      		ldi r25,lo8(0)
 2531               	.LVL128:
 2532 1018 60E0      		ldi r22,lo8(0)
 2533               	.LVL129:
 2534 101a 70E0      		ldi r23,lo8(0)
 2535               	.LVL130:
 2536 101c A0E0      		ldi r26,lo8(0)
 2537 101e B0E0      		ldi r27,lo8(0)
 2538 1020 3324      		clr r3
 2539 1022 7724      		clr r7
 2540               	.L185:
 2541               	.LBE52:
 2542               	.LBE51:
 2543               	.LM98:
 2544 1024 8B84      		ldd r8,Y+11
 2545 1026 9C84      		ldd r9,Y+12
 2546               	.LVL131:
 2547 1028 4B81      		ldd r20,Y+3
 2548 102a 5C81      		ldd r21,Y+4
 2549               	.LVL132:
 2550 102c 841A      		sub r8,r20
 2551 102e 950A      		sbc r9,r21
 2552 1030 ED81      		ldd r30,Y+5
 2553 1032 FE81      		ldd r31,Y+6
 2554 1034 E815      		cp r30,r8
 2555 1036 F905      		cpc r31,r9
 2556 1038 00F4      		brsh .L186
 2557 103a 4F01      		movw r8,r30
 2558               	.L186:
 2559               	.LM99:
 2560 103c E981      		ldd r30,Y+1
 2561 103e FA81      		ldd r31,Y+2
 2562 1040 4080      		ld r4,Z
 2563 1042 5180      		ldd r5,Z+1
 2564 1044 4B81      		ldd r20,Y+3
 2565 1046 5C81      		ldd r21,Y+4
 2566 1048 5A01      		movw r10,r20
 2567               	.LVL133:
 2568 104a CC24      		clr r12
 2569 104c DD24      		clr r13
 2570               	.LVL134:
 2571 104e EE24      		clr r14
 2572 1050 FF24      		clr r15
 2573 1052 8701      		movw r16,r14
 2574               	.LVL135:
 2575 1054 622E      		mov r6,r18
 2576               	.LVL136:
 2577 1056 640E      		add r6,r20
 2578 1058 31E0      		ldi r19,lo8(1)
 2579               	.LVL137:
 2580 105a 6216      		cp r6,r18
 2581 105c 00F0      		brlo .L187
 2582               	.LVL138:
 2583 105e 30E0      		ldi r19,lo8(0)
 2584               	.L187:
 2585 1060 892F      		mov r24,r25
 2586 1062 8B0D      		add r24,r11
 2587               	.LVL139:
 2588 1064 41E0      		ldi r20,lo8(1)
 2589               	.LVL140:
 2590 1066 8917      		cp r24,r25
 2591 1068 00F0      		brlo .L188
 2592 106a 40E0      		ldi r20,lo8(0)
 2593               	.L188:
 2594 106c 380F      		add r19,r24
 2595 106e 91E0      		ldi r25,lo8(1)
 2596 1070 3817      		cp r19,r24
 2597 1072 00F0      		brlo .L189
 2598 1074 90E0      		ldi r25,lo8(0)
 2599               	.L189:
 2600 1076 492B      		or r20,r25
 2601 1078 862F      		mov r24,r22
 2602 107a 8C0D      		add r24,r12
 2603 107c 51E0      		ldi r21,lo8(1)
 2604               	.LVL141:
 2605 107e 8617      		cp r24,r22
 2606 1080 00F0      		brlo .L190
 2607 1082 50E0      		ldi r21,lo8(0)
 2608               	.L190:
 2609 1084 480F      		add r20,r24
 2610 1086 91E0      		ldi r25,lo8(1)
 2611 1088 4817      		cp r20,r24
 2612 108a 00F0      		brlo .L191
 2613 108c 90E0      		ldi r25,lo8(0)
 2614               	.L191:
 2615 108e 592B      		or r21,r25
 2616 1090 872F      		mov r24,r23
 2617 1092 8D0D      		add r24,r13
 2618               	.LVL142:
 2619 1094 61E0      		ldi r22,lo8(1)
 2620 1096 8717      		cp r24,r23
 2621 1098 00F0      		brlo .L192
 2622 109a 60E0      		ldi r22,lo8(0)
 2623               	.L192:
 2624 109c 580F      		add r21,r24
 2625 109e 91E0      		ldi r25,lo8(1)
 2626 10a0 5817      		cp r21,r24
 2627 10a2 00F0      		brlo .L193
 2628 10a4 90E0      		ldi r25,lo8(0)
 2629               	.L193:
 2630 10a6 692B      		or r22,r25
 2631 10a8 8A2F      		mov r24,r26
 2632 10aa 8E0D      		add r24,r14
 2633 10ac 71E0      		ldi r23,lo8(1)
 2634 10ae 8A17      		cp r24,r26
 2635 10b0 00F0      		brlo .L194
 2636 10b2 70E0      		ldi r23,lo8(0)
 2637               	.L194:
 2638 10b4 680F      		add r22,r24
 2639 10b6 91E0      		ldi r25,lo8(1)
 2640 10b8 6817      		cp r22,r24
 2641 10ba 00F0      		brlo .L195
 2642 10bc 90E0      		ldi r25,lo8(0)
 2643               	.L195:
 2644 10be 792B      		or r23,r25
 2645 10c0 9B2F      		mov r25,r27
 2646 10c2 9F0D      		add r25,r15
 2647               	.LVL143:
 2648 10c4 81E0      		ldi r24,lo8(1)
 2649 10c6 9B17      		cp r25,r27
 2650 10c8 00F0      		brlo .L196
 2651 10ca 80E0      		ldi r24,lo8(0)
 2652               	.L196:
 2653 10cc 790F      		add r23,r25
 2654 10ce A1E0      		ldi r26,lo8(1)
 2655 10d0 7917      		cp r23,r25
 2656 10d2 00F0      		brlo .L197
 2657 10d4 A0E0      		ldi r26,lo8(0)
 2658               	.L197:
 2659 10d6 8A2B      		or r24,r26
 2660 10d8 A32D      		mov r26,r3
 2661 10da A00F      		add r26,r16
 2662               	.LVL144:
 2663 10dc 91E0      		ldi r25,lo8(1)
 2664 10de A315      		cp r26,r3
 2665 10e0 00F0      		brlo .L198
 2666 10e2 90E0      		ldi r25,lo8(0)
 2667               	.L198:
 2668 10e4 8A0F      		add r24,r26
 2669 10e6 B1E0      		ldi r27,lo8(1)
 2670 10e8 8A17      		cp r24,r26
 2671 10ea 00F0      		brlo .L199
 2672 10ec B0E0      		ldi r27,lo8(0)
 2673               	.L199:
 2674 10ee 9B2B      		or r25,r27
 2675 10f0 710E      		add r7,r17
 2676               	.LVL145:
 2677 10f2 D201      		movw r26,r4
 2678 10f4 ED91      		ld r30,X+
 2679 10f6 FC91      		ld r31,X
 2680 10f8 262D      		mov r18,r6
 2681 10fa 970D      		add r25,r7
 2682 10fc 0D85      		ldd r16,Y+13
 2683 10fe 1E85      		ldd r17,Y+14
 2684               	.LVL146:
 2685 1100 7401      		movw r14,r8
 2686               	.LVL147:
 2687 1102 0995      		icall
 2688 1104 8823      		tst r24
 2689 1106 01F4      		brne .+2
 2690 1108 00C0      		rjmp .L221
 2691               	.L200:
 2692               	.LM100:
 2693 110a 2D81      		ldd r18,Y+5
 2694 110c 3E81      		ldd r19,Y+6
 2695 110e 2819      		sub r18,r8
 2696 1110 3909      		sbc r19,r9
 2697 1112 3E83      		std Y+6,r19
 2698 1114 2D83      		std Y+5,r18
 2699               	.LVL148:
 2700               	.LM101:
 2701 1116 9401      		movw r18,r8
 2702 1118 40E0      		ldi r20,lo8(0)
 2703 111a 50E0      		ldi r21,hi8(0)
 2704               	.LVL149:
 2705 111c 60E0      		ldi r22,lo8(0)
 2706 111e 70E0      		ldi r23,hi8(0)
 2707 1120 80E0      		ldi r24,hlo8(0)
 2708 1122 90E0      		ldi r25,hhi8(0)
 2709               	.LVL150:
 2710 1124 AF89      		ldd r26,Y+23
 2711 1126 B88D      		ldd r27,Y+24
 2712 1128 D396      		adiw r26,51
 2713 112a 1C91      		ld r17,X
 2714 112c D397      		sbiw r26,51
 2715               	.LVL151:
 2716 112e D496      		adiw r26,52
 2717 1130 DC90      		ld r13,X
 2718 1132 D497      		sbiw r26,52
 2719               	.LVL152:
 2720 1134 D596      		adiw r26,53
 2721 1136 BC91      		ld r27,X
 2722 1138 EF89      		ldd r30,Y+23
 2723 113a F88D      		ldd r31,Y+24
 2724 113c 06A9      		ldd r16,Z+54
 2725 113e E7A8      		ldd r14,Z+55
 2726 1140 A0AC      		ldd r10,Z+56
 2727               	.LVL153:
 2728 1142 71AC      		ldd r7,Z+57
 2729 1144 F2AC      		ldd r15,Z+58
 2730               	.LVL154:
 2731 1146 180D      		add r17,r8
 2732 1148 F1E0      		ldi r31,lo8(1)
 2733 114a 1815      		cp r17,r8
 2734 114c 00F0      		brlo .L202
 2735 114e F0E0      		ldi r31,lo8(0)
 2736               	.L202:
 2737 1150 ED2D      		mov r30,r13
 2738 1152 E30F      		add r30,r19
 2739               	.LVL155:
 2740 1154 A1E0      		ldi r26,lo8(1)
 2741 1156 E317      		cp r30,r19
 2742 1158 00F0      		brlo .L203
 2743 115a A0E0      		ldi r26,lo8(0)
 2744               	.L203:
 2745 115c BF2E      		mov r11,r31
 2746               	.LVL156:
 2747 115e BE0E      		add r11,r30
 2748 1160 F1E0      		ldi r31,lo8(1)
 2749 1162 BE16      		cp r11,r30
 2750 1164 00F0      		brlo .L204
 2751 1166 F0E0      		ldi r31,lo8(0)
 2752               	.L204:
 2753 1168 AF2B      		or r26,r31
 2754 116a E42F      		mov r30,r20
 2755               	.LVL157:
 2756 116c EB0F      		add r30,r27
 2757 116e B1E0      		ldi r27,lo8(1)
 2758 1170 E417      		cp r30,r20
 2759               	.LVL158:
 2760 1172 00F0      		brlo .L205
 2761 1174 B0E0      		ldi r27,lo8(0)
 2762               	.L205:
 2763 1176 CA2E      		mov r12,r26
 2764               	.LVL159:
 2765 1178 CE0E      		add r12,r30
 2766 117a F1E0      		ldi r31,lo8(1)
 2767 117c CE16      		cp r12,r30
 2768 117e 00F0      		brlo .L206
 2769 1180 F0E0      		ldi r31,lo8(0)
 2770               	.L206:
 2771 1182 BF2B      		or r27,r31
 2772 1184 E52F      		mov r30,r21
 2773 1186 E00F      		add r30,r16
 2774 1188 A1E0      		ldi r26,lo8(1)
 2775 118a E517      		cp r30,r21
 2776               	.LVL160:
 2777 118c 00F0      		brlo .L207
 2778 118e A0E0      		ldi r26,lo8(0)
 2779               	.L207:
 2780 1190 DB2E      		mov r13,r27
 2781 1192 DE0E      		add r13,r30
 2782 1194 F1E0      		ldi r31,lo8(1)
 2783 1196 DE16      		cp r13,r30
 2784 1198 00F0      		brlo .L208
 2785 119a F0E0      		ldi r31,lo8(0)
 2786               	.L208:
 2787 119c AF2B      		or r26,r31
 2788 119e E62F      		mov r30,r22
 2789               	.LVL161:
 2790 11a0 EE0D      		add r30,r14
 2791 11a2 B1E0      		ldi r27,lo8(1)
 2792 11a4 E617      		cp r30,r22
 2793               	.LVL162:
 2794 11a6 00F0      		brlo .L209
 2795 11a8 B0E0      		ldi r27,lo8(0)
 2796               	.L209:
 2797 11aa EA2E      		mov r14,r26
 2798 11ac EE0E      		add r14,r30
 2799 11ae F1E0      		ldi r31,lo8(1)
 2800 11b0 EE16      		cp r14,r30
 2801 11b2 00F0      		brlo .L210
 2802 11b4 F0E0      		ldi r31,lo8(0)
 2803               	.L210:
 2804 11b6 BF2B      		or r27,r31
 2805 11b8 E72F      		mov r30,r23
 2806 11ba EA0D      		add r30,r10
 2807 11bc A1E0      		ldi r26,lo8(1)
 2808 11be E717      		cp r30,r23
 2809               	.LVL163:
 2810 11c0 00F0      		brlo .L211
 2811 11c2 A0E0      		ldi r26,lo8(0)
 2812               	.L211:
 2813 11c4 0B2F      		mov r16,r27
 2814 11c6 0E0F      		add r16,r30
 2815 11c8 F1E0      		ldi r31,lo8(1)
 2816 11ca 0E17      		cp r16,r30
 2817 11cc 00F0      		brlo .L212
 2818 11ce F0E0      		ldi r31,lo8(0)
 2819               	.L212:
 2820 11d0 AF2B      		or r26,r31
 2821 11d2 E82F      		mov r30,r24
 2822 11d4 E70D      		add r30,r7
 2823 11d6 F1E0      		ldi r31,lo8(1)
 2824 11d8 E817      		cp r30,r24
 2825               	.LVL164:
 2826 11da 00F0      		brlo .L213
 2827 11dc F0E0      		ldi r31,lo8(0)
 2828               	.L213:
 2829 11de AA2E      		mov r10,r26
 2830 11e0 AE0E      		add r10,r30
 2831 11e2 A1E0      		ldi r26,lo8(1)
 2832 11e4 AE16      		cp r10,r30
 2833 11e6 00F0      		brlo .L214
 2834 11e8 A0E0      		ldi r26,lo8(0)
 2835               	.L214:
 2836 11ea FA2B      		or r31,r26
 2837 11ec F90E      		add r15,r25
 2838               	.LVL165:
 2839 11ee FF0D      		add r31,r15
 2840 11f0 AF89      		ldd r26,Y+23
 2841 11f2 B88D      		ldd r27,Y+24
 2842 11f4 D396      		adiw r26,51
 2843 11f6 1C93      		st X,r17
 2844 11f8 D397      		sbiw r26,51
 2845 11fa D496      		adiw r26,52
 2846 11fc BC92      		st X,r11
 2847 11fe D497      		sbiw r26,52
 2848 1200 D596      		adiw r26,53
 2849 1202 CC92      		st X,r12
 2850 1204 D597      		sbiw r26,53
 2851 1206 D696      		adiw r26,54
 2852 1208 DC92      		st X,r13
 2853 120a D697      		sbiw r26,54
 2854 120c D796      		adiw r26,55
 2855 120e EC92      		st X,r14
 2856 1210 D797      		sbiw r26,55
 2857 1212 D896      		adiw r26,56
 2858 1214 0C93      		st X,r16
 2859 1216 D897      		sbiw r26,56
 2860 1218 D996      		adiw r26,57
 2861 121a AC92      		st X,r10
 2862 121c D997      		sbiw r26,57
 2863 121e DA96      		adiw r26,58
 2864 1220 FC93      		st X,r31
 2865 1222 DA97      		sbiw r26,58
 2866               	.LM102:
 2867 1224 8B81      		ldd r24,Y+3
 2868 1226 9C81      		ldd r25,Y+4
 2869               	.LVL166:
 2870 1228 880D      		add r24,r8
 2871 122a 991D      		adc r25,r9
 2872 122c EB85      		ldd r30,Y+11
 2873 122e FC85      		ldd r31,Y+12
 2874 1230 8E17      		cp r24,r30
 2875 1232 9F07      		cpc r25,r31
 2876 1234 00F0      		brlo .L215
 2877               	.LM103:
 2878 1236 8D91      		ld r24,X+
 2879 1238 9C91      		ld r25,X
 2880 123a 4F81      		ldd r20,Y+7
 2881 123c 5885      		ldd r21,Y+8
 2882 123e 6985      		ldd r22,Y+9
 2883 1240 7A85      		ldd r23,Y+10
 2884               	.LVL167:
 2885 1242 0E94 0000 		call fat_get_next_cluster
 2886               	.LVL168:
 2887 1246 6F83      		std Y+7,r22
 2888 1248 7887      		std Y+8,r23
 2889 124a 8987      		std Y+9,r24
 2890 124c 9A87      		std Y+10,r25
 2891               	.LVL169:
 2892 124e 6115      		cp r22,__zero_reg__
 2893 1250 7105      		cpc r23,__zero_reg__
 2894 1252 8105      		cpc r24,__zero_reg__
 2895 1254 9105      		cpc r25,__zero_reg__
 2896 1256 01F4      		brne .L216
 2897               	.LM104:
 2898 1258 AF89      		ldd r26,Y+23
 2899 125a B88D      		ldd r27,Y+24
 2900 125c DB96      		adiw r26,59
 2901 125e 1D92      		st X+,__zero_reg__
 2902 1260 1D92      		st X+,__zero_reg__
 2903 1262 1D92      		st X+,__zero_reg__
 2904 1264 1C92      		st X,__zero_reg__
 2905 1266 DE97      		sbiw r26,59+3
 2906               	.LVL170:
 2907               	.L221:
 2908               	.LM105:
 2909 1268 4F85      		ldd r20,Y+15
 2910 126a 5889      		ldd r21,Y+16
 2911 126c ED81      		ldd r30,Y+5
 2912 126e FE81      		ldd r31,Y+6
 2913 1270 4E1B      		sub r20,r30
 2914 1272 5F0B      		sbc r21,r31
 2915 1274 00C0      		rjmp .L201
 2916               	.LVL171:
 2917               	.L216:
 2918 1276 1C82      		std Y+4,__zero_reg__
 2919 1278 1B82      		std Y+3,__zero_reg__
 2920               	.LVL172:
 2921               	.L215:
 2922               	.LM106:
 2923 127a 2F81      		ldd r18,Y+7
 2924 127c 3885      		ldd r19,Y+8
 2925 127e 4985      		ldd r20,Y+9
 2926 1280 5A85      		ldd r21,Y+10
 2927 1282 AF89      		ldd r26,Y+23
 2928 1284 B88D      		ldd r27,Y+24
 2929 1286 DB96      		adiw r26,59
 2930 1288 2D93      		st X+,r18
 2931 128a 3D93      		st X+,r19
 2932 128c 4D93      		st X+,r20
 2933 128e 5C93      		st X,r21
 2934 1290 DE97      		sbiw r26,59+3
 2935               	.LBE50:
 2936               	.LM107:
 2937 1292 ED81      		ldd r30,Y+5
 2938 1294 FE81      		ldd r31,Y+6
 2939 1296 EF2B      		or r30,r31
 2940 1298 01F0      		breq .L217
 2941               	.LBB53:
 2942               	.LM108:
 2943 129a 2D85      		ldd r18,Y+13
 2944 129c 3E85      		ldd r19,Y+14
 2945 129e 280D      		add r18,r8
 2946 12a0 391D      		adc r19,r9
 2947 12a2 3E87      		std Y+14,r19
 2948 12a4 2D87      		std Y+13,r18
 2949               	.LVL173:
 2950 12a6 00C0      		rjmp .L218
 2951               	.L217:
 2952               	.LBE53:
 2953               	.LM109:
 2954 12a8 4F85      		ldd r20,Y+15
 2955 12aa 5889      		ldd r21,Y+16
 2956               	.LVL174:
 2957 12ac 00C0      		rjmp .L201
 2958               	.LVL175:
 2959               	.L150:
 2960 12ae 4FEF      		ldi r20,lo8(-1)
 2961 12b0 5FEF      		ldi r21,hi8(-1)
 2962               	.LVL176:
 2963 12b2 00C0      		rjmp .L201
 2964               	.LVL177:
 2965               	.L166:
 2966 12b4 40E0      		ldi r20,lo8(0)
 2967 12b6 50E0      		ldi r21,hi8(0)
 2968               	.LVL178:
 2969               	.L201:
 2970               	.LM110:
 2971 12b8 CA01      		movw r24,r20
 2972               	/* epilogue start */
 2973 12ba 6896      		adiw r28,24
 2974 12bc 0FB6      		in __tmp_reg__,__SREG__
 2975 12be F894      		cli
 2976 12c0 DEBF      		out __SP_H__,r29
 2977 12c2 0FBE      		out __SREG__,__tmp_reg__
 2978 12c4 CDBF      		out __SP_L__,r28
 2979 12c6 CF91      		pop r28
 2980 12c8 DF91      		pop r29
 2981 12ca 1F91      		pop r17
 2982               	.LVL179:
 2983 12cc 0F91      		pop r16
 2984 12ce FF90      		pop r15
 2985               	.LVL180:
 2986 12d0 EF90      		pop r14
 2987 12d2 DF90      		pop r13
 2988               	.LVL181:
 2989 12d4 CF90      		pop r12
 2990               	.LVL182:
 2991 12d6 BF90      		pop r11
 2992               	.LVL183:
 2993 12d8 AF90      		pop r10
 2994 12da 9F90      		pop r9
 2995 12dc 8F90      		pop r8
 2996               	.LVL184:
 2997 12de 7F90      		pop r7
 2998 12e0 6F90      		pop r6
 2999               	.LVL185:
 3000 12e2 5F90      		pop r5
 3001 12e4 4F90      		pop r4
 3002 12e6 3F90      		pop r3
 3003 12e8 2F90      		pop r2
 3004 12ea 0895      		ret
 3005               	.LFE15:
 3007               	.global	fat_close_dir
 3009               	fat_close_dir:
 3010               	.LFB20:
 3011               	.LM111:
 3012               	.LVL186:
 3013               	/* prologue: function */
 3014               	/* frame size = 0 */
 3015 12ec FC01      		movw r30,r24
 3016               	.LM112:
 3017 12ee 0097      		sbiw r24,0
 3018 12f0 01F0      		breq .L224
 3019               	.LM113:
 3020 12f2 1182      		std Z+1,__zero_reg__
 3021 12f4 1082      		st Z,__zero_reg__
 3022               	.LVL187:
 3023               	.L224:
 3024 12f6 0895      		ret
 3025               	.LFE20:
 3027               	.global	fat_reset_dir
 3029               	fat_reset_dir:
 3030               	.LFB22:
 3031               	.LM114:
 3032               	.LVL188:
 3033               	/* prologue: function */
 3034               	/* frame size = 0 */
 3035 12f8 FC01      		movw r30,r24
 3036               	.LM115:
 3037 12fa 0097      		sbiw r24,0
 3038 12fc 01F4      		brne .L226
 3039 12fe 80E0      		ldi r24,lo8(0)
 3040               	.LVL189:
 3041 1300 0895      		ret
 3042               	.LVL190:
 3043               	.L226:
 3044               	.LM116:
 3045 1302 83A1      		ldd r24,Z+35
 3046 1304 94A1      		ldd r25,Z+36
 3047 1306 A5A1      		ldd r26,Z+37
 3048 1308 B6A1      		ldd r27,Z+38
 3049               	.LVL191:
 3050 130a 83AB      		std Z+51,r24
 3051 130c 94AB      		std Z+52,r25
 3052 130e A5AB      		std Z+53,r26
 3053 1310 B6AB      		std Z+54,r27
 3054               	.LM117:
 3055 1312 10AE      		std Z+56,__zero_reg__
 3056 1314 17AA      		std Z+55,__zero_reg__
 3057 1316 81E0      		ldi r24,lo8(1)
 3058               	.LM118:
 3059 1318 0895      		ret
 3060               	.LFE22:
 3063               	fat_dir_entry_read_callback:
 3064               	.LFB23:
 3065               	.LM119:
 3066               	.LVL192:
 3067 131a CF92      		push r12
 3068 131c DF92      		push r13
 3069 131e EF92      		push r14
 3070               	.LVL193:
 3071 1320 FF92      		push r15
 3072 1322 0F93      		push r16
 3073               	.LVL194:
 3074 1324 1F93      		push r17
 3075 1326 CF93      		push r28
 3076 1328 DF93      		push r29
 3077               	/* prologue: function */
 3078               	/* frame size = 0 */
 3079 132a 6C01      		movw r12,r24
 3080 132c FB01      		movw r30,r22
 3081               	.LM120:
 3082 132e B701      		movw r22,r14
 3083               	.LM121:
 3084 1330 D701      		movw r26,r14
 3085               	.LVL195:
 3086 1332 CD91      		ld r28,X+
 3087 1334 DC91      		ld r29,X
 3088 1336 1197      		sbiw r26,1
 3089               	.LVL196:
 3090               	.LM122:
 3091 1338 1296      		adiw r26,2
 3092 133a 8D91      		ld r24,X+
 3093 133c 9C91      		ld r25,X
 3094 133e 1397      		sbiw r26,2+1
 3095               	.LVL197:
 3096 1340 8096      		adiw r24,32
 3097 1342 1396      		adiw r26,2+1
 3098 1344 9C93      		st X,r25
 3099 1346 8E93      		st -X,r24
 3100 1348 1297      		sbiw r26,2
 3101               	.LM123:
 3102 134a D601      		movw r26,r12
 3103 134c 8C91      		ld r24,X
 3104 134e 853E      		cpi r24,lo8(-27)
 3105 1350 01F4      		brne .+2
 3106 1352 00C0      		rjmp .L230
 3107 1354 8823      		tst r24
 3108 1356 01F4      		brne .+2
 3109 1358 00C0      		rjmp .L230
 3110               	.LM124:
 3111 135a 89A5      		ldd r24,Y+41
 3112 135c 9AA5      		ldd r25,Y+42
 3113 135e 892B      		or r24,r25
 3114 1360 9BA5      		ldd r25,Y+43
 3115 1362 892B      		or r24,r25
 3116 1364 9CA5      		ldd r25,Y+44
 3117 1366 892B      		or r24,r25
 3118 1368 9DA5      		ldd r25,Y+45
 3119 136a 892B      		or r24,r25
 3120 136c 9EA5      		ldd r25,Y+46
 3121 136e 892B      		or r24,r25
 3122 1370 9FA5      		ldd r25,Y+47
 3123 1372 892B      		or r24,r25
 3124 1374 98A9      		ldd r25,Y+48
 3125 1376 892B      		or r24,r25
 3126 1378 01F4      		brne .L231
 3127               	.LM125:
 3128 137a 09A7      		std Y+41,r16
 3129               	.LVL198:
 3130 137c 1AA7      		std Y+42,r17
 3131               	.LVL199:
 3132 137e 2BA7      		std Y+43,r18
 3133               	.LVL200:
 3134 1380 3CA7      		std Y+44,r19
 3135               	.LVL201:
 3136 1382 4DA7      		std Y+45,r20
 3137               	.LVL202:
 3138 1384 5EA7      		std Y+46,r21
 3139               	.LVL203:
 3140 1386 EFA7      		std Y+47,r30
 3141               	.LVL204:
 3142 1388 F8AB      		std Y+48,r31
 3143               	.LVL205:
 3144               	.L231:
 3145               	.LBB54:
 3146               	.LBB55:
 3147               	.LM126:
 3148 138a 2097      		sbiw r28,0
 3149 138c 01F4      		brne .+2
 3150 138e 00C0      		rjmp .L232
 3151 1390 C114      		cp r12,__zero_reg__
 3152 1392 D104      		cpc r13,__zero_reg__
 3153 1394 01F4      		brne .+2
 3154 1396 00C0      		rjmp .L232
 3155 1398 F601      		movw r30,r12
 3156               	.LVL206:
 3157 139a 9081      		ld r25,Z
 3158 139c 9923      		tst r25
 3159 139e 01F4      		brne .+2
 3160 13a0 00C0      		rjmp .L232
 3161               	.LM127:
 3162 13a2 8385      		ldd r24,Z+11
 3163 13a4 8F30      		cpi r24,lo8(15)
 3164 13a6 01F4      		brne .L233
 3165               	.LBB56:
 3166               	.LM128:
 3167 13a8 892F      		mov r24,r25
 3168 13aa 90E0      		ldi r25,lo8(0)
 3169 13ac 8F73      		andi r24,lo8(63)
 3170 13ae 9070      		andi r25,hi8(63)
 3171 13b0 2DE0      		ldi r18,lo8(13)
 3172 13b2 30E0      		ldi r19,hi8(13)
 3173               	.LVL207:
 3174 13b4 829F      		mul r24,r18
 3175 13b6 A001      		movw r20,r0
 3176 13b8 839F      		mul r24,r19
 3177 13ba 500D      		add r21,r0
 3178 13bc 929F      		mul r25,r18
 3179 13be 500D      		add r21,r0
 3180 13c0 1124      		clr r1
 3181               	.LVL208:
 3182 13c2 4D50      		subi r20,lo8(-(-13))
 3183 13c4 5040      		sbci r21,hi8(-(-13))
 3184 13c6 A0E0      		ldi r26,lo8(char_mapping.2084)
 3185 13c8 B0E0      		ldi r27,hi8(char_mapping.2084)
 3186 13ca C40F      		add r28,r20
 3187 13cc D51F      		adc r29,r21
 3188               	.LVL209:
 3189 13ce 00C0      		rjmp .L234
 3190               	.L235:
 3191               	.LBB57:
 3192               	.LM129:
 3193 13d0 8D91      		ld r24,X+
 3194 13d2 F601      		movw r30,r12
 3195 13d4 E80F      		add r30,r24
 3196 13d6 F11D      		adc r31,__zero_reg__
 3197 13d8 8081      		ld r24,Z
 3198 13da 8993      		st Y+,r24
 3199 13dc 4F5F      		subi r20,lo8(-(1))
 3200 13de 5F4F      		sbci r21,hi8(-(1))
 3201               	.LM130:
 3202 13e0 F0E0      		ldi r31,hi8(char_mapping.2084+13)
 3203 13e2 A030      		cpi r26,lo8(char_mapping.2084+13)
 3204 13e4 BF07      		cpc r27,r31
 3205               	.LVL210:
 3206 13e6 01F4      		brne .+2
 3207 13e8 00C0      		rjmp .L230
 3208               	.LVL211:
 3209               	.L234:
 3210 13ea 4F31      		cpi r20,31
 3211 13ec 5105      		cpc r21,__zero_reg__
 3212 13ee 00F0      		brlo .L235
 3213 13f0 00C0      		rjmp .L230
 3214               	.LVL212:
 3215               	.L233:
 3216               	.LBE57:
 3217               	.LBE56:
 3218               	.LM131:
 3219 13f2 8881      		ld r24,Y
 3220 13f4 8823      		tst r24
 3221 13f6 01F0      		breq .+2
 3222 13f8 00C0      		rjmp .L236
 3223 13fa A601      		movw r20,r12
 3224               	.LVL213:
 3225 13fc DE01      		movw r26,r28
 3226 13fe 8601      		movw r16,r12
 3227               	.LVL214:
 3228 1400 20E0      		ldi r18,lo8(0)
 3229               	.LVL215:
 3230               	.L239:
 3231               	.LBB58:
 3232               	.LM132:
 3233 1402 F801      		movw r30,r16
 3234 1404 9081      		ld r25,Z
 3235 1406 9032      		cpi r25,lo8(32)
 3236 1408 01F0      		breq .L237
 3237               	.LM133:
 3238 140a 9C93      		st X,r25
 3239               	.LM134:
 3240 140c F601      		movw r30,r12
 3241 140e 8485      		ldd r24,Z+12
 3242 1410 83FF      		sbrs r24,3
 3243 1412 00C0      		rjmp .L238
 3244 1414 F801      		movw r30,r16
 3245 1416 8081      		ld r24,Z
 3246 1418 8134      		cpi r24,lo8(65)
 3247 141a 00F0      		brlo .L238
 3248 141c 8B35      		cpi r24,lo8(91)
 3249 141e 00F4      		brsh .L238
 3250               	.LM135:
 3251 1420 905E      		subi r25,lo8(-(32))
 3252 1422 9C93      		st X,r25
 3253               	.L238:
 3254               	.LM136:
 3255 1424 2F5F      		subi r18,lo8(-(1))
 3256 1426 0F5F      		subi r16,lo8(-(1))
 3257 1428 1F4F      		sbci r17,hi8(-(1))
 3258 142a 1196      		adiw r26,1
 3259 142c 2830      		cpi r18,lo8(8)
 3260 142e 01F4      		brne .L239
 3261               	.L237:
 3262               	.LM137:
 3263 1430 8881      		ld r24,Y
 3264 1432 8530      		cpi r24,lo8(5)
 3265 1434 01F4      		brne .L240
 3266               	.LM138:
 3267 1436 85EE      		ldi r24,lo8(-27)
 3268 1438 8883      		st Y,r24
 3269               	.L240:
 3270               	.LM139:
 3271 143a D601      		movw r26,r12
 3272 143c 1896      		adiw r26,8
 3273 143e 8C91      		ld r24,X
 3274 1440 8032      		cpi r24,lo8(32)
 3275 1442 01F0      		breq .L241
 3276               	.LBB59:
 3277               	.LM140:
 3278 1444 FE01      		movw r30,r28
 3279 1446 E20F      		add r30,r18
 3280 1448 F11D      		adc r31,__zero_reg__
 3281 144a 8EE2      		ldi r24,lo8(46)
 3282 144c 8083      		st Z,r24
 3283 144e 322F      		mov r19,r18
 3284               	.LVL216:
 3285 1450 3F5F      		subi r19,lo8(-(1))
 3286               	.LVL217:
 3287               	.LM141:
 3288 1452 2C5F      		subi r18,lo8(-(4))
 3289               	.L244:
 3290               	.LM142:
 3291 1454 FA01      		movw r30,r20
 3292 1456 9085      		ldd r25,Z+8
 3293 1458 9032      		cpi r25,lo8(32)
 3294 145a 01F0      		breq .L242
 3295               	.LM143:
 3296 145c FE01      		movw r30,r28
 3297 145e E30F      		add r30,r19
 3298 1460 F11D      		adc r31,__zero_reg__
 3299 1462 9083      		st Z,r25
 3300               	.LM144:
 3301 1464 D601      		movw r26,r12
 3302 1466 1C96      		adiw r26,12
 3303 1468 8C91      		ld r24,X
 3304 146a 84FF      		sbrs r24,4
 3305 146c 00C0      		rjmp .L243
 3306 146e DA01      		movw r26,r20
 3307 1470 1896      		adiw r26,8
 3308 1472 8C91      		ld r24,X
 3309 1474 8134      		cpi r24,lo8(65)
 3310 1476 00F0      		brlo .L243
 3311 1478 8B35      		cpi r24,lo8(91)
 3312 147a 00F4      		brsh .L243
 3313               	.LM145:
 3314 147c 905E      		subi r25,lo8(-(32))
 3315 147e 9083      		st Z,r25
 3316               	.L243:
 3317               	.LM146:
 3318 1480 3F5F      		subi r19,lo8(-(1))
 3319 1482 4F5F      		subi r20,lo8(-(1))
 3320 1484 5F4F      		sbci r21,hi8(-(1))
 3321               	.LM147:
 3322 1486 3217      		cp r19,r18
 3323 1488 01F4      		brne .L244
 3324               	.L242:
 3325 148a 232F      		mov r18,r19
 3326               	.LVL218:
 3327               	.L241:
 3328               	.LBE59:
 3329               	.LM148:
 3330 148c FE01      		movw r30,r28
 3331 148e E20F      		add r30,r18
 3332 1490 F11D      		adc r31,__zero_reg__
 3333 1492 1082      		st Z,__zero_reg__
 3334               	.LVL219:
 3335               	.L236:
 3336               	.LBE58:
 3337               	.LM149:
 3338 1494 F601      		movw r30,r12
 3339 1496 8385      		ldd r24,Z+11
 3340 1498 88A3      		std Y+32,r24
 3341               	.LM150:
 3342 149a 228D      		ldd r18,Z+26
 3343 149c 338D      		ldd r19,Z+27
 3344               	.LVL220:
 3345 149e 40E0      		ldi r20,lo8(0)
 3346 14a0 50E0      		ldi r21,hi8(0)
 3347               	.LVL221:
 3348               	.LM151:
 3349 14a2 8489      		ldd r24,Z+20
 3350 14a4 9589      		ldd r25,Z+21
 3351 14a6 A0E0      		ldi r26,lo8(0)
 3352 14a8 B0E0      		ldi r27,hi8(0)
 3353 14aa DC01      		movw r26,r24
 3354 14ac 9927      		clr r25
 3355 14ae 8827      		clr r24
 3356               	.LVL222:
 3357 14b0 822B      		or r24,r18
 3358 14b2 932B      		or r25,r19
 3359 14b4 A42B      		or r26,r20
 3360 14b6 B52B      		or r27,r21
 3361 14b8 89A3      		std Y+33,r24
 3362 14ba 9AA3      		std Y+34,r25
 3363 14bc ABA3      		std Y+35,r26
 3364 14be BCA3      		std Y+36,r27
 3365               	.LM152:
 3366 14c0 848D      		ldd r24,Z+28
 3367 14c2 958D      		ldd r25,Z+29
 3368 14c4 A68D      		ldd r26,Z+30
 3369 14c6 B78D      		ldd r27,Z+31
 3370 14c8 8DA3      		std Y+37,r24
 3371 14ca 9EA3      		std Y+38,r25
 3372 14cc AFA3      		std Y+39,r26
 3373 14ce B8A7      		std Y+40,r27
 3374               	.LBE55:
 3375               	.LBE54:
 3376               	.LM153:
 3377 14d0 81E0      		ldi r24,lo8(1)
 3378 14d2 DB01      		movw r26,r22
 3379 14d4 1496      		adiw r26,4
 3380 14d6 8C93      		st X,r24
 3381 14d8 00C0      		rjmp .L232
 3382               	.LVL223:
 3383               	.L230:
 3384               	.LM154:
 3385 14da 81E0      		ldi r24,lo8(1)
 3386 14dc 00C0      		rjmp .L245
 3387               	.LVL224:
 3388               	.L232:
 3389 14de 80E0      		ldi r24,lo8(0)
 3390               	.LVL225:
 3391               	.L245:
 3392               	/* epilogue start */
 3393               	.LM155:
 3394 14e0 DF91      		pop r29
 3395 14e2 CF91      		pop r28
 3396               	.LVL226:
 3397 14e4 1F91      		pop r17
 3398               	.LVL227:
 3399 14e6 0F91      		pop r16
 3400               	.LVL228:
 3401 14e8 FF90      		pop r15
 3402 14ea EF90      		pop r14
 3403               	.LVL229:
 3404 14ec DF90      		pop r13
 3405 14ee CF90      		pop r12
 3406               	.LVL230:
 3407 14f0 0895      		ret
 3408               	.LFE23:
 3410               	.global	fat_delete_file
 3412               	fat_delete_file:
 3413               	.LFB28:
 3414               	.LM156:
 3415               	.LVL231:
 3416 14f2 2F92      		push r2
 3417 14f4 3F92      		push r3
 3418 14f6 4F92      		push r4
 3419 14f8 5F92      		push r5
 3420 14fa 6F92      		push r6
 3421 14fc 7F92      		push r7
 3422 14fe 8F92      		push r8
 3423 1500 9F92      		push r9
 3424 1502 AF92      		push r10
 3425 1504 BF92      		push r11
 3426 1506 CF92      		push r12
 3427 1508 DF92      		push r13
 3428 150a EF92      		push r14
 3429 150c FF92      		push r15
 3430 150e 0F93      		push r16
 3431 1510 1F93      		push r17
 3432 1512 DF93      		push r29
 3433 1514 CF93      		push r28
 3434 1516 CDB7      		in r28,__SP_L__
 3435 1518 DEB7      		in r29,__SP_H__
 3436 151a 2C97      		sbiw r28,12
 3437 151c 0FB6      		in __tmp_reg__,__SREG__
 3438 151e F894      		cli
 3439 1520 DEBF      		out __SP_H__,r29
 3440 1522 0FBE      		out __SREG__,__tmp_reg__
 3441 1524 CDBF      		out __SP_L__,r28
 3442               	/* prologue: function */
 3443               	/* frame size = 12 */
 3444 1526 3C01      		movw r6,r24
 3445 1528 6B01      		movw r12,r22
 3446               	.LM157:
 3447 152a 0097      		sbiw r24,0
 3448 152c 01F4      		brne .+2
 3449 152e 00C0      		rjmp .L263
 3450               	.LVL232:
 3451 1530 6115      		cp r22,__zero_reg__
 3452 1532 7105      		cpc r23,__zero_reg__
 3453 1534 01F4      		brne .+2
 3454 1536 00C0      		rjmp .L263
 3455               	.LVL233:
 3456               	.LM158:
 3457 1538 DB01      		movw r26,r22
 3458 153a 9996      		adiw r26,41
 3459 153c BC90      		ld r11,X
 3460 153e 9997      		sbiw r26,41
 3461               	.LVL234:
 3462 1540 9A96      		adiw r26,42
 3463 1542 AC90      		ld r10,X
 3464 1544 9A97      		sbiw r26,42
 3465               	.LVL235:
 3466 1546 9B96      		adiw r26,43
 3467 1548 9C90      		ld r9,X
 3468 154a 9B97      		sbiw r26,43
 3469               	.LVL236:
 3470 154c 9C96      		adiw r26,44
 3471 154e 8C90      		ld r8,X
 3472 1550 9C97      		sbiw r26,44
 3473               	.LVL237:
 3474 1552 9D96      		adiw r26,45
 3475 1554 5C90      		ld r5,X
 3476 1556 9D97      		sbiw r26,45
 3477               	.LVL238:
 3478 1558 9E96      		adiw r26,46
 3479 155a 4C90      		ld r4,X
 3480 155c 9E97      		sbiw r26,46
 3481               	.LVL239:
 3482 155e 9F96      		adiw r26,47
 3483 1560 3C90      		ld r3,X
 3484 1562 9F97      		sbiw r26,47
 3485               	.LVL240:
 3486 1564 D096      		adiw r26,48
 3487 1566 2C90      		ld r2,X
 3488               	.LVL241:
 3489               	.LM159:
 3490 1568 8B2D      		mov r24,r11
 3491               	.LVL242:
 3492 156a 8A29      		or r24,r10
 3493               	.LVL243:
 3494 156c 8929      		or r24,r9
 3495 156e 8829      		or r24,r8
 3496 1570 8529      		or r24,r5
 3497 1572 8429      		or r24,r4
 3498 1574 8329      		or r24,r3
 3499 1576 8229      		or r24,r2
 3500 1578 01F4      		brne .+2
 3501 157a 00C0      		rjmp .L263
 3502               	.LVL244:
 3503               	.L284:
 3504               	.LM160:
 3505 157c D301      		movw r26,r6
 3506 157e ED91      		ld r30,X+
 3507 1580 FC91      		ld r31,X
 3508 1582 0190      		ld __tmp_reg__,Z+
 3509 1584 F081      		ld r31,Z
 3510 1586 E02D      		mov r30,__tmp_reg__
 3511 1588 2B2D      		mov r18,r11
 3512 158a 3A2D      		mov r19,r10
 3513 158c 492D      		mov r20,r9
 3514 158e 582D      		mov r21,r8
 3515 1590 652D      		mov r22,r5
 3516 1592 742D      		mov r23,r4
 3517 1594 832D      		mov r24,r3
 3518               	.LVL245:
 3519 1596 922D      		mov r25,r2
 3520 1598 8E01      		movw r16,r28
 3521 159a 0F5F      		subi r16,lo8(-(1))
 3522 159c 1F4F      		sbci r17,hi8(-(1))
 3523 159e ACE0      		ldi r26,lo8(12)
 3524 15a0 EA2E      		mov r14,r26
 3525 15a2 F12C      		mov r15,__zero_reg__
 3526 15a4 0995      		icall
 3527 15a6 8823      		tst r24
 3528 15a8 01F4      		brne .+2
 3529 15aa 00C0      		rjmp .L263
 3530               	.LM161:
 3531 15ac B5EE      		ldi r27,lo8(-27)
 3532 15ae B983      		std Y+1,r27
 3533               	.LM162:
 3534 15b0 D301      		movw r26,r6
 3535 15b2 ED91      		ld r30,X+
 3536 15b4 FC91      		ld r31,X
 3537 15b6 0480      		ldd __tmp_reg__,Z+4
 3538 15b8 F581      		ldd r31,Z+5
 3539 15ba E02D      		mov r30,__tmp_reg__
 3540 15bc 2B2D      		mov r18,r11
 3541 15be 3A2D      		mov r19,r10
 3542 15c0 492D      		mov r20,r9
 3543 15c2 582D      		mov r21,r8
 3544 15c4 652D      		mov r22,r5
 3545 15c6 742D      		mov r23,r4
 3546 15c8 832D      		mov r24,r3
 3547 15ca 922D      		mov r25,r2
 3548 15cc 8E01      		movw r16,r28
 3549 15ce 0F5F      		subi r16,lo8(-(1))
 3550 15d0 1F4F      		sbci r17,hi8(-(1))
 3551 15d2 0995      		icall
 3552 15d4 8823      		tst r24
 3553 15d6 01F4      		brne .+2
 3554 15d8 00C0      		rjmp .L263
 3555               	.LM163:
 3556 15da 8C85      		ldd r24,Y+12
 3557 15dc 8F30      		cpi r24,lo8(15)
 3558 15de 01F4      		brne .L264
 3559               	.LM164:
 3560 15e0 7B2D      		mov r23,r11
 3561 15e2 705E      		subi r23,lo8(-(32))
 3562 15e4 81E0      		ldi r24,lo8(1)
 3563 15e6 7B15      		cp r23,r11
 3564 15e8 00F0      		brlo .L265
 3565 15ea 80E0      		ldi r24,lo8(0)
 3566               	.L265:
 3567 15ec 682F      		mov r22,r24
 3568 15ee 6A0D      		add r22,r10
 3569 15f0 81E0      		ldi r24,lo8(1)
 3570 15f2 6A15      		cp r22,r10
 3571 15f4 00F0      		brlo .L267
 3572 15f6 80E0      		ldi r24,lo8(0)
 3573               	.L267:
 3574 15f8 582F      		mov r21,r24
 3575 15fa 590D      		add r21,r9
 3576 15fc 81E0      		ldi r24,lo8(1)
 3577 15fe 5915      		cp r21,r9
 3578 1600 00F0      		brlo .L269
 3579 1602 80E0      		ldi r24,lo8(0)
 3580               	.L269:
 3581 1604 482F      		mov r20,r24
 3582 1606 480D      		add r20,r8
 3583 1608 81E0      		ldi r24,lo8(1)
 3584 160a 4815      		cp r20,r8
 3585 160c 00F0      		brlo .L271
 3586 160e 80E0      		ldi r24,lo8(0)
 3587               	.L271:
 3588 1610 382F      		mov r19,r24
 3589 1612 350D      		add r19,r5
 3590 1614 81E0      		ldi r24,lo8(1)
 3591 1616 3515      		cp r19,r5
 3592 1618 00F0      		brlo .L273
 3593 161a 80E0      		ldi r24,lo8(0)
 3594               	.L273:
 3595 161c 282F      		mov r18,r24
 3596 161e 240D      		add r18,r4
 3597 1620 81E0      		ldi r24,lo8(1)
 3598 1622 2415      		cp r18,r4
 3599 1624 00F0      		brlo .L275
 3600 1626 80E0      		ldi r24,lo8(0)
 3601               	.L275:
 3602 1628 830D      		add r24,r3
 3603 162a 91E0      		ldi r25,lo8(1)
 3604 162c 8315      		cp r24,r3
 3605 162e 00F0      		brlo .L277
 3606 1630 90E0      		ldi r25,lo8(0)
 3607               	.L277:
 3608 1632 5B01      		movw r10,r22
 3609               	.LVL246:
 3610 1634 4A01      		movw r8,r20
 3611               	.LVL247:
 3612 1636 2901      		movw r4,r18
 3613               	.LVL248:
 3614 1638 382E      		mov r3,r24
 3615 163a 290E      		add r2,r25
 3616 163c 00C0      		rjmp .L284
 3617               	.LVL249:
 3618               	.L264:
 3619               	.LM165:
 3620 163e F601      		movw r30,r12
 3621 1640 41A1      		ldd r20,Z+33
 3622 1642 52A1      		ldd r21,Z+34
 3623 1644 63A1      		ldd r22,Z+35
 3624 1646 74A1      		ldd r23,Z+36
 3625 1648 4115      		cp r20,__zero_reg__
 3626 164a 5105      		cpc r21,__zero_reg__
 3627 164c 6105      		cpc r22,__zero_reg__
 3628 164e 7105      		cpc r23,__zero_reg__
 3629 1650 01F0      		breq .L285
 3630               	.L279:
 3631 1652 C301      		movw r24,r6
 3632 1654 0E94 0000 		call fat_free_clusters
 3633 1658 20E0      		ldi r18,lo8(0)
 3634 165a 30E0      		ldi r19,hi8(0)
 3635 165c 8823      		tst r24
 3636 165e 01F0      		breq .L280
 3637               	.L285:
 3638 1660 21E0      		ldi r18,lo8(1)
 3639 1662 30E0      		ldi r19,hi8(1)
 3640               	.L280:
 3641 1664 822F      		mov r24,r18
 3642 1666 00C0      		rjmp .L282
 3643               	.LVL250:
 3644               	.L263:
 3645 1668 80E0      		ldi r24,lo8(0)
 3646               	.L282:
 3647               	/* epilogue start */
 3648               	.LM166:
 3649 166a 2C96      		adiw r28,12
 3650 166c 0FB6      		in __tmp_reg__,__SREG__
 3651 166e F894      		cli
 3652 1670 DEBF      		out __SP_H__,r29
 3653 1672 0FBE      		out __SREG__,__tmp_reg__
 3654 1674 CDBF      		out __SP_L__,r28
 3655 1676 CF91      		pop r28
 3656 1678 DF91      		pop r29
 3657 167a 1F91      		pop r17
 3658 167c 0F91      		pop r16
 3659 167e FF90      		pop r15
 3660 1680 EF90      		pop r14
 3661 1682 DF90      		pop r13
 3662 1684 CF90      		pop r12
 3663               	.LVL251:
 3664 1686 BF90      		pop r11
 3665               	.LVL252:
 3666 1688 AF90      		pop r10
 3667               	.LVL253:
 3668 168a 9F90      		pop r9
 3669               	.LVL254:
 3670 168c 8F90      		pop r8
 3671               	.LVL255:
 3672 168e 7F90      		pop r7
 3673 1690 6F90      		pop r6
 3674               	.LVL256:
 3675 1692 5F90      		pop r5
 3676               	.LVL257:
 3677 1694 4F90      		pop r4
 3678               	.LVL258:
 3679 1696 3F90      		pop r3
 3680               	.LVL259:
 3681 1698 2F90      		pop r2
 3682               	.LVL260:
 3683 169a 0895      		ret
 3684               	.LFE28:
 3686               	.global	fat_get_fs_size
 3688               	fat_get_fs_size:
 3689               	.LFB30:
 3690               	.LM167:
 3691               	.LVL261:
 3692 169c 2F92      		push r2
 3693 169e 3F92      		push r3
 3694 16a0 4F92      		push r4
 3695 16a2 5F92      		push r5
 3696 16a4 6F92      		push r6
 3697 16a6 7F92      		push r7
 3698 16a8 8F92      		push r8
 3699 16aa 9F92      		push r9
 3700 16ac AF92      		push r10
 3701 16ae BF92      		push r11
 3702 16b0 CF92      		push r12
 3703 16b2 DF92      		push r13
 3704 16b4 EF92      		push r14
 3705 16b6 FF92      		push r15
 3706 16b8 0F93      		push r16
 3707 16ba 1F93      		push r17
 3708               	/* prologue: function */
 3709               	/* frame size = 0 */
 3710 16bc DC01      		movw r26,r24
 3711               	.LM168:
 3712 16be 0097      		sbiw r24,0
 3713 16c0 01F4      		brne .L287
 3714 16c2 20E0      		ldi r18,lo8(0)
 3715 16c4 30E0      		ldi r19,lo8(0)
 3716 16c6 40E0      		ldi r20,lo8(0)
 3717 16c8 50E0      		ldi r21,lo8(0)
 3718 16ca 60E0      		ldi r22,lo8(0)
 3719 16cc 70E0      		ldi r23,lo8(0)
 3720 16ce 80E0      		ldi r24,lo8(0)
 3721               	.LVL262:
 3722 16d0 90E0      		ldi r25,lo8(0)
 3723 16d2 00C0      		rjmp .L288
 3724               	.LVL263:
 3725               	.L287:
 3726               	.LM169:
 3727 16d4 ED91      		ld r30,X+
 3728 16d6 FC91      		ld r31,X
 3729 16d8 1197      		sbiw r26,1
 3730 16da 8085      		ldd r24,Z+8
 3731               	.LVL264:
 3732 16dc 5296      		adiw r26,18
 3733 16de 2D91      		ld r18,X+
 3734 16e0 3D91      		ld r19,X+
 3735 16e2 4D91      		ld r20,X+
 3736 16e4 5C91      		ld r21,X
 3737 16e6 5597      		sbiw r26,18+3
 3738 16e8 5896      		adiw r26,24
 3739 16ea ED91      		ld r30,X+
 3740 16ec FC91      		ld r31,X
 3741 16ee 5997      		sbiw r26,24+1
 3742 16f0 8B30      		cpi r24,lo8(11)
 3743 16f2 01F4      		brne .L289
 3744               	.LM170:
 3745 16f4 12E0      		ldi r17,2
 3746 16f6 5695      	1:	lsr r21
 3747 16f8 4795      		ror r20
 3748 16fa 3795      		ror r19
 3749 16fc 2795      		ror r18
 3750 16fe 1A95      		dec r17
 3751 1700 01F4      		brne 1b
 3752 1702 00C0      		rjmp .L291
 3753               	.L289:
 3754               	.LM171:
 3755 1704 5695      		lsr r21
 3756 1706 4795      		ror r20
 3757 1708 3795      		ror r19
 3758 170a 2795      		ror r18
 3759               	.L291:
 3760 170c 2250      		subi r18,lo8(-(-2))
 3761 170e 3040      		sbci r19,hi8(-(-2))
 3762 1710 4040      		sbci r20,hlo8(-(-2))
 3763 1712 5040      		sbci r21,hhi8(-(-2))
 3764 1714 5901      		movw r10,r18
 3765 1716 6A01      		movw r12,r20
 3766 1718 A601      		movw r20,r12
 3767 171a 60E0      		ldi r22,lo8(0)
 3768 171c 70E0      		ldi r23,lo8(0)
 3769 171e 80E0      		ldi r24,lo8(0)
 3770 1720 90E0      		ldi r25,lo8(0)
 3771 1722 5F01      		movw r10,r30
 3772 1724 CC24      		clr r12
 3773 1726 DD24      		clr r13
 3774 1728 EE24      		clr r14
 3775 172a FF24      		clr r15
 3776 172c 00E0      		ldi r16,lo8(0)
 3777 172e 10E0      		ldi r17,lo8(0)
 3778 1730 0E94 0000 		call __muldi3
 3779               	.LVL265:
 3780               	.LVL266:
 3781               	.L288:
 3782               	/* epilogue start */
 3783               	.LM172:
 3784 1734 1F91      		pop r17
 3785 1736 0F91      		pop r16
 3786 1738 FF90      		pop r15
 3787 173a EF90      		pop r14
 3788 173c DF90      		pop r13
 3789 173e CF90      		pop r12
 3790 1740 BF90      		pop r11
 3791 1742 AF90      		pop r10
 3792 1744 9F90      		pop r9
 3793 1746 8F90      		pop r8
 3794 1748 7F90      		pop r7
 3795 174a 6F90      		pop r6
 3796 174c 5F90      		pop r5
 3797 174e 4F90      		pop r4
 3798 1750 3F90      		pop r3
 3799 1752 2F90      		pop r2
 3800 1754 0895      		ret
 3801               	.LFE30:
 3803               	.global	fat_get_fs_free
 3805               	fat_get_fs_free:
 3806               	.LFB31:
 3807               	.LM173:
 3808               	.LVL267:
 3809 1756 2F92      		push r2
 3810 1758 3F92      		push r3
 3811 175a 4F92      		push r4
 3812 175c 5F92      		push r5
 3813 175e 6F92      		push r6
 3814 1760 7F92      		push r7
 3815 1762 8F92      		push r8
 3816 1764 9F92      		push r9
 3817 1766 AF92      		push r10
 3818 1768 BF92      		push r11
 3819 176a CF92      		push r12
 3820 176c DF92      		push r13
 3821 176e EF92      		push r14
 3822 1770 FF92      		push r15
 3823 1772 0F93      		push r16
 3824 1774 1F93      		push r17
 3825 1776 DF93      		push r29
 3826 1778 CF93      		push r28
 3827 177a CDB7      		in r28,__SP_L__
 3828 177c DEB7      		in r29,__SP_H__
 3829 177e E097      		sbiw r28,48
 3830 1780 0FB6      		in __tmp_reg__,__SREG__
 3831 1782 F894      		cli
 3832 1784 DEBF      		out __SP_H__,r29
 3833 1786 0FBE      		out __SREG__,__tmp_reg__
 3834 1788 CDBF      		out __SP_L__,r28
 3835               	/* prologue: function */
 3836               	/* frame size = 48 */
 3837 178a 3C01      		movw r6,r24
 3838               	.LM174:
 3839 178c 0097      		sbiw r24,0
 3840 178e 01F4      		brne .+2
 3841 1790 00C0      		rjmp .L293
 3842               	.LM175:
 3843 1792 1982      		std Y+1,__zero_reg__
 3844 1794 1A82      		std Y+2,__zero_reg__
 3845 1796 1B82      		std Y+3,__zero_reg__
 3846 1798 1C82      		std Y+4,__zero_reg__
 3847               	.LM176:
 3848 179a 80E2      		ldi r24,lo8(32)
 3849 179c 90E0      		ldi r25,hi8(32)
 3850               	.LVL268:
 3851 179e 9E83      		std Y+6,r25
 3852 17a0 8D83      		std Y+5,r24
 3853               	.LM177:
 3854 17a2 D301      		movw r26,r6
 3855 17a4 1A96      		adiw r26,10
 3856 17a6 BC91      		ld r27,X
 3857 17a8 B9A7      		std Y+41,r27
 3858 17aa F301      		movw r30,r6
 3859 17ac F385      		ldd r31,Z+11
 3860 17ae FAA7      		std Y+42,r31
 3861 17b0 D301      		movw r26,r6
 3862 17b2 1C96      		adiw r26,12
 3863 17b4 BC91      		ld r27,X
 3864 17b6 BBA7      		std Y+43,r27
 3865 17b8 F301      		movw r30,r6
 3866 17ba F585      		ldd r31,Z+13
 3867 17bc FCA7      		std Y+44,r31
 3868 17be D301      		movw r26,r6
 3869 17c0 1E96      		adiw r26,14
 3870 17c2 BC91      		ld r27,X
 3871 17c4 BDA7      		std Y+45,r27
 3872 17c6 F301      		movw r30,r6
 3873 17c8 F785      		ldd r31,Z+15
 3874 17ca FEA7      		std Y+46,r31
 3875 17cc D301      		movw r26,r6
 3876 17ce 5096      		adiw r26,16
 3877 17d0 BC91      		ld r27,X
 3878 17d2 BFA7      		std Y+47,r27
 3879 17d4 F301      		movw r30,r6
 3880 17d6 F189      		ldd r31,Z+17
 3881 17d8 F8AB      		std Y+48,r31
 3882               	.LM178:
 3883 17da D301      		movw r26,r6
 3884 17dc 5296      		adiw r26,18
 3885 17de 2D90      		ld r2,X+
 3886 17e0 3D90      		ld r3,X+
 3887 17e2 4D90      		ld r4,X+
 3888 17e4 5C90      		ld r5,X
 3889 17e6 5597      		sbiw r26,18+3
 3890               	.LVL269:
 3891 17e8 00C0      		rjmp .L294
 3892               	.LVL270:
 3893               	.L312:
 3894               	.LBB60:
 3895               	.LM179:
 3896 17ea BEEF      		ldi r27,lo8(65534)
 3897 17ec 2B16      		cp r2,r27
 3898 17ee BFEF      		ldi r27,hi8(65534)
 3899 17f0 3B06      		cpc r3,r27
 3900 17f2 B0E0      		ldi r27,hlo8(65534)
 3901 17f4 4B06      		cpc r4,r27
 3902 17f6 B0E0      		ldi r27,hhi8(65534)
 3903 17f8 5B06      		cpc r5,r27
 3904 17fa 00F0      		brlo .L295
 3905 17fc EEEF      		ldi r30,lo8(-2)
 3906 17fe FFEF      		ldi r31,hi8(-2)
 3907 1800 F8A7      		std Y+40,r31
 3908 1802 EFA3      		std Y+39,r30
 3909               	.LVL271:
 3910 1804 00C0      		rjmp .L296
 3911               	.LVL272:
 3912               	.L295:
 3913               	.LM180:
 3914 1806 38A6      		std Y+40,r3
 3915 1808 2FA2      		std Y+39,r2
 3916               	.LVL273:
 3917               	.L296:
 3918               	.LM181:
 3919 180a D301      		movw r26,r6
 3920               	.LVL274:
 3921 180c ED91      		ld r30,X+
 3922 180e FC91      		ld r31,X
 3923 1810 A281      		ldd r26,Z+2
 3924 1812 B381      		ldd r27,Z+3
 3925 1814 8085      		ldd r24,Z+8
 3926 1816 8630      		cpi r24,lo8(6)
 3927 1818 01F0      		breq .L297
 3928 181a E0E0      		ldi r30,lo8(gs(fat_get_fs_free_32_callback))
 3929 181c F0E0      		ldi r31,hi8(gs(fat_get_fs_free_32_callback))
 3930 181e 00C0      		rjmp .L298
 3931               	.L297:
 3932 1820 E0E0      		ldi r30,lo8(gs(fat_get_fs_free_16_callback))
 3933 1822 F0E0      		ldi r31,hi8(gs(fat_get_fs_free_16_callback))
 3934               	.L298:
 3935 1824 29A5      		ldd r18,Y+41
 3936 1826 3AA5      		ldd r19,Y+42
 3937 1828 4BA5      		ldd r20,Y+43
 3938 182a 5CA5      		ldd r21,Y+44
 3939 182c 6DA5      		ldd r22,Y+45
 3940 182e 7EA5      		ldd r23,Y+46
 3941 1830 8FA5      		ldd r24,Y+47
 3942 1832 98A9      		ldd r25,Y+48
 3943 1834 8E01      		movw r16,r28
 3944               	.LVL275:
 3945 1836 095F      		subi r16,lo8(-(7))
 3946 1838 1F4F      		sbci r17,hi8(-(7))
 3947 183a EE24      		clr r14
 3948 183c FF24      		clr r15
 3949 183e 6894      		set
 3950 1840 E5F8      		bld r14,5
 3951               	.LVL276:
 3952 1842 CFA0      		ldd r12,Y+39
 3953 1844 D8A4      		ldd r13,Y+40
 3954 1846 5F01      		movw r10,r30
 3955 1848 4E01      		movw r8,r28
 3956 184a 0894      		sec
 3957 184c 811C      		adc r8,__zero_reg__
 3958 184e 911C      		adc r9,__zero_reg__
 3959 1850 FD01      		movw r30,r26
 3960 1852 0995      		icall
 3961 1854 8823      		tst r24
 3962 1856 01F4      		brne .+2
 3963 1858 00C0      		rjmp .L293
 3964               	.LM182:
 3965 185a CFA0      		ldd r12,Y+39
 3966 185c D8A4      		ldd r13,Y+40
 3967 185e 5601      		movw r10,r12
 3968               	.LVL277:
 3969 1860 CC24      		clr r12
 3970 1862 DD24      		clr r13
 3971               	.LVL278:
 3972 1864 EE24      		clr r14
 3973 1866 FF24      		clr r15
 3974 1868 8701      		movw r16,r14
 3975               	.LVL279:
 3976 186a F9A5      		ldd r31,Y+41
 3977 186c FA0D      		add r31,r10
 3978 186e 91E0      		ldi r25,lo8(1)
 3979 1870 B9A5      		ldd r27,Y+41
 3980 1872 FB17      		cp r31,r27
 3981 1874 00F0      		brlo .L299
 3982 1876 90E0      		ldi r25,lo8(0)
 3983               	.L299:
 3984 1878 8AA5      		ldd r24,Y+42
 3985 187a 8B0D      		add r24,r11
 3986 187c 21E0      		ldi r18,lo8(1)
 3987 187e EAA5      		ldd r30,Y+42
 3988 1880 8E17      		cp r24,r30
 3989 1882 00F0      		brlo .L300
 3990 1884 20E0      		ldi r18,lo8(0)
 3991               	.L300:
 3992 1886 392F      		mov r19,r25
 3993 1888 380F      		add r19,r24
 3994 188a 91E0      		ldi r25,lo8(1)
 3995 188c 3817      		cp r19,r24
 3996 188e 00F0      		brlo .L301
 3997 1890 90E0      		ldi r25,lo8(0)
 3998               	.L301:
 3999 1892 292B      		or r18,r25
 4000 1894 8BA5      		ldd r24,Y+43
 4001 1896 8C0D      		add r24,r12
 4002 1898 51E0      		ldi r21,lo8(1)
 4003 189a 9BA5      		ldd r25,Y+43
 4004 189c 8917      		cp r24,r25
 4005 189e 00F0      		brlo .L302
 4006 18a0 50E0      		ldi r21,lo8(0)
 4007               	.L302:
 4008 18a2 422F      		mov r20,r18
 4009 18a4 480F      		add r20,r24
 4010 18a6 91E0      		ldi r25,lo8(1)
 4011 18a8 4817      		cp r20,r24
 4012 18aa 00F0      		brlo .L303
 4013 18ac 90E0      		ldi r25,lo8(0)
 4014               	.L303:
 4015 18ae 592B      		or r21,r25
 4016 18b0 8CA5      		ldd r24,Y+44
 4017 18b2 8D0D      		add r24,r13
 4018 18b4 21E0      		ldi r18,lo8(1)
 4019 18b6 ACA5      		ldd r26,Y+44
 4020 18b8 8A17      		cp r24,r26
 4021 18ba 00F0      		brlo .L304
 4022 18bc 20E0      		ldi r18,lo8(0)
 4023               	.L304:
 4024 18be 580F      		add r21,r24
 4025 18c0 91E0      		ldi r25,lo8(1)
 4026 18c2 5817      		cp r21,r24
 4027 18c4 00F0      		brlo .L305
 4028 18c6 90E0      		ldi r25,lo8(0)
 4029               	.L305:
 4030 18c8 292B      		or r18,r25
 4031 18ca 8DA5      		ldd r24,Y+45
 4032 18cc 8E0D      		add r24,r14
 4033 18ce 71E0      		ldi r23,lo8(1)
 4034 18d0 BDA5      		ldd r27,Y+45
 4035 18d2 8B17      		cp r24,r27
 4036 18d4 00F0      		brlo .L306
 4037 18d6 70E0      		ldi r23,lo8(0)
 4038               	.L306:
 4039 18d8 622F      		mov r22,r18
 4040 18da 680F      		add r22,r24
 4041 18dc 91E0      		ldi r25,lo8(1)
 4042 18de 6817      		cp r22,r24
 4043 18e0 00F0      		brlo .L307
 4044 18e2 90E0      		ldi r25,lo8(0)
 4045               	.L307:
 4046 18e4 792B      		or r23,r25
 4047 18e6 8EA5      		ldd r24,Y+46
 4048 18e8 8F0D      		add r24,r15
 4049 18ea 21E0      		ldi r18,lo8(1)
 4050 18ec EEA5      		ldd r30,Y+46
 4051 18ee 8E17      		cp r24,r30
 4052 18f0 00F0      		brlo .L308
 4053 18f2 20E0      		ldi r18,lo8(0)
 4054               	.L308:
 4055 18f4 780F      		add r23,r24
 4056 18f6 91E0      		ldi r25,lo8(1)
 4057 18f8 7817      		cp r23,r24
 4058 18fa 00F0      		brlo .L309
 4059 18fc 90E0      		ldi r25,lo8(0)
 4060               	.L309:
 4061 18fe 292B      		or r18,r25
 4062 1900 9FA5      		ldd r25,Y+47
 4063 1902 900F      		add r25,r16
 4064               	.LVL280:
 4065 1904 E1E0      		ldi r30,lo8(1)
 4066 1906 8FA5      		ldd r24,Y+47
 4067 1908 9817      		cp r25,r24
 4068 190a 00F0      		brlo .L310
 4069 190c E0E0      		ldi r30,lo8(0)
 4070               	.L310:
 4071 190e 822F      		mov r24,r18
 4072 1910 890F      		add r24,r25
 4073 1912 21E0      		ldi r18,lo8(1)
 4074 1914 8917      		cp r24,r25
 4075 1916 00F0      		brlo .L311
 4076 1918 20E0      		ldi r18,lo8(0)
 4077               	.L311:
 4078 191a E22B      		or r30,r18
 4079 191c 98A9      		ldd r25,Y+48
 4080 191e 910F      		add r25,r17
 4081 1920 F9A7      		std Y+41,r31
 4082 1922 3AA7      		std Y+42,r19
 4083 1924 4BA7      		std Y+43,r20
 4084 1926 5CA7      		std Y+44,r21
 4085 1928 6DA7      		std Y+45,r22
 4086 192a 7EA7      		std Y+46,r23
 4087 192c 8FA7      		std Y+47,r24
 4088 192e 9E0F      		add r25,r30
 4089 1930 98AB      		std Y+48,r25
 4090               	.LM183:
 4091 1932 EFA1      		ldd r30,Y+39
 4092 1934 F8A5      		ldd r31,Y+40
 4093 1936 CF01      		movw r24,r30
 4094               	.LVL281:
 4095 1938 A0E0      		ldi r26,lo8(0)
 4096 193a B0E0      		ldi r27,hi8(0)
 4097               	.LVL282:
 4098 193c 281A      		sub r2,r24
 4099 193e 390A      		sbc r3,r25
 4100 1940 4A0A      		sbc r4,r26
 4101 1942 5B0A      		sbc r5,r27
 4102               	.L294:
 4103               	.LBE60:
 4104               	.LM184:
 4105 1944 2114      		cp r2,__zero_reg__
 4106 1946 3104      		cpc r3,__zero_reg__
 4107 1948 4104      		cpc r4,__zero_reg__
 4108 194a 5104      		cpc r5,__zero_reg__
 4109 194c 01F0      		breq .+2
 4110 194e 00C0      		rjmp .L312
 4111               	.LM185:
 4112 1950 D301      		movw r26,r6
 4113               	.LVL283:
 4114 1952 5896      		adiw r26,24
 4115 1954 4D91      		ld r20,X+
 4116 1956 5C91      		ld r21,X
 4117 1958 5997      		sbiw r26,24+1
 4118 195a 2980      		ldd r2,Y+1
 4119 195c 3A80      		ldd r3,Y+2
 4120 195e 4B80      		ldd r4,Y+3
 4121 1960 5C80      		ldd r5,Y+4
 4122               	.LVL284:
 4123 1962 9A01      		movw r18,r20
 4124 1964 40E0      		ldi r20,lo8(0)
 4125 1966 50E0      		ldi r21,lo8(0)
 4126 1968 60E0      		ldi r22,lo8(0)
 4127 196a 70E0      		ldi r23,lo8(0)
 4128 196c 80E0      		ldi r24,lo8(0)
 4129               	.LVL285:
 4130 196e 90E0      		ldi r25,lo8(0)
 4131 1970 5101      		movw r10,r2
 4132 1972 6201      		movw r12,r4
 4133 1974 EE24      		clr r14
 4134               	.LVL286:
 4135 1976 FF24      		clr r15
 4136               	.LVL287:
 4137 1978 00E0      		ldi r16,lo8(0)
 4138               	.LVL288:
 4139 197a 10E0      		ldi r17,lo8(0)
 4140               	.LVL289:
 4141 197c 0E94 0000 		call __muldi3
 4142 1980 00C0      		rjmp .L313
 4143               	.LVL290:
 4144               	.L293:
 4145 1982 20E0      		ldi r18,lo8(0)
 4146 1984 30E0      		ldi r19,lo8(0)
 4147 1986 40E0      		ldi r20,lo8(0)
 4148 1988 50E0      		ldi r21,lo8(0)
 4149 198a 60E0      		ldi r22,lo8(0)
 4150 198c 70E0      		ldi r23,lo8(0)
 4151 198e 80E0      		ldi r24,lo8(0)
 4152 1990 90E0      		ldi r25,lo8(0)
 4153               	.L313:
 4154               	/* epilogue start */
 4155               	.LM186:
 4156 1992 E096      		adiw r28,48
 4157 1994 0FB6      		in __tmp_reg__,__SREG__
 4158 1996 F894      		cli
 4159 1998 DEBF      		out __SP_H__,r29
 4160 199a 0FBE      		out __SREG__,__tmp_reg__
 4161 199c CDBF      		out __SP_L__,r28
 4162 199e CF91      		pop r28
 4163 19a0 DF91      		pop r29
 4164 19a2 1F91      		pop r17
 4165               	.LVL291:
 4166 19a4 0F91      		pop r16
 4167 19a6 FF90      		pop r15
 4168               	.LVL292:
 4169 19a8 EF90      		pop r14
 4170 19aa DF90      		pop r13
 4171               	.LVL293:
 4172 19ac CF90      		pop r12
 4173 19ae BF90      		pop r11
 4174               	.LVL294:
 4175 19b0 AF90      		pop r10
 4176 19b2 9F90      		pop r9
 4177 19b4 8F90      		pop r8
 4178 19b6 7F90      		pop r7
 4179 19b8 6F90      		pop r6
 4180               	.LVL295:
 4181 19ba 5F90      		pop r5
 4182 19bc 4F90      		pop r4
 4183 19be 3F90      		pop r3
 4184 19c0 2F90      		pop r2
 4185               	.LVL296:
 4186 19c2 0895      		ret
 4187               	.LFE31:
 4190               	fat_get_fs_free_16_callback:
 4191               	.LFB32:
 4192               	.LM187:
 4193               	.LVL297:
 4194 19c4 EF92      		push r14
 4195               	.LVL298:
 4196 19c6 FF92      		push r15
 4197 19c8 CF93      		push r28
 4198 19ca DF93      		push r29
 4199               	/* prologue: function */
 4200               	/* frame size = 0 */
 4201 19cc EC01      		movw r28,r24
 4202               	.LM188:
 4203 19ce F701      		movw r30,r14
 4204               	.LM189:
 4205 19d0 4481      		ldd r20,Z+4
 4206 19d2 5581      		ldd r21,Z+5
 4207               	.LVL299:
 4208 19d4 20E0      		ldi r18,lo8(0)
 4209 19d6 30E0      		ldi r19,hi8(0)
 4210               	.LVL300:
 4211 19d8 00C0      		rjmp .L316
 4212               	.LVL301:
 4213               	.L318:
 4214               	.LBB61:
 4215               	.LBB62:
 4216               	.LM190:
 4217 19da 8881      		ld r24,Y
 4218 19dc 9981      		ldd r25,Y+1
 4219 19de 892B      		or r24,r25
 4220 19e0 01F4      		brne .L317
 4221               	.LM191:
 4222 19e2 8081      		ld r24,Z
 4223 19e4 9181      		ldd r25,Z+1
 4224 19e6 A281      		ldd r26,Z+2
 4225 19e8 B381      		ldd r27,Z+3
 4226 19ea 0196      		adiw r24,1
 4227 19ec A11D      		adc r26,__zero_reg__
 4228 19ee B11D      		adc r27,__zero_reg__
 4229 19f0 8083      		st Z,r24
 4230 19f2 9183      		std Z+1,r25
 4231 19f4 A283      		std Z+2,r26
 4232 19f6 B383      		std Z+3,r27
 4233               	.L317:
 4234               	.LBE62:
 4235               	.LM192:
 4236 19f8 2E5F      		subi r18,lo8(-(2))
 4237 19fa 3F4F      		sbci r19,hi8(-(2))
 4238 19fc 2296      		adiw r28,2
 4239               	.LVL302:
 4240               	.L316:
 4241 19fe 2417      		cp r18,r20
 4242 1a00 3507      		cpc r19,r21
 4243 1a02 00F0      		brlo .L318
 4244               	.LBE61:
 4245               	.LM193:
 4246 1a04 81E0      		ldi r24,lo8(1)
 4247               	/* epilogue start */
 4248 1a06 DF91      		pop r29
 4249 1a08 CF91      		pop r28
 4250               	.LVL303:
 4251 1a0a FF90      		pop r15
 4252 1a0c EF90      		pop r14
 4253 1a0e 0895      		ret
 4254               	.LFE32:
 4257               	fat_get_fs_free_32_callback:
 4258               	.LFB33:
 4259               	.LM194:
 4260               	.LVL304:
 4261 1a10 EF92      		push r14
 4262               	.LVL305:
 4263 1a12 FF92      		push r15
 4264 1a14 CF93      		push r28
 4265 1a16 DF93      		push r29
 4266               	/* prologue: function */
 4267               	/* frame size = 0 */
 4268 1a18 EC01      		movw r28,r24
 4269               	.LM195:
 4270 1a1a F701      		movw r30,r14
 4271               	.LM196:
 4272 1a1c 4481      		ldd r20,Z+4
 4273 1a1e 5581      		ldd r21,Z+5
 4274               	.LVL306:
 4275 1a20 20E0      		ldi r18,lo8(0)
 4276 1a22 30E0      		ldi r19,hi8(0)
 4277               	.LVL307:
 4278 1a24 00C0      		rjmp .L321
 4279               	.LVL308:
 4280               	.L323:
 4281               	.LBB63:
 4282               	.LBB64:
 4283               	.LM197:
 4284 1a26 8881      		ld r24,Y
 4285 1a28 9981      		ldd r25,Y+1
 4286 1a2a AA81      		ldd r26,Y+2
 4287 1a2c BB81      		ldd r27,Y+3
 4288 1a2e 0097      		sbiw r24,0
 4289 1a30 A105      		cpc r26,__zero_reg__
 4290 1a32 B105      		cpc r27,__zero_reg__
 4291 1a34 01F4      		brne .L322
 4292               	.LM198:
 4293 1a36 8081      		ld r24,Z
 4294 1a38 9181      		ldd r25,Z+1
 4295 1a3a A281      		ldd r26,Z+2
 4296 1a3c B381      		ldd r27,Z+3
 4297 1a3e 0196      		adiw r24,1
 4298 1a40 A11D      		adc r26,__zero_reg__
 4299 1a42 B11D      		adc r27,__zero_reg__
 4300 1a44 8083      		st Z,r24
 4301 1a46 9183      		std Z+1,r25
 4302 1a48 A283      		std Z+2,r26
 4303 1a4a B383      		std Z+3,r27
 4304               	.L322:
 4305               	.LBE64:
 4306               	.LM199:
 4307 1a4c 2C5F      		subi r18,lo8(-(4))
 4308 1a4e 3F4F      		sbci r19,hi8(-(4))
 4309 1a50 2496      		adiw r28,4
 4310               	.LVL309:
 4311               	.L321:
 4312 1a52 2417      		cp r18,r20
 4313 1a54 3507      		cpc r19,r21
 4314 1a56 00F0      		brlo .L323
 4315               	.LBE63:
 4316               	.LM200:
 4317 1a58 81E0      		ldi r24,lo8(1)
 4318               	/* epilogue start */
 4319 1a5a DF91      		pop r29
 4320 1a5c CF91      		pop r28
 4321               	.LVL310:
 4322 1a5e FF90      		pop r15
 4323 1a60 EF90      		pop r14
 4324 1a62 0895      		ret
 4325               	.LFE33:
 4327               	.global	fat_clear_handles
 4329               	fat_clear_handles:
 4330               	.LFB34:
 4331               	.LM201:
 4332               	/* prologue: function */
 4333               	/* frame size = 0 */
 4334               	.LM202:
 4335 1a64 8EE2      		ldi r24,lo8(46)
 4336 1a66 E0E0      		ldi r30,lo8(fat_fs_handles)
 4337 1a68 F0E0      		ldi r31,hi8(fat_fs_handles)
 4338 1a6a DF01      		movw r26,r30
 4339 1a6c 1D92      		st X+,__zero_reg__
 4340 1a6e 8A95      	        dec r24
 4341 1a70 01F4      		brne .-6
 4342               	.LM203:
 4343 1a72 8FE3      		ldi r24,lo8(63)
 4344 1a74 E0E0      		ldi r30,lo8(fat_file_handles)
 4345 1a76 F0E0      		ldi r31,hi8(fat_file_handles)
 4346 1a78 DF01      		movw r26,r30
 4347 1a7a 1D92      		st X+,__zero_reg__
 4348 1a7c 8A95      	        dec r24
 4349 1a7e 01F4      		brne .-6
 4350               	.LM204:
 4351 1a80 82E7      		ldi r24,lo8(114)
 4352 1a82 E0E0      		ldi r30,lo8(fat_dir_handles)
 4353 1a84 F0E0      		ldi r31,hi8(fat_dir_handles)
 4354 1a86 DF01      		movw r26,r30
 4355 1a88 1D92      		st X+,__zero_reg__
 4356 1a8a 8A95      	        dec r24
 4357 1a8c 01F4      		brne .-6
 4358               	/* epilogue start */
 4359               	.LM205:
 4360 1a8e 0895      		ret
 4361               	.LFE34:
 4364               	fat_clear_cluster:
 4365               	.LFB9:
 4366               	.LM206:
 4367               	.LVL311:
 4368 1a90 2F92      		push r2
 4369 1a92 3F92      		push r3
 4370 1a94 4F92      		push r4
 4371 1a96 5F92      		push r5
 4372 1a98 6F92      		push r6
 4373 1a9a 7F92      		push r7
 4374 1a9c 8F92      		push r8
 4375 1a9e 9F92      		push r9
 4376 1aa0 AF92      		push r10
 4377 1aa2 BF92      		push r11
 4378 1aa4 CF92      		push r12
 4379 1aa6 DF92      		push r13
 4380 1aa8 EF92      		push r14
 4381 1aaa FF92      		push r15
 4382 1aac 0F93      		push r16
 4383 1aae 1F93      		push r17
 4384 1ab0 DF93      		push r29
 4385 1ab2 CF93      		push r28
 4386 1ab4 CDB7      		in r28,__SP_L__
 4387 1ab6 DEB7      		in r29,__SP_H__
 4388 1ab8 6297      		sbiw r28,18
 4389 1aba 0FB6      		in __tmp_reg__,__SREG__
 4390 1abc F894      		cli
 4391 1abe DEBF      		out __SP_H__,r29
 4392 1ac0 0FBE      		out __SREG__,__tmp_reg__
 4393 1ac2 CDBF      		out __SP_L__,r28
 4394               	/* prologue: function */
 4395               	/* frame size = 18 */
 4396 1ac4 9A8B      		std Y+18,r25
 4397 1ac6 898B      		std Y+17,r24
 4398               	.LM207:
 4399 1ac8 4230      		cpi r20,lo8(2)
 4400 1aca 5105      		cpc r21,__zero_reg__
 4401 1acc 6105      		cpc r22,__zero_reg__
 4402 1ace 7105      		cpc r23,__zero_reg__
 4403 1ad0 00F4      		brsh .L328
 4404               	.LVL312:
 4405 1ad2 80E0      		ldi r24,lo8(0)
 4406 1ad4 00C0      		rjmp .L329
 4407               	.LVL313:
 4408               	.L328:
 4409               	.LBB65:
 4410               	.LBB66:
 4411               	.LM208:
 4412 1ad6 8989      		ldd r24,Y+17
 4413 1ad8 9A89      		ldd r25,Y+18
 4414 1ada 892B      		or r24,r25
 4415 1adc 01F4      		brne .L330
 4416 1ade 20E0      		ldi r18,lo8(0)
 4417               	.LVL314:
 4418 1ae0 30E0      		ldi r19,lo8(0)
 4419               	.LVL315:
 4420 1ae2 40E0      		ldi r20,lo8(0)
 4421               	.LVL316:
 4422 1ae4 50E0      		ldi r21,lo8(0)
 4423               	.LVL317:
 4424 1ae6 60E0      		ldi r22,lo8(0)
 4425               	.LVL318:
 4426 1ae8 70E0      		ldi r23,lo8(0)
 4427               	.LVL319:
 4428 1aea 10E0      		ldi r17,lo8(0)
 4429               	.LVL320:
 4430 1aec 90E0      		ldi r25,lo8(0)
 4431               	.LVL321:
 4432 1aee 00C0      		rjmp .L331
 4433               	.LVL322:
 4434               	.L330:
 4435               	.LM209:
 4436 1af0 4250      		subi r20,lo8(-(-2))
 4437 1af2 5040      		sbci r21,hi8(-(-2))
 4438 1af4 6040      		sbci r22,hlo8(-(-2))
 4439 1af6 7040      		sbci r23,hhi8(-(-2))
 4440               	.LVL323:
 4441 1af8 5A01      		movw r10,r20
 4442 1afa 6B01      		movw r12,r22
 4443 1afc E989      		ldd r30,Y+17
 4444 1afe FA89      		ldd r31,Y+18
 4445 1b00 208C      		ldd r2,Z+24
 4446 1b02 318C      		ldd r3,Z+25
 4447 1b04 9A01      		movw r18,r20
 4448               	.LVL324:
 4449 1b06 A601      		movw r20,r12
 4450 1b08 60E0      		ldi r22,lo8(0)
 4451 1b0a 70E0      		ldi r23,lo8(0)
 4452 1b0c 80E0      		ldi r24,lo8(0)
 4453 1b0e 90E0      		ldi r25,lo8(0)
 4454 1b10 5101      		movw r10,r2
 4455 1b12 CC24      		clr r12
 4456 1b14 DD24      		clr r13
 4457 1b16 EE24      		clr r14
 4458 1b18 FF24      		clr r15
 4459 1b1a 00E0      		ldi r16,lo8(0)
 4460 1b1c 10E0      		ldi r17,lo8(0)
 4461 1b1e 0E94 0000 		call __muldi3
 4462 1b22 C92E      		mov r12,r25
 4463 1b24 E989      		ldd r30,Y+17
 4464 1b26 FA89      		ldd r31,Y+18
 4465 1b28 B28D      		ldd r27,Z+26
 4466 1b2a B38C      		ldd r11,Z+27
 4467 1b2c A48D      		ldd r26,Z+28
 4468 1b2e 158D      		ldd r17,Z+29
 4469 1b30 F68C      		ldd r15,Z+30
 4470 1b32 E78C      		ldd r14,Z+31
 4471 1b34 D0A0      		ldd r13,Z+32
 4472 1b36 01A1      		ldd r16,Z+33
 4473 1b38 B20F      		add r27,r18
 4474 1b3a E1E0      		ldi r30,lo8(1)
 4475 1b3c B217      		cp r27,r18
 4476 1b3e 00F0      		brlo .L332
 4477 1b40 E0E0      		ldi r30,lo8(0)
 4478               	.L332:
 4479 1b42 232F      		mov r18,r19
 4480 1b44 2B0D      		add r18,r11
 4481 1b46 F1E0      		ldi r31,lo8(1)
 4482 1b48 2317      		cp r18,r19
 4483 1b4a 00F0      		brlo .L333
 4484 1b4c F0E0      		ldi r31,lo8(0)
 4485               	.L333:
 4486 1b4e 3E2F      		mov r19,r30
 4487 1b50 320F      		add r19,r18
 4488 1b52 E1E0      		ldi r30,lo8(1)
 4489 1b54 3217      		cp r19,r18
 4490 1b56 00F0      		brlo .L334
 4491 1b58 E0E0      		ldi r30,lo8(0)
 4492               	.L334:
 4493 1b5a FE2B      		or r31,r30
 4494 1b5c 242F      		mov r18,r20
 4495 1b5e 2A0F      		add r18,r26
 4496 1b60 A1E0      		ldi r26,lo8(1)
 4497 1b62 2417      		cp r18,r20
 4498 1b64 00F0      		brlo .L335
 4499 1b66 A0E0      		ldi r26,lo8(0)
 4500               	.L335:
 4501 1b68 4F2F      		mov r20,r31
 4502 1b6a 420F      		add r20,r18
 4503 1b6c E1E0      		ldi r30,lo8(1)
 4504 1b6e 4217      		cp r20,r18
 4505 1b70 00F0      		brlo .L336
 4506 1b72 E0E0      		ldi r30,lo8(0)
 4507               	.L336:
 4508 1b74 AE2B      		or r26,r30
 4509 1b76 252F      		mov r18,r21
 4510 1b78 210F      		add r18,r17
 4511 1b7a F1E0      		ldi r31,lo8(1)
 4512 1b7c 2517      		cp r18,r21
 4513 1b7e 00F0      		brlo .L337
 4514 1b80 F0E0      		ldi r31,lo8(0)
 4515               	.L337:
 4516 1b82 5A2F      		mov r21,r26
 4517 1b84 520F      		add r21,r18
 4518 1b86 E1E0      		ldi r30,lo8(1)
 4519 1b88 5217      		cp r21,r18
 4520 1b8a 00F0      		brlo .L338
 4521 1b8c E0E0      		ldi r30,lo8(0)
 4522               	.L338:
 4523 1b8e FE2B      		or r31,r30
 4524 1b90 262F      		mov r18,r22
 4525 1b92 2F0D      		add r18,r15
 4526 1b94 A1E0      		ldi r26,lo8(1)
 4527 1b96 2617      		cp r18,r22
 4528 1b98 00F0      		brlo .L339
 4529 1b9a A0E0      		ldi r26,lo8(0)
 4530               	.L339:
 4531 1b9c 6F2F      		mov r22,r31
 4532 1b9e 620F      		add r22,r18
 4533 1ba0 E1E0      		ldi r30,lo8(1)
 4534 1ba2 6217      		cp r22,r18
 4535 1ba4 00F0      		brlo .L340
 4536 1ba6 E0E0      		ldi r30,lo8(0)
 4537               	.L340:
 4538 1ba8 AE2B      		or r26,r30
 4539 1baa 272F      		mov r18,r23
 4540 1bac 2E0D      		add r18,r14
 4541 1bae F1E0      		ldi r31,lo8(1)
 4542 1bb0 2717      		cp r18,r23
 4543 1bb2 00F0      		brlo .L341
 4544 1bb4 F0E0      		ldi r31,lo8(0)
 4545               	.L341:
 4546 1bb6 7A2F      		mov r23,r26
 4547 1bb8 720F      		add r23,r18
 4548 1bba E1E0      		ldi r30,lo8(1)
 4549 1bbc 7217      		cp r23,r18
 4550 1bbe 00F0      		brlo .L342
 4551 1bc0 E0E0      		ldi r30,lo8(0)
 4552               	.L342:
 4553 1bc2 FE2B      		or r31,r30
 4554 1bc4 282F      		mov r18,r24
 4555 1bc6 2D0D      		add r18,r13
 4556 1bc8 E1E0      		ldi r30,lo8(1)
 4557 1bca 2817      		cp r18,r24
 4558 1bcc 00F0      		brlo .L343
 4559 1bce E0E0      		ldi r30,lo8(0)
 4560               	.L343:
 4561 1bd0 8F2F      		mov r24,r31
 4562 1bd2 820F      		add r24,r18
 4563 1bd4 91E0      		ldi r25,lo8(1)
 4564 1bd6 8217      		cp r24,r18
 4565 1bd8 00F0      		brlo .L344
 4566 1bda 90E0      		ldi r25,lo8(0)
 4567               	.L344:
 4568 1bdc 9E2B      		or r25,r30
 4569               	.LVL325:
 4570 1bde 0C0D      		add r16,r12
 4571 1be0 2B2F      		mov r18,r27
 4572               	.LVL326:
 4573 1be2 182F      		mov r17,r24
 4574               	.LVL327:
 4575 1be4 900F      		add r25,r16
 4576               	.LVL328:
 4577               	.L331:
 4578               	.LBE66:
 4579               	.LBE65:
 4580               	.LM210:
 4581 1be6 DE01      		movw r26,r28
 4582 1be8 1196      		adiw r26,1
 4583 1bea 80E1      		ldi r24,lo8(16)
 4584 1bec FD01      		movw r30,r26
 4585 1bee 1192      		st Z+,__zero_reg__
 4586 1bf0 8A95      	        dec r24
 4587 1bf2 01F4      		brne .-6
 4588               	.LM211:
 4589 1bf4 E989      		ldd r30,Y+17
 4590 1bf6 FA89      		ldd r31,Y+18
 4591 1bf8 C080      		ld r12,Z
 4592 1bfa D180      		ldd r13,Z+1
 4593 1bfc E08C      		ldd r14,Z+24
 4594 1bfe F18C      		ldd r15,Z+25
 4595 1c00 F601      		movw r30,r12
 4596 1c02 8680      		ldd r8,Z+6
 4597 1c04 9780      		ldd r9,Z+7
 4598 1c06 812F      		mov r24,r17
 4599 1c08 8D01      		movw r16,r26
 4600 1c0a E0E0      		ldi r30,lo8(gs(fat_clear_cluster_callback))
 4601 1c0c CE2E      		mov r12,r30
 4602 1c0e E0E0      		ldi r30,hi8(gs(fat_clear_cluster_callback))
 4603 1c10 DE2E      		mov r13,r30
 4604 1c12 AA24      		clr r10
 4605 1c14 BB24      		clr r11
 4606 1c16 F401      		movw r30,r8
 4607 1c18 0995      		icall
 4608               	.LVL329:
 4609               	.L329:
 4610               	/* epilogue start */
 4611               	.LM212:
 4612 1c1a 6296      		adiw r28,18
 4613 1c1c 0FB6      		in __tmp_reg__,__SREG__
 4614 1c1e F894      		cli
 4615 1c20 DEBF      		out __SP_H__,r29
 4616 1c22 0FBE      		out __SREG__,__tmp_reg__
 4617 1c24 CDBF      		out __SP_L__,r28
 4618 1c26 CF91      		pop r28
 4619 1c28 DF91      		pop r29
 4620 1c2a 1F91      		pop r17
 4621               	.LVL330:
 4622 1c2c 0F91      		pop r16
 4623 1c2e FF90      		pop r15
 4624 1c30 EF90      		pop r14
 4625 1c32 DF90      		pop r13
 4626 1c34 CF90      		pop r12
 4627 1c36 BF90      		pop r11
 4628 1c38 AF90      		pop r10
 4629 1c3a 9F90      		pop r9
 4630 1c3c 8F90      		pop r8
 4631 1c3e 7F90      		pop r7
 4632 1c40 6F90      		pop r6
 4633 1c42 5F90      		pop r5
 4634 1c44 4F90      		pop r4
 4635 1c46 3F90      		pop r3
 4636 1c48 2F90      		pop r2
 4637 1c4a 0895      		ret
 4638               	.LFE9:
 4640               	.global	fat_read_dir
 4642               	fat_read_dir:
 4643               	.LFB21:
 4644               	.LM213:
 4645               	.LVL331:
 4646 1c4c 2F92      		push r2
 4647 1c4e 3F92      		push r3
 4648 1c50 4F92      		push r4
 4649 1c52 5F92      		push r5
 4650 1c54 6F92      		push r6
 4651 1c56 7F92      		push r7
 4652 1c58 8F92      		push r8
 4653 1c5a 9F92      		push r9
 4654 1c5c AF92      		push r10
 4655 1c5e BF92      		push r11
 4656 1c60 CF92      		push r12
 4657 1c62 DF92      		push r13
 4658 1c64 EF92      		push r14
 4659 1c66 FF92      		push r15
 4660 1c68 0F93      		push r16
 4661 1c6a 1F93      		push r17
 4662 1c6c DF93      		push r29
 4663 1c6e CF93      		push r28
 4664 1c70 CDB7      		in r28,__SP_L__
 4665 1c72 DEB7      		in r29,__SP_H__
 4666 1c74 E797      		sbiw r28,55
 4667 1c76 0FB6      		in __tmp_reg__,__SREG__
 4668 1c78 F894      		cli
 4669 1c7a DEBF      		out __SP_H__,r29
 4670 1c7c 0FBE      		out __SREG__,__tmp_reg__
 4671 1c7e CDBF      		out __SP_L__,r28
 4672               	/* prologue: function */
 4673               	/* frame size = 55 */
 4674 1c80 9DAB      		std Y+53,r25
 4675 1c82 8CAB      		std Y+52,r24
 4676 1c84 7FAB      		std Y+55,r23
 4677 1c86 6EAB      		std Y+54,r22
 4678               	.LM214:
 4679 1c88 0097      		sbiw r24,0
 4680 1c8a 01F4      		brne .+2
 4681 1c8c 00C0      		rjmp .L347
 4682               	.LVL332:
 4683 1c8e 6115      		cp r22,__zero_reg__
 4684 1c90 7105      		cpc r23,__zero_reg__
 4685 1c92 01F4      		brne .+2
 4686 1c94 00C0      		rjmp .L347
 4687               	.LVL333:
 4688               	.LM215:
 4689 1c96 DC01      		movw r26,r24
 4690 1c98 0D90      		ld __tmp_reg__,X+
 4691 1c9a BC91      		ld r27,X
 4692 1c9c A02D      		mov r26,__tmp_reg__
 4693 1c9e BBAB      		std Y+51,r27
 4694 1ca0 AAAB      		std Y+50,r26
 4695               	.LVL334:
 4696               	.LM216:
 4697 1ca2 5896      		adiw r26,24
 4698 1ca4 ED91      		ld r30,X+
 4699 1ca6 FC91      		ld r31,X
 4700 1ca8 5997      		sbiw r26,24+1
 4701 1caa F9AB      		std Y+49,r31
 4702 1cac E8AB      		std Y+48,r30
 4703               	.LVL335:
 4704               	.LM217:
 4705 1cae DC01      		movw r26,r24
 4706 1cb0 D396      		adiw r26,51
 4707 1cb2 2D91      		ld r18,X+
 4708 1cb4 3D91      		ld r19,X+
 4709 1cb6 4D91      		ld r20,X+
 4710 1cb8 5C91      		ld r21,X
 4711 1cba D697      		sbiw r26,51+3
 4712 1cbc 2CA7      		std Y+44,r18
 4713 1cbe 3DA7      		std Y+45,r19
 4714 1cc0 4EA7      		std Y+46,r20
 4715 1cc2 5FA7      		std Y+47,r21
 4716               	.LVL336:
 4717               	.LM218:
 4718 1cc4 D796      		adiw r26,55
 4719 1cc6 ED91      		ld r30,X+
 4720 1cc8 FC91      		ld r31,X
 4721 1cca D897      		sbiw r26,55+1
 4722 1ccc FBA7      		std Y+43,r31
 4723 1cce EAA7      		std Y+42,r30
 4724               	.LVL337:
 4725               	.LM219:
 4726 1cd0 81E3      		ldi r24,lo8(49)
 4727               	.LVL338:
 4728 1cd2 DB01      		movw r26,r22
 4729 1cd4 1D92      		st X+,__zero_reg__
 4730 1cd6 8A95      	        dec r24
 4731 1cd8 01F4      		brne .-6
 4732               	.LM220:
 4733 1cda FE01      		movw r30,r28
 4734 1cdc 3196      		adiw r30,1
 4735 1cde 85E0      		ldi r24,lo8(5)
 4736 1ce0 DF01      		movw r26,r30
 4737 1ce2 1D92      		st X+,__zero_reg__
 4738 1ce4 8A95      	        dec r24
 4739 1ce6 01F4      		brne .-6
 4740               	.LM221:
 4741 1ce8 2115      		cp r18,__zero_reg__
 4742 1cea 3105      		cpc r19,__zero_reg__
 4743 1cec 4105      		cpc r20,__zero_reg__
 4744 1cee 5105      		cpc r21,__zero_reg__
 4745 1cf0 01F0      		breq .+2
 4746 1cf2 00C0      		rjmp .L348
 4747               	.LM222:
 4748 1cf4 AAA9      		ldd r26,Y+50
 4749 1cf6 BBA9      		ldd r27,Y+51
 4750 1cf8 ED91      		ld r30,X+
 4751 1cfa FC91      		ld r31,X
 4752 1cfc 1197      		sbiw r26,1
 4753 1cfe 8085      		ldd r24,Z+8
 4754 1d00 8B30      		cpi r24,lo8(11)
 4755 1d02 01F4      		brne .L349
 4756               	.LM223:
 4757 1d04 9A96      		adiw r26,42
 4758 1d06 2D91      		ld r18,X+
 4759 1d08 3D91      		ld r19,X+
 4760 1d0a 4D91      		ld r20,X+
 4761 1d0c 5C91      		ld r21,X
 4762 1d0e 9D97      		sbiw r26,42+3
 4763 1d10 2CA7      		std Y+44,r18
 4764 1d12 3DA7      		std Y+45,r19
 4765 1d14 4EA7      		std Y+46,r20
 4766 1d16 5FA7      		std Y+47,r21
 4767               	.LVL339:
 4768 1d18 00C0      		rjmp .L348
 4769               	.L349:
 4770               	.LM224:
 4771 1d1a EAA9      		ldd r30,Y+50
 4772 1d1c FBA9      		ldd r31,Y+51
 4773 1d1e 028C      		ldd __tmp_reg__,Z+26
 4774 1d20 F38D      		ldd r31,Z+27
 4775 1d22 E02D      		mov r30,__tmp_reg__
 4776 1d24 AAA9      		ldd r26,Y+50
 4777 1d26 BBA9      		ldd r27,Y+51
 4778 1d28 9296      		adiw r26,34
 4779 1d2a 8D91      		ld r24,X+
 4780 1d2c 9C91      		ld r25,X
 4781 1d2e 9397      		sbiw r26,34+1
 4782 1d30 E81B      		sub r30,r24
 4783 1d32 F90B      		sbc r31,r25
 4784 1d34 F9AB      		std Y+49,r31
 4785 1d36 E8AB      		std Y+48,r30
 4786               	.LVL340:
 4787 1d38 00C0      		rjmp .L348
 4788               	.LVL341:
 4789               	.L369:
 4790               	.LBB67:
 4791               	.LM225:
 4792 1d3a 4AA5      		ldd r20,Y+42
 4793 1d3c 5BA5      		ldd r21,Y+43
 4794 1d3e 9A01      		movw r18,r20
 4795 1d40 40E0      		ldi r20,lo8(0)
 4796 1d42 50E0      		ldi r21,hi8(0)
 4797 1d44 2EA3      		std Y+38,r18
 4798 1d46 3FA3      		std Y+39,r19
 4799 1d48 48A7      		std Y+40,r20
 4800 1d4a 59A7      		std Y+41,r21
 4801               	.LVL342:
 4802               	.LM226:
 4803 1d4c 8CA5      		ldd r24,Y+44
 4804 1d4e 9DA5      		ldd r25,Y+45
 4805 1d50 AEA5      		ldd r26,Y+46
 4806 1d52 BFA5      		ldd r27,Y+47
 4807 1d54 0097      		sbiw r24,0
 4808 1d56 A105      		cpc r26,__zero_reg__
 4809 1d58 B105      		cpc r27,__zero_reg__
 4810 1d5a 01F4      		brne .L350
 4811               	.LM227:
 4812 1d5c EAA9      		ldd r30,Y+50
 4813 1d5e FBA9      		ldd r31,Y+51
 4814 1d60 82A1      		ldd r24,Z+34
 4815 1d62 93A1      		ldd r25,Z+35
 4816 1d64 A4A1      		ldd r26,Z+36
 4817 1d66 B5A1      		ldd r27,Z+37
 4818               	.LVL343:
 4819 1d68 00C0      		rjmp .L376
 4820               	.LVL344:
 4821               	.L350:
 4822               	.LBB68:
 4823               	.LBB69:
 4824               	.LM228:
 4825 1d6a 2AA9      		ldd r18,Y+50
 4826 1d6c 3BA9      		ldd r19,Y+51
 4827 1d6e 2115      		cp r18,__zero_reg__
 4828 1d70 3105      		cpc r19,__zero_reg__
 4829 1d72 01F4      		brne .+2
 4830 1d74 00C0      		rjmp .L352
 4831 1d76 8CA5      		ldd r24,Y+44
 4832 1d78 9DA5      		ldd r25,Y+45
 4833 1d7a AEA5      		ldd r26,Y+46
 4834 1d7c BFA5      		ldd r27,Y+47
 4835 1d7e 8230      		cpi r24,lo8(2)
 4836 1d80 9105      		cpc r25,__zero_reg__
 4837 1d82 A105      		cpc r26,__zero_reg__
 4838 1d84 B105      		cpc r27,__zero_reg__
 4839 1d86 00F4      		brsh .+2
 4840 1d88 00C0      		rjmp .L352
 4841               	.LM229:
 4842 1d8a 0297      		sbiw r24,2
 4843 1d8c A109      		sbc r26,__zero_reg__
 4844 1d8e B109      		sbc r27,__zero_reg__
 4845 1d90 5C01      		movw r10,r24
 4846 1d92 6D01      		movw r12,r26
 4847 1d94 0296      		adiw r24,2
 4848 1d96 A11D      		adc r26,__zero_reg__
 4849 1d98 B11D      		adc r27,__zero_reg__
 4850 1d9a 8CA7      		std Y+44,r24
 4851 1d9c 9DA7      		std Y+45,r25
 4852 1d9e AEA7      		std Y+46,r26
 4853 1da0 BFA7      		std Y+47,r27
 4854               	.LVL345:
 4855 1da2 D901      		movw r26,r18
 4856 1da4 5896      		adiw r26,24
 4857 1da6 2D90      		ld r2,X+
 4858 1da8 3C90      		ld r3,X
 4859 1daa 5997      		sbiw r26,24+1
 4860 1dac 9501      		movw r18,r10
 4861 1dae A601      		movw r20,r12
 4862 1db0 60E0      		ldi r22,lo8(0)
 4863 1db2 70E0      		ldi r23,lo8(0)
 4864 1db4 80E0      		ldi r24,lo8(0)
 4865 1db6 90E0      		ldi r25,lo8(0)
 4866 1db8 5101      		movw r10,r2
 4867 1dba CC24      		clr r12
 4868 1dbc DD24      		clr r13
 4869 1dbe EE24      		clr r14
 4870 1dc0 FF24      		clr r15
 4871 1dc2 00E0      		ldi r16,lo8(0)
 4872 1dc4 10E0      		ldi r17,lo8(0)
 4873 1dc6 0E94 0000 		call __muldi3
 4874 1dca EAA9      		ldd r30,Y+50
 4875 1dcc FBA9      		ldd r31,Y+51
 4876 1dce A28D      		ldd r26,Z+26
 4877 1dd0 F38C      		ldd r15,Z+27
 4878 1dd2 B48D      		ldd r27,Z+28
 4879 1dd4 058D      		ldd r16,Z+29
 4880 1dd6 D68C      		ldd r13,Z+30
 4881 1dd8 A20F      		add r26,r18
 4882 1dda F1E0      		ldi r31,lo8(1)
 4883 1ddc A217      		cp r26,r18
 4884 1dde 00F0      		brlo .L353
 4885 1de0 F0E0      		ldi r31,lo8(0)
 4886               	.L353:
 4887 1de2 232F      		mov r18,r19
 4888 1de4 2F0D      		add r18,r15
 4889 1de6 E1E0      		ldi r30,lo8(1)
 4890 1de8 2317      		cp r18,r19
 4891 1dea 00F0      		brlo .L354
 4892 1dec E0E0      		ldi r30,lo8(0)
 4893               	.L354:
 4894 1dee CF2E      		mov r12,r31
 4895 1df0 C20E      		add r12,r18
 4896 1df2 31E0      		ldi r19,lo8(1)
 4897 1df4 C216      		cp r12,r18
 4898 1df6 00F0      		brlo .L355
 4899 1df8 30E0      		ldi r19,lo8(0)
 4900               	.L355:
 4901 1dfa E32B      		or r30,r19
 4902 1dfc 242F      		mov r18,r20
 4903 1dfe 2B0F      		add r18,r27
 4904 1e00 F1E0      		ldi r31,lo8(1)
 4905 1e02 2417      		cp r18,r20
 4906 1e04 00F0      		brlo .L356
 4907 1e06 F0E0      		ldi r31,lo8(0)
 4908               	.L356:
 4909 1e08 EE2E      		mov r14,r30
 4910 1e0a E20E      		add r14,r18
 4911 1e0c 31E0      		ldi r19,lo8(1)
 4912 1e0e E216      		cp r14,r18
 4913 1e10 00F0      		brlo .L357
 4914 1e12 30E0      		ldi r19,lo8(0)
 4915               	.L357:
 4916 1e14 F32B      		or r31,r19
 4917 1e16 252F      		mov r18,r21
 4918 1e18 200F      		add r18,r16
 4919 1e1a 41E0      		ldi r20,lo8(1)
 4920 1e1c 2517      		cp r18,r21
 4921 1e1e 00F0      		brlo .L358
 4922 1e20 40E0      		ldi r20,lo8(0)
 4923               	.L358:
 4924 1e22 FF2E      		mov r15,r31
 4925 1e24 F20E      		add r15,r18
 4926 1e26 31E0      		ldi r19,lo8(1)
 4927 1e28 F216      		cp r15,r18
 4928 1e2a 00F0      		brlo .L359
 4929 1e2c 30E0      		ldi r19,lo8(0)
 4930               	.L359:
 4931 1e2e 432B      		or r20,r19
 4932 1e30 262F      		mov r18,r22
 4933 1e32 2D0D      		add r18,r13
 4934 1e34 042F      		mov r16,r20
 4935 1e36 020F      		add r16,r18
 4936 1e38 2A2F      		mov r18,r26
 4937 1e3a 3C2D      		mov r19,r12
 4938 1e3c A701      		movw r20,r14
 4939 1e3e 00C0      		rjmp .L366
 4940               	.LVL346:
 4941               	.L352:
 4942 1e40 20E0      		ldi r18,lo8(0)
 4943 1e42 30E0      		ldi r19,lo8(0)
 4944 1e44 40E0      		ldi r20,lo8(0)
 4945 1e46 50E0      		ldi r21,lo8(0)
 4946               	.L366:
 4947               	.LBE69:
 4948               	.LBE68:
 4949               	.LM230:
 4950 1e48 8EA1      		ldd r24,Y+38
 4951 1e4a 9FA1      		ldd r25,Y+39
 4952 1e4c A8A5      		ldd r26,Y+40
 4953 1e4e B9A5      		ldd r27,Y+41
 4954               	.LVL347:
 4955               	.L376:
 4956 1e50 820F      		add r24,r18
 4957 1e52 931F      		adc r25,r19
 4958 1e54 A41F      		adc r26,r20
 4959 1e56 B51F      		adc r27,r21
 4960               	.LM231:
 4961 1e58 1C82      		std Y+4,__zero_reg__
 4962 1e5a 1B82      		std Y+3,__zero_reg__
 4963               	.LM232:
 4964 1e5c EAA9      		ldd r30,Y+50
 4965 1e5e FBA9      		ldd r31,Y+51
 4966 1e60 2081      		ld r18,Z
 4967 1e62 3181      		ldd r19,Z+1
 4968 1e64 2C01      		movw r4,r24
 4969 1e66 3D01      		movw r6,r26
 4970 1e68 C8A8      		ldd r12,Y+48
 4971 1e6a D9A8      		ldd r13,Y+49
 4972 1e6c 4AA5      		ldd r20,Y+42
 4973 1e6e 5BA5      		ldd r21,Y+43
 4974 1e70 C41A      		sub r12,r20
 4975 1e72 D50A      		sbc r13,r21
 4976 1e74 D901      		movw r26,r18
 4977 1e76 1296      		adiw r26,2
 4978 1e78 ED91      		ld r30,X+
 4979 1e7a FC91      		ld r31,X
 4980 1e7c 1397      		sbiw r26,2+1
 4981 1e7e 9201      		movw r18,r4
 4982 1e80 A301      		movw r20,r6
 4983 1e82 60E0      		ldi r22,lo8(0)
 4984 1e84 70E0      		ldi r23,lo8(0)
 4985 1e86 80E0      		ldi r24,lo8(0)
 4986               	.LVL348:
 4987 1e88 90E0      		ldi r25,lo8(0)
 4988 1e8a 8E01      		movw r16,r28
 4989 1e8c 0A5F      		subi r16,lo8(-(6))
 4990 1e8e 1F4F      		sbci r17,hi8(-(6))
 4991 1e90 B0E2      		ldi r27,lo8(32)
 4992 1e92 EB2E      		mov r14,r27
 4993 1e94 F12C      		mov r15,__zero_reg__
 4994 1e96 A0E0      		ldi r26,lo8(gs(fat_dir_entry_read_callback))
 4995 1e98 AA2E      		mov r10,r26
 4996 1e9a A0E0      		ldi r26,hi8(gs(fat_dir_entry_read_callback))
 4997 1e9c BA2E      		mov r11,r26
 4998 1e9e 4E01      		movw r8,r28
 4999 1ea0 0894      		sec
 5000 1ea2 811C      		adc r8,__zero_reg__
 5001 1ea4 911C      		adc r9,__zero_reg__
 5002 1ea6 0995      		icall
 5003 1ea8 8823      		tst r24
 5004 1eaa 01F4      		brne .+2
 5005 1eac 00C0      		rjmp .L347
 5006               	.LM233:
 5007 1eae 8B81      		ldd r24,Y+3
 5008 1eb0 9C81      		ldd r25,Y+4
 5009 1eb2 EAA5      		ldd r30,Y+42
 5010 1eb4 FBA5      		ldd r31,Y+43
 5011 1eb6 E80F      		add r30,r24
 5012 1eb8 F91F      		adc r31,r25
 5013 1eba FBA7      		std Y+43,r31
 5014 1ebc EAA7      		std Y+42,r30
 5015               	.LVL349:
 5016               	.LM234:
 5017 1ebe 28A9      		ldd r18,Y+48
 5018 1ec0 39A9      		ldd r19,Y+49
 5019 1ec2 E217      		cp r30,r18
 5020 1ec4 F307      		cpc r31,r19
 5021 1ec6 00F0      		brlo .L375
 5022               	.LM235:
 5023 1ec8 8AA9      		ldd r24,Y+50
 5024 1eca 9BA9      		ldd r25,Y+51
 5025 1ecc 4CA5      		ldd r20,Y+44
 5026 1ece 5DA5      		ldd r21,Y+45
 5027 1ed0 6EA5      		ldd r22,Y+46
 5028 1ed2 7FA5      		ldd r23,Y+47
 5029 1ed4 0E94 0000 		call fat_get_next_cluster
 5030 1ed8 6CA7      		std Y+44,r22
 5031 1eda 7DA7      		std Y+45,r23
 5032 1edc 8EA7      		std Y+46,r24
 5033 1ede 9FA7      		std Y+47,r25
 5034               	.LVL350:
 5035 1ee0 1BA6      		std Y+43,__zero_reg__
 5036 1ee2 1AA6      		std Y+42,__zero_reg__
 5037               	.LVL351:
 5038 1ee4 6115      		cp r22,__zero_reg__
 5039 1ee6 7105      		cpc r23,__zero_reg__
 5040 1ee8 8105      		cpc r24,__zero_reg__
 5041 1eea 9105      		cpc r25,__zero_reg__
 5042 1eec 01F4      		brne .L375
 5043               	.LM236:
 5044 1eee ACA9      		ldd r26,Y+52
 5045 1ef0 BDA9      		ldd r27,Y+53
 5046 1ef2 9396      		adiw r26,35
 5047 1ef4 8D91      		ld r24,X+
 5048 1ef6 9D91      		ld r25,X+
 5049 1ef8 0D90      		ld __tmp_reg__,X+
 5050 1efa BC91      		ld r27,X
 5051 1efc A02D      		mov r26,__tmp_reg__
 5052 1efe 8CA7      		std Y+44,r24
 5053 1f00 9DA7      		std Y+45,r25
 5054 1f02 AEA7      		std Y+46,r26
 5055 1f04 BFA7      		std Y+47,r27
 5056               	.LVL352:
 5057 1f06 00C0      		rjmp .L368
 5058               	.LVL353:
 5059               	.L348:
 5060               	.LBE67:
 5061               	.LM237:
 5062 1f08 EEA9      		ldd r30,Y+54
 5063 1f0a FFA9      		ldd r31,Y+55
 5064 1f0c FA83      		std Y+2,r31
 5065 1f0e E983      		std Y+1,r30
 5066               	.LVL354:
 5067               	.L375:
 5068               	.LM238:
 5069 1f10 8D81      		ldd r24,Y+5
 5070 1f12 8823      		tst r24
 5071 1f14 01F4      		brne .+2
 5072 1f16 00C0      		rjmp .L369
 5073               	.L368:
 5074               	.LM239:
 5075 1f18 2CA5      		ldd r18,Y+44
 5076 1f1a 3DA5      		ldd r19,Y+45
 5077 1f1c 4EA5      		ldd r20,Y+46
 5078 1f1e 5FA5      		ldd r21,Y+47
 5079 1f20 ACA9      		ldd r26,Y+52
 5080 1f22 BDA9      		ldd r27,Y+53
 5081 1f24 D396      		adiw r26,51
 5082 1f26 2D93      		st X+,r18
 5083 1f28 3D93      		st X+,r19
 5084 1f2a 4D93      		st X+,r20
 5085 1f2c 5C93      		st X,r21
 5086 1f2e D697      		sbiw r26,51+3
 5087               	.LM240:
 5088 1f30 EAA5      		ldd r30,Y+42
 5089 1f32 FBA5      		ldd r31,Y+43
 5090 1f34 D896      		adiw r26,55+1
 5091 1f36 FC93      		st X,r31
 5092 1f38 EE93      		st -X,r30
 5093 1f3a D797      		sbiw r26,55
 5094               	.LM241:
 5095 1f3c AEA9      		ldd r26,Y+54
 5096 1f3e BFA9      		ldd r27,Y+55
 5097 1f40 8C91      		ld r24,X
 5098 1f42 8823      		tst r24
 5099 1f44 01F0      		breq .L371
 5100 1f46 81E0      		ldi r24,lo8(1)
 5101 1f48 00C0      		rjmp .L371
 5102               	.LVL355:
 5103               	.L347:
 5104 1f4a 80E0      		ldi r24,lo8(0)
 5105               	.L371:
 5106               	/* epilogue start */
 5107               	.LM242:
 5108 1f4c E796      		adiw r28,55
 5109 1f4e 0FB6      		in __tmp_reg__,__SREG__
 5110 1f50 F894      		cli
 5111 1f52 DEBF      		out __SP_H__,r29
 5112 1f54 0FBE      		out __SREG__,__tmp_reg__
 5113 1f56 CDBF      		out __SP_L__,r28
 5114 1f58 CF91      		pop r28
 5115 1f5a DF91      		pop r29
 5116 1f5c 1F91      		pop r17
 5117 1f5e 0F91      		pop r16
 5118 1f60 FF90      		pop r15
 5119 1f62 EF90      		pop r14
 5120 1f64 DF90      		pop r13
 5121 1f66 CF90      		pop r12
 5122 1f68 BF90      		pop r11
 5123 1f6a AF90      		pop r10
 5124 1f6c 9F90      		pop r9
 5125 1f6e 8F90      		pop r8
 5126 1f70 7F90      		pop r7
 5127 1f72 6F90      		pop r6
 5128 1f74 5F90      		pop r5
 5129 1f76 4F90      		pop r4
 5130 1f78 3F90      		pop r3
 5131 1f7a 2F90      		pop r2
 5132 1f7c 0895      		ret
 5133               	.LFE21:
 5135               	.global	fat_open
 5137               	fat_open:
 5138               	.LFB2:
 5139               	.LM243:
 5140               	.LVL356:
 5141 1f7e 2F92      		push r2
 5142 1f80 3F92      		push r3
 5143 1f82 4F92      		push r4
 5144 1f84 5F92      		push r5
 5145 1f86 6F92      		push r6
 5146 1f88 7F92      		push r7
 5147 1f8a 8F92      		push r8
 5148 1f8c 9F92      		push r9
 5149 1f8e AF92      		push r10
 5150 1f90 BF92      		push r11
 5151 1f92 CF92      		push r12
 5152 1f94 DF92      		push r13
 5153 1f96 EF92      		push r14
 5154 1f98 FF92      		push r15
 5155 1f9a 0F93      		push r16
 5156 1f9c 1F93      		push r17
 5157 1f9e DF93      		push r29
 5158 1fa0 CF93      		push r28
 5159 1fa2 CDB7      		in r28,__SP_L__
 5160 1fa4 DEB7      		in r29,__SP_H__
 5161 1fa6 CD54      		subi r28,lo8(-(-77))
 5162 1fa8 D040      		sbci r29,hi8(-(-77))
 5163 1faa 0FB6      		in __tmp_reg__,__SREG__
 5164 1fac F894      		cli
 5165 1fae DEBF      		out __SP_H__,r29
 5166 1fb0 0FBE      		out __SREG__,__tmp_reg__
 5167 1fb2 CDBF      		out __SP_L__,r28
 5168               	/* prologue: function */
 5169               	/* frame size = 77 */
 5170 1fb4 2C01      		movw r4,r24
 5171               	.LM244:
 5172 1fb6 0097      		sbiw r24,0
 5173 1fb8 01F4      		brne .+2
 5174 1fba 00C0      		rjmp .L378
 5175 1fbc DC01      		movw r26,r24
 5176 1fbe 1496      		adiw r26,4
 5177 1fc0 8D91      		ld r24,X+
 5178 1fc2 9C91      		ld r25,X
 5179 1fc4 1597      		sbiw r26,4+1
 5180               	.LVL357:
 5181 1fc6 892B      		or r24,r25
 5182 1fc8 01F4      		brne .+2
 5183 1fca 00C0      		rjmp .L378
 5184 1fcc 1696      		adiw r26,6
 5185 1fce 8D91      		ld r24,X+
 5186 1fd0 9C91      		ld r25,X
 5187 1fd2 1797      		sbiw r26,6+1
 5188 1fd4 892B      		or r24,r25
 5189 1fd6 01F4      		brne .+2
 5190 1fd8 00C0      		rjmp .L378
 5191 1fda 00C0      		rjmp .L459
 5192               	.L460:
 5193               	.LM245:
 5194 1fdc E0E0      		ldi r30,lo8(fat_fs_handles)
 5195 1fde F0E0      		ldi r31,hi8(fat_fs_handles)
 5196 1fe0 8EE2      		ldi r24,lo8(46)
 5197 1fe2 DF01      		movw r26,r30
 5198 1fe4 1D92      		st X+,__zero_reg__
 5199 1fe6 8A95      	        dec r24
 5200 1fe8 01F4      		brne .-6
 5201               	.LM246:
 5202 1fea 5092 0000 		sts (fat_fs_handles)+1,r5
 5203 1fee 4092 0000 		sts fat_fs_handles,r4
 5204               	.LBB72:
 5205               	.LBB73:
 5206               	.LM247:
 5207 1ff2 F201      		movw r30,r4
 5208 1ff4 A184      		ldd r10,Z+9
 5209 1ff6 B284      		ldd r11,Z+10
 5210 1ff8 C384      		ldd r12,Z+11
 5211 1ffa D484      		ldd r13,Z+12
 5212 1ffc 9501      		movw r18,r10
 5213 1ffe A601      		movw r20,r12
 5214 2000 60E0      		ldi r22,lo8(0)
 5215 2002 70E0      		ldi r23,lo8(0)
 5216 2004 80E0      		ldi r24,lo8(0)
 5217 2006 90E0      		ldi r25,lo8(0)
 5218 2008 09E0      		ldi r16,lo8(9)
 5219 200a 0E94 0000 		call __ashldi3
 5220 200e 2EAF      		std Y+62,r18
 5221 2010 3FAF      		std Y+63,r19
 5222 2012 2196      		adiw r28,64-63
 5223 2014 4FAF      		std Y+63,r20
 5224 2016 2197      		sbiw r28,64-63
 5225 2018 2296      		adiw r28,65-63
 5226 201a 5FAF      		std Y+63,r21
 5227 201c 2297      		sbiw r28,65-63
 5228 201e 2396      		adiw r28,66-63
 5229 2020 6FAF      		std Y+63,r22
 5230 2022 2397      		sbiw r28,66-63
 5231 2024 2496      		adiw r28,67-63
 5232 2026 7FAF      		std Y+63,r23
 5233 2028 2497      		sbiw r28,67-63
 5234 202a 2596      		adiw r28,68-63
 5235 202c 8FAF      		std Y+63,r24
 5236 202e 2597      		sbiw r28,68-63
 5237 2030 2696      		adiw r28,69-63
 5238 2032 9FAF      		std Y+63,r25
 5239 2034 2697      		sbiw r28,69-63
 5240               	.LBE73:
 5241               	.LM248:
 5242 2036 255F      		subi r18,lo8(-(11))
 5243 2038 31E0      		ldi r19,lo8(1)
 5244 203a FEAD      		ldd r31,Y+62
 5245 203c 2F17      		cp r18,r31
 5246 203e 00F0      		brlo .L380
 5247 2040 30E0      		ldi r19,lo8(0)
 5248               	.L380:
 5249 2042 EFAC      		ldd r14,Y+63
 5250 2044 3E0D      		add r19,r14
 5251 2046 41E0      		ldi r20,lo8(1)
 5252 2048 3E15      		cp r19,r14
 5253 204a 00F0      		brlo .L382
 5254 204c 40E0      		ldi r20,lo8(0)
 5255               	.L382:
 5256 204e 2196      		adiw r28,64-63
 5257 2050 FFAC      		ldd r15,Y+63
 5258 2052 2197      		sbiw r28,64-63
 5259 2054 4F0D      		add r20,r15
 5260 2056 51E0      		ldi r21,lo8(1)
 5261 2058 4F15      		cp r20,r15
 5262 205a 00F0      		brlo .L384
 5263 205c 50E0      		ldi r21,lo8(0)
 5264               	.L384:
 5265 205e 2296      		adiw r28,65-63
 5266 2060 0FAD      		ldd r16,Y+63
 5267 2062 2297      		sbiw r28,65-63
 5268 2064 500F      		add r21,r16
 5269 2066 61E0      		ldi r22,lo8(1)
 5270 2068 5017      		cp r21,r16
 5271 206a 00F0      		brlo .L386
 5272 206c 60E0      		ldi r22,lo8(0)
 5273               	.L386:
 5274 206e 2396      		adiw r28,66-63
 5275 2070 1FAD      		ldd r17,Y+63
 5276 2072 2397      		sbiw r28,66-63
 5277 2074 610F      		add r22,r17
 5278 2076 71E0      		ldi r23,lo8(1)
 5279 2078 6117      		cp r22,r17
 5280 207a 00F0      		brlo .L388
 5281 207c 70E0      		ldi r23,lo8(0)
 5282               	.L388:
 5283 207e 2496      		adiw r28,67-63
 5284 2080 8FAD      		ldd r24,Y+63
 5285 2082 2497      		sbiw r28,67-63
 5286 2084 780F      		add r23,r24
 5287 2086 81E0      		ldi r24,lo8(1)
 5288 2088 2496      		adiw r28,67-63
 5289 208a 9FAD      		ldd r25,Y+63
 5290 208c 2497      		sbiw r28,67-63
 5291 208e 7917      		cp r23,r25
 5292 2090 00F0      		brlo .L390
 5293 2092 80E0      		ldi r24,lo8(0)
 5294               	.L390:
 5295 2094 2596      		adiw r28,68-63
 5296 2096 AFAD      		ldd r26,Y+63
 5297 2098 2597      		sbiw r28,68-63
 5298 209a 8A0F      		add r24,r26
 5299 209c 91E0      		ldi r25,lo8(1)
 5300 209e 8A17      		cp r24,r26
 5301 20a0 00F0      		brlo .L392
 5302 20a2 90E0      		ldi r25,lo8(0)
 5303               	.L392:
 5304 20a4 D201      		movw r26,r4
 5305 20a6 ED91      		ld r30,X+
 5306 20a8 FC91      		ld r31,X
 5307 20aa 2696      		adiw r28,69-63
 5308 20ac BFAD      		ldd r27,Y+63
 5309 20ae 2697      		sbiw r28,69-63
 5310 20b0 9B0F      		add r25,r27
 5311 20b2 8E01      		movw r16,r28
 5312 20b4 0F5F      		subi r16,lo8(-(1))
 5313 20b6 1F4F      		sbci r17,hi8(-(1))
 5314 20b8 A5E2      		ldi r26,lo8(37)
 5315 20ba EA2E      		mov r14,r26
 5316 20bc F12C      		mov r15,__zero_reg__
 5317 20be 0995      		icall
 5318               	.LBB74:
 5319 20c0 8823      		tst r24
 5320 20c2 01F4      		brne .+2
 5321 20c4 00C0      		rjmp .L393
 5322               	.LM249:
 5323 20c6 2980      		ldd r2,Y+1
 5324 20c8 3A80      		ldd r3,Y+2
 5325               	.LVL358:
 5326               	.LM250:
 5327 20ca EC81      		ldd r30,Y+4
 5328 20cc FD81      		ldd r31,Y+5
 5329 20ce FFA7      		std Y+47,r31
 5330 20d0 EEA7      		std Y+46,r30
 5331               	.LVL359:
 5332               	.LM251:
 5333 20d2 FB81      		ldd r31,Y+3
 5334 20d4 F8AB      		std Y+48,r31
 5335               	.LVL360:
 5336               	.LM252:
 5337 20d6 EE80      		ldd r14,Y+6
 5338 20d8 E9AA      		std Y+49,r14
 5339               	.LVL361:
 5340               	.LM253:
 5341 20da 0F81      		ldd r16,Y+7
 5342 20dc 1885      		ldd r17,Y+8
 5343 20de 1BAB      		std Y+51,r17
 5344 20e0 0AAB      		std Y+50,r16
 5345               	.LVL362:
 5346               	.LM254:
 5347 20e2 8985      		ldd r24,Y+9
 5348 20e4 9A85      		ldd r25,Y+10
 5349               	.LVL363:
 5350               	.LM255:
 5351 20e6 2C85      		ldd r18,Y+12
 5352 20e8 3D85      		ldd r19,Y+13
 5353 20ea 3DAB      		std Y+53,r19
 5354 20ec 2CAB      		std Y+52,r18
 5355               	.LVL364:
 5356               	.LM256:
 5357 20ee AE88      		ldd r10,Y+22
 5358 20f0 BF88      		ldd r11,Y+23
 5359 20f2 C88C      		ldd r12,Y+24
 5360 20f4 D98C      		ldd r13,Y+25
 5361               	.LVL365:
 5362               	.LM257:
 5363 20f6 4A8D      		ldd r20,Y+26
 5364 20f8 5B8D      		ldd r21,Y+27
 5365 20fa 6C8D      		ldd r22,Y+28
 5366 20fc 7D8D      		ldd r23,Y+29
 5367 20fe 4EAB      		std Y+54,r20
 5368 2100 5FAB      		std Y+55,r21
 5369 2102 68AF      		std Y+56,r22
 5370 2104 79AF      		std Y+57,r23
 5371               	.LVL366:
 5372               	.LM258:
 5373 2106 EAA0      		ldd r14,Y+34
 5374 2108 FBA0      		ldd r15,Y+35
 5375 210a 0CA1      		ldd r16,Y+36
 5376 210c 1DA1      		ldd r17,Y+37
 5377 210e EAAE      		std Y+58,r14
 5378 2110 FBAE      		std Y+59,r15
 5379 2112 0CAF      		std Y+60,r16
 5380 2114 1DAF      		std Y+61,r17
 5381               	.LVL367:
 5382               	.LM259:
 5383 2116 A114      		cp r10,__zero_reg__
 5384 2118 B104      		cpc r11,__zero_reg__
 5385 211a C104      		cpc r12,__zero_reg__
 5386 211c D104      		cpc r13,__zero_reg__
 5387 211e 01F4      		brne .L394
 5388               	.LM260:
 5389 2120 0097      		sbiw r24,0
 5390 2122 01F4      		brne .+2
 5391 2124 00C0      		rjmp .L393
 5392               	.LM261:
 5393 2126 5C01      		movw r10,r24
 5394               	.LVL368:
 5395 2128 CC24      		clr r12
 5396 212a DD24      		clr r13
 5397               	.LVL369:
 5398               	.L394:
 5399               	.LM262:
 5400 212c 0CA9      		ldd r16,Y+52
 5401 212e 1DA9      		ldd r17,Y+53
 5402 2130 0115      		cp r16,__zero_reg__
 5403 2132 1105      		cpc r17,__zero_reg__
 5404 2134 01F0      		breq .L395
 5405               	.LM263:
 5406 2136 9801      		movw r18,r16
 5407 2138 40E0      		ldi r20,lo8(0)
 5408 213a 50E0      		ldi r21,hi8(0)
 5409 213c 2EAB      		std Y+54,r18
 5410 213e 3FAB      		std Y+55,r19
 5411 2140 48AF      		std Y+56,r20
 5412 2142 59AF      		std Y+57,r21
 5413               	.LVL370:
 5414 2144 00C0      		rjmp .L396
 5415               	.L395:
 5416               	.LM264:
 5417 2146 6EA9      		ldd r22,Y+54
 5418 2148 7FA9      		ldd r23,Y+55
 5419 214a 88AD      		ldd r24,Y+56
 5420 214c 99AD      		ldd r25,Y+57
 5421 214e 6115      		cp r22,__zero_reg__
 5422 2150 7105      		cpc r23,__zero_reg__
 5423 2152 8105      		cpc r24,__zero_reg__
 5424 2154 9105      		cpc r25,__zero_reg__
 5425 2156 01F4      		brne .+2
 5426 2158 00C0      		rjmp .L393
 5427               	.L396:
 5428               	.LM265:
 5429 215a EEA5      		ldd r30,Y+46
 5430 215c FFA5      		ldd r31,Y+47
 5431 215e CF01      		movw r24,r30
 5432               	.LVL371:
 5433 2160 A0E0      		ldi r26,lo8(0)
 5434 2162 B0E0      		ldi r27,hi8(0)
 5435               	.LVL372:
 5436 2164 8601      		movw r16,r12
 5437 2166 7501      		movw r14,r10
 5438 2168 E81A      		sub r14,r24
 5439 216a F90A      		sbc r15,r25
 5440 216c 0A0B      		sbc r16,r26
 5441 216e 1B0B      		sbc r17,r27
 5442 2170 F9A9      		ldd r31,Y+49
 5443 2172 2F2F      		mov r18,r31
 5444               	.LVL373:
 5445 2174 30E0      		ldi r19,lo8(0)
 5446               	.LVL374:
 5447 2176 40E0      		ldi r20,lo8(0)
 5448 2178 50E0      		ldi r21,hi8(0)
 5449               	.LVL375:
 5450 217a 6EA9      		ldd r22,Y+54
 5451 217c 7FA9      		ldd r23,Y+55
 5452 217e 88AD      		ldd r24,Y+56
 5453 2180 99AD      		ldd r25,Y+57
 5454 2182 0E94 0000 		call __mulsi3
 5455               	.LVL376:
 5456 2186 E61A      		sub r14,r22
 5457 2188 F70A      		sbc r15,r23
 5458 218a 080B      		sbc r16,r24
 5459 218c 190B      		sbc r17,r25
 5460 218e C101      		movw r24,r2
 5461               	.LVL377:
 5462 2190 0197      		sbiw r24,1
 5463 2192 2AA9      		ldd r18,Y+50
 5464 2194 3BA9      		ldd r19,Y+51
 5465 2196 45E0      		ldi r20,5
 5466 2198 220F      	1:	lsl r18
 5467 219a 331F      		rol r19
 5468 219c 4A95      		dec r20
 5469 219e 01F4      		brne 1b
 5470               	.LVL378:
 5471 21a0 820F      		add r24,r18
 5472 21a2 931F      		adc r25,r19
 5473 21a4 B101      		movw r22,r2
 5474 21a6 0E94 0000 		call __udivmodhi4
 5475 21aa 80E0      		ldi r24,lo8(0)
 5476 21ac 90E0      		ldi r25,hi8(0)
 5477 21ae E61A      		sub r14,r22
 5478 21b0 F70A      		sbc r15,r23
 5479 21b2 080B      		sbc r16,r24
 5480 21b4 190B      		sbc r17,r25
 5481 21b6 68A9      		ldd r22,Y+48
 5482 21b8 262F      		mov r18,r22
 5483               	.LVL379:
 5484 21ba 30E0      		ldi r19,lo8(0)
 5485               	.LVL380:
 5486 21bc 40E0      		ldi r20,lo8(0)
 5487 21be 50E0      		ldi r21,hi8(0)
 5488               	.LVL381:
 5489 21c0 C801      		movw r24,r16
 5490 21c2 B701      		movw r22,r14
 5491 21c4 0E94 0000 		call __udivmodsi4
 5492               	.LVL382:
 5493 21c8 3901      		movw r6,r18
 5494 21ca 4A01      		movw r8,r20
 5495               	.LVL383:
 5496               	.LM266:
 5497 21cc 75EF      		ldi r23,lo8(4085)
 5498 21ce 6716      		cp r6,r23
 5499 21d0 7FE0      		ldi r23,hi8(4085)
 5500 21d2 7706      		cpc r7,r23
 5501 21d4 70E0      		ldi r23,hlo8(4085)
 5502 21d6 8706      		cpc r8,r23
 5503 21d8 70E0      		ldi r23,hhi8(4085)
 5504 21da 9706      		cpc r9,r23
 5505               	.LVL384:
 5506 21dc 00F4      		brsh .+2
 5507 21de 00C0      		rjmp .L393
 5508               	.LM267:
 5509 21e0 85EF      		ldi r24,lo8(65525)
 5510 21e2 6816      		cp r6,r24
 5511 21e4 8FEF      		ldi r24,hi8(65525)
 5512 21e6 7806      		cpc r7,r24
 5513 21e8 80E0      		ldi r24,hlo8(65525)
 5514 21ea 8806      		cpc r8,r24
 5515 21ec 80E0      		ldi r24,hhi8(65525)
 5516 21ee 9806      		cpc r9,r24
 5517 21f0 00F4      		brsh .L397
 5518               	.LM268:
 5519 21f2 86E0      		ldi r24,lo8(6)
 5520 21f4 D201      		movw r26,r4
 5521 21f6 1896      		adiw r26,8
 5522 21f8 8C93      		st X,r24
 5523 21fa 00C0      		rjmp .L398
 5524               	.L397:
 5525               	.LM269:
 5526 21fc 8BE0      		ldi r24,lo8(11)
 5527 21fe F201      		movw r30,r4
 5528 2200 8087      		std Z+8,r24
 5529               	.L398:
 5530               	.LM270:
 5531 2202 8CE2      		ldi r24,lo8(44)
 5532 2204 E0E0      		ldi r30,lo8(fat_fs_handles+2)
 5533 2206 F0E0      		ldi r31,hi8(fat_fs_handles+2)
 5534 2208 DF01      		movw r26,r30
 5535 220a 1D92      		st X+,__zero_reg__
 5536 220c 8A95      	        dec r24
 5537 220e 01F4      		brne .-6
 5538               	.LM271:
 5539 2210 7101      		movw r14,r2
 5540 2212 00E0      		ldi r16,lo8(0)
 5541 2214 10E0      		ldi r17,hi8(0)
 5542 2216 20E0      		ldi r18,lo8(0)
 5543 2218 30E0      		ldi r19,hi8(0)
 5544 221a 40E0      		ldi r20,hlo8(0)
 5545 221c 50E0      		ldi r21,hhi8(0)
 5546 221e 2EA2      		std Y+38,r2
 5547               	.LVL385:
 5548 2220 FFA2      		std Y+39,r15
 5549 2222 08A7      		std Y+40,r16
 5550 2224 19A7      		std Y+41,r17
 5551 2226 2AA7      		std Y+42,r18
 5552 2228 3BA7      		std Y+43,r19
 5553               	.LVL386:
 5554 222a 4CA7      		std Y+44,r20
 5555 222c 5DA7      		std Y+45,r21
 5556 222e 9501      		movw r18,r10
 5557               	.LVL387:
 5558 2230 A601      		movw r20,r12
 5559               	.LVL388:
 5560 2232 60E0      		ldi r22,lo8(0)
 5561 2234 70E0      		ldi r23,lo8(0)
 5562 2236 80E0      		ldi r24,lo8(0)
 5563 2238 90E0      		ldi r25,lo8(0)
 5564 223a AEA0      		ldd r10,Y+38
 5565 223c BFA0      		ldd r11,Y+39
 5566 223e CC24      		clr r12
 5567 2240 DD24      		clr r13
 5568 2242 EE24      		clr r14
 5569 2244 FF24      		clr r15
 5570 2246 00E0      		ldi r16,lo8(0)
 5571 2248 10E0      		ldi r17,lo8(0)
 5572 224a 0E94 0000 		call __muldi3
 5573 224e 2093 0000 		sts fat_fs_handles+2,r18
 5574 2252 3093 0000 		sts fat_fs_handles+3,r19
 5575 2256 4093 0000 		sts fat_fs_handles+4,r20
 5576 225a 5093 0000 		sts fat_fs_handles+5,r21
 5577 225e 6093 0000 		sts fat_fs_handles+6,r22
 5578 2262 7093 0000 		sts fat_fs_handles+7,r23
 5579 2266 8093 0000 		sts fat_fs_handles+8,r24
 5580 226a 9093 0000 		sts fat_fs_handles+9,r25
 5581               	.LM272:
 5582 226e 0EA5      		ldd r16,Y+46
 5583 2270 1FA5      		ldd r17,Y+47
 5584               	.LVL389:
 5585 2272 9801      		movw r18,r16
 5586 2274 40E0      		ldi r20,lo8(0)
 5587 2276 50E0      		ldi r21,lo8(0)
 5588 2278 60E0      		ldi r22,lo8(0)
 5589 227a 70E0      		ldi r23,lo8(0)
 5590 227c 80E0      		ldi r24,lo8(0)
 5591 227e 90E0      		ldi r25,lo8(0)
 5592 2280 00E0      		ldi r16,lo8(0)
 5593 2282 10E0      		ldi r17,lo8(0)
 5594 2284 0E94 0000 		call __muldi3
 5595 2288 A32F      		mov r26,r19
 5596 228a B42F      		mov r27,r20
 5597 228c 152F      		mov r17,r21
 5598 228e 062F      		mov r16,r22
 5599 2290 F72E      		mov r15,r23
 5600 2292 D82E      		mov r13,r24
 5601 2294 CEAC      		ldd r12,Y+62
 5602 2296 C20E      		add r12,r18
 5603 2298 F1E0      		ldi r31,lo8(1)
 5604 229a C216      		cp r12,r18
 5605 229c 00F0      		brlo .L399
 5606 229e F0E0      		ldi r31,lo8(0)
 5607               	.L399:
 5608 22a0 3FAD      		ldd r19,Y+63
 5609 22a2 3A0F      		add r19,r26
 5610 22a4 E1E0      		ldi r30,lo8(1)
 5611 22a6 3A17      		cp r19,r26
 5612 22a8 00F0      		brlo .L400
 5613 22aa E0E0      		ldi r30,lo8(0)
 5614               	.L400:
 5615 22ac EF2E      		mov r14,r31
 5616 22ae E30E      		add r14,r19
 5617 22b0 21E0      		ldi r18,lo8(1)
 5618 22b2 E316      		cp r14,r19
 5619 22b4 00F0      		brlo .L401
 5620 22b6 20E0      		ldi r18,lo8(0)
 5621               	.L401:
 5622 22b8 E22B      		or r30,r18
 5623 22ba 2196      		adiw r28,64-63
 5624 22bc 4FAD      		ldd r20,Y+63
 5625 22be 2197      		sbiw r28,64-63
 5626 22c0 4B0F      		add r20,r27
 5627 22c2 31E0      		ldi r19,lo8(1)
 5628 22c4 4B17      		cp r20,r27
 5629 22c6 00F0      		brlo .L402
 5630 22c8 30E0      		ldi r19,lo8(0)
 5631               	.L402:
 5632 22ca AE2F      		mov r26,r30
 5633 22cc A40F      		add r26,r20
 5634 22ce 21E0      		ldi r18,lo8(1)
 5635 22d0 A417      		cp r26,r20
 5636 22d2 00F0      		brlo .L403
 5637 22d4 20E0      		ldi r18,lo8(0)
 5638               	.L403:
 5639 22d6 322B      		or r19,r18
 5640 22d8 2296      		adiw r28,65-63
 5641 22da 5FAD      		ldd r21,Y+63
 5642 22dc 2297      		sbiw r28,65-63
 5643 22de 510F      		add r21,r17
 5644 22e0 41E0      		ldi r20,lo8(1)
 5645 22e2 5117      		cp r21,r17
 5646 22e4 00F0      		brlo .L404
 5647 22e6 40E0      		ldi r20,lo8(0)
 5648               	.L404:
 5649 22e8 F32F      		mov r31,r19
 5650 22ea F50F      		add r31,r21
 5651 22ec 21E0      		ldi r18,lo8(1)
 5652 22ee F517      		cp r31,r21
 5653 22f0 00F0      		brlo .L405
 5654 22f2 20E0      		ldi r18,lo8(0)
 5655               	.L405:
 5656 22f4 422B      		or r20,r18
 5657 22f6 2396      		adiw r28,66-63
 5658 22f8 6FAD      		ldd r22,Y+63
 5659 22fa 2397      		sbiw r28,66-63
 5660 22fc 600F      		add r22,r16
 5661 22fe 31E0      		ldi r19,lo8(1)
 5662 2300 6017      		cp r22,r16
 5663 2302 00F0      		brlo .L406
 5664 2304 30E0      		ldi r19,lo8(0)
 5665               	.L406:
 5666 2306 E42F      		mov r30,r20
 5667 2308 E60F      		add r30,r22
 5668 230a 21E0      		ldi r18,lo8(1)
 5669 230c E617      		cp r30,r22
 5670 230e 00F0      		brlo .L407
 5671 2310 20E0      		ldi r18,lo8(0)
 5672               	.L407:
 5673 2312 322B      		or r19,r18
 5674 2314 2496      		adiw r28,67-63
 5675 2316 7FAD      		ldd r23,Y+63
 5676 2318 2497      		sbiw r28,67-63
 5677 231a 7F0D      		add r23,r15
 5678 231c 41E0      		ldi r20,lo8(1)
 5679 231e 7F15      		cp r23,r15
 5680 2320 00F0      		brlo .L408
 5681 2322 40E0      		ldi r20,lo8(0)
 5682               	.L408:
 5683 2324 532F      		mov r21,r19
 5684 2326 570F      		add r21,r23
 5685 2328 21E0      		ldi r18,lo8(1)
 5686 232a 5717      		cp r21,r23
 5687 232c 00F0      		brlo .L409
 5688 232e 20E0      		ldi r18,lo8(0)
 5689               	.L409:
 5690 2330 422B      		or r20,r18
 5691 2332 2596      		adiw r28,68-63
 5692 2334 8FAD      		ldd r24,Y+63
 5693 2336 2597      		sbiw r28,68-63
 5694 2338 8D0D      		add r24,r13
 5695 233a 21E0      		ldi r18,lo8(1)
 5696 233c 8D15      		cp r24,r13
 5697 233e 00F0      		brlo .L410
 5698 2340 20E0      		ldi r18,lo8(0)
 5699               	.L410:
 5700 2342 480F      		add r20,r24
 5701 2344 31E0      		ldi r19,lo8(1)
 5702 2346 4817      		cp r20,r24
 5703 2348 00F0      		brlo .L411
 5704 234a 30E0      		ldi r19,lo8(0)
 5705               	.L411:
 5706 234c 232B      		or r18,r19
 5707 234e 2696      		adiw r28,69-63
 5708 2350 1FAD      		ldd r17,Y+63
 5709 2352 2697      		sbiw r28,69-63
 5710 2354 910F      		add r25,r17
 5711 2356 290F      		add r18,r25
 5712 2358 C092 0000 		sts fat_fs_handles+10,r12
 5713 235c E092 0000 		sts fat_fs_handles+11,r14
 5714 2360 A093 0000 		sts fat_fs_handles+12,r26
 5715 2364 F093 0000 		sts fat_fs_handles+13,r31
 5716 2368 E093 0000 		sts fat_fs_handles+14,r30
 5717 236c 5093 0000 		sts fat_fs_handles+15,r21
 5718 2370 4093 0000 		sts fat_fs_handles+16,r20
 5719 2374 2093 0000 		sts fat_fs_handles+17,r18
 5720               	.LM273:
 5721 2378 D201      		movw r26,r4
 5722 237a 1896      		adiw r26,8
 5723 237c 8C91      		ld r24,X
 5724 237e 8630      		cpi r24,lo8(6)
 5725 2380 01F0      		breq .L412
 5726 2382 64E0      		ldi r22,lo8(4)
 5727 2384 70E0      		ldi r23,hi8(4)
 5728 2386 80E0      		ldi r24,hlo8(4)
 5729 2388 90E0      		ldi r25,hhi8(4)
 5730 238a 00C0      		rjmp .L413
 5731               	.L412:
 5732 238c 62E0      		ldi r22,lo8(2)
 5733 238e 70E0      		ldi r23,hi8(2)
 5734 2390 80E0      		ldi r24,hlo8(2)
 5735 2392 90E0      		ldi r25,hhi8(2)
 5736               	.L413:
 5737 2394 12E0      		ldi r17,lo8(2)
 5738 2396 E12E      		mov r14,r17
 5739 2398 F12C      		mov r15,__zero_reg__
 5740 239a 012D      		mov r16,__zero_reg__
 5741 239c 112D      		mov r17,__zero_reg__
 5742 239e 6E0C      		add r6,r14
 5743 23a0 7F1C      		adc r7,r15
 5744 23a2 801E      		adc r8,r16
 5745 23a4 911E      		adc r9,r17
 5746 23a6 A401      		movw r20,r8
 5747 23a8 9301      		movw r18,r6
 5748 23aa 0E94 0000 		call __mulsi3
 5749 23ae 6093 0000 		sts fat_fs_handles+18,r22
 5750 23b2 7093 0000 		sts (fat_fs_handles+18)+1,r23
 5751 23b6 8093 0000 		sts (fat_fs_handles+18)+2,r24
 5752 23ba 9093 0000 		sts (fat_fs_handles+18)+3,r25
 5753               	.LM274:
 5754 23be 3092 0000 		sts (fat_fs_handles+22)+1,r3
 5755 23c2 2092 0000 		sts fat_fs_handles+22,r2
 5756               	.LVL390:
 5757               	.LM275:
 5758 23c6 F8A8      		ldd r15,Y+48
 5759               	.LVL391:
 5760 23c8 8F2D      		mov r24,r15
 5761               	.LVL392:
 5762 23ca 90E0      		ldi r25,lo8(0)
 5763               	.LVL393:
 5764 23cc 8C01      		movw r16,r24
 5765 23ce 029D      		mul r16,r2
 5766 23d0 C001      		movw r24,r0
 5767 23d2 039D      		mul r16,r3
 5768 23d4 900D      		add r25,r0
 5769 23d6 129D      		mul r17,r2
 5770 23d8 900D      		add r25,r0
 5771 23da 1124      		clr r1
 5772               	.LVL394:
 5773 23dc 9093 0000 		sts (fat_fs_handles+24)+1,r25
 5774 23e0 8093 0000 		sts fat_fs_handles+24,r24
 5775               	.LM276:
 5776 23e4 D201      		movw r26,r4
 5777 23e6 1896      		adiw r26,8
 5778 23e8 8C91      		ld r24,X
 5779 23ea F9A8      		ldd r15,Y+49
 5780               	.LVL395:
 5781 23ec EF2C      		mov r14,r15
 5782 23ee FF24      		clr r15
 5783 23f0 00E0      		ldi r16,lo8(0)
 5784 23f2 10E0      		ldi r17,hi8(0)
 5785 23f4 20E0      		ldi r18,lo8(0)
 5786 23f6 30E0      		ldi r19,hi8(0)
 5787 23f8 40E0      		ldi r20,hlo8(0)
 5788 23fa 50E0      		ldi r21,hhi8(0)
 5789 23fc 2796      		adiw r28,70-63
 5790 23fe EFAE      		std Y+63,r14
 5791 2400 2797      		sbiw r28,70-63
 5792 2402 2896      		adiw r28,71-63
 5793 2404 FFAE      		std Y+63,r15
 5794 2406 2897      		sbiw r28,71-63
 5795 2408 2996      		adiw r28,72-63
 5796 240a 0FAF      		std Y+63,r16
 5797 240c 2997      		sbiw r28,72-63
 5798 240e 2A96      		adiw r28,73-63
 5799 2410 1FAF      		std Y+63,r17
 5800 2412 2A97      		sbiw r28,73-63
 5801 2414 2B96      		adiw r28,74-63
 5802 2416 2FAF      		std Y+63,r18
 5803 2418 2B97      		sbiw r28,74-63
 5804 241a 2C96      		adiw r28,75-63
 5805 241c 3FAF      		std Y+63,r19
 5806 241e 2C97      		sbiw r28,75-63
 5807 2420 2D96      		adiw r28,76-63
 5808 2422 4FAF      		std Y+63,r20
 5809 2424 2D97      		sbiw r28,76-63
 5810 2426 2E96      		adiw r28,77-63
 5811 2428 5FAF      		std Y+63,r21
 5812 242a 2E97      		sbiw r28,77-63
 5813 242c 8630      		cpi r24,lo8(6)
 5814 242e 01F0      		breq .+2
 5815 2430 00C0      		rjmp .L414
 5816               	.LM277:
 5817 2432 0CA9      		ldd r16,Y+52
 5818 2434 1DA9      		ldd r17,Y+53
 5819 2436 2EA1      		ldd r18,Y+38
 5820 2438 3FA1      		ldd r19,Y+39
 5821 243a 40E0      		ldi r20,lo8(0)
 5822 243c 50E0      		ldi r21,lo8(0)
 5823 243e 60E0      		ldi r22,lo8(0)
 5824 2440 70E0      		ldi r23,lo8(0)
 5825 2442 80E0      		ldi r24,lo8(0)
 5826 2444 90E0      		ldi r25,lo8(0)
 5827               	.LVL396:
 5828 2446 5801      		movw r10,r16
 5829 2448 CC24      		clr r12
 5830 244a DD24      		clr r13
 5831 244c EE24      		clr r14
 5832 244e FF24      		clr r15
 5833 2450 00E0      		ldi r16,lo8(0)
 5834 2452 10E0      		ldi r17,lo8(0)
 5835 2454 0E94 0000 		call __muldi3
 5836 2458 2796      		adiw r28,70-63
 5837 245a AFAC      		ldd r10,Y+63
 5838 245c 2797      		sbiw r28,70-63
 5839               	.LVL397:
 5840 245e BB24      		clr r11
 5841 2460 0E94 0000 		call __muldi3
 5842 2464 F090 0000 		lds r15,fat_fs_handles+10
 5843 2468 E091 0000 		lds r30,fat_fs_handles+11
 5844 246c B091 0000 		lds r27,fat_fs_handles+12
 5845 2470 1091 0000 		lds r17,fat_fs_handles+13
 5846 2474 0091 0000 		lds r16,fat_fs_handles+14
 5847 2478 A090 0000 		lds r10,fat_fs_handles+15
 5848               	.LVL398:
 5849 247c 9090 0000 		lds r9,fat_fs_handles+16
 5850 2480 A091 0000 		lds r26,fat_fs_handles+17
 5851 2484 F20E      		add r15,r18
 5852 2486 F1E0      		ldi r31,lo8(1)
 5853 2488 F216      		cp r15,r18
 5854 248a 00F0      		brlo .L415
 5855 248c F0E0      		ldi r31,lo8(0)
 5856               	.L415:
 5857 248e 232F      		mov r18,r19
 5858 2490 2E0F      		add r18,r30
 5859 2492 E1E0      		ldi r30,lo8(1)
 5860 2494 2317      		cp r18,r19
 5861 2496 00F0      		brlo .L416
 5862 2498 E0E0      		ldi r30,lo8(0)
 5863               	.L416:
 5864 249a EF2E      		mov r14,r31
 5865 249c E20E      		add r14,r18
 5866 249e 31E0      		ldi r19,lo8(1)
 5867 24a0 E216      		cp r14,r18
 5868 24a2 00F0      		brlo .L417
 5869 24a4 30E0      		ldi r19,lo8(0)
 5870               	.L417:
 5871 24a6 E32B      		or r30,r19
 5872 24a8 242F      		mov r18,r20
 5873 24aa 2B0F      		add r18,r27
 5874 24ac F1E0      		ldi r31,lo8(1)
 5875 24ae 2417      		cp r18,r20
 5876 24b0 00F0      		brlo .L418
 5877 24b2 F0E0      		ldi r31,lo8(0)
 5878               	.L418:
 5879 24b4 DE2E      		mov r13,r30
 5880 24b6 D20E      		add r13,r18
 5881 24b8 31E0      		ldi r19,lo8(1)
 5882 24ba D216      		cp r13,r18
 5883 24bc 00F0      		brlo .L419
 5884 24be 30E0      		ldi r19,lo8(0)
 5885               	.L419:
 5886 24c0 F32B      		or r31,r19
 5887 24c2 252F      		mov r18,r21
 5888 24c4 210F      		add r18,r17
 5889 24c6 41E0      		ldi r20,lo8(1)
 5890 24c8 2517      		cp r18,r21
 5891 24ca 00F0      		brlo .L420
 5892 24cc 40E0      		ldi r20,lo8(0)
 5893               	.L420:
 5894 24ce CF2E      		mov r12,r31
 5895 24d0 C20E      		add r12,r18
 5896 24d2 31E0      		ldi r19,lo8(1)
 5897 24d4 C216      		cp r12,r18
 5898 24d6 00F0      		brlo .L421
 5899 24d8 30E0      		ldi r19,lo8(0)
 5900               	.L421:
 5901 24da 432B      		or r20,r19
 5902 24dc 262F      		mov r18,r22
 5903 24de 200F      		add r18,r16
 5904 24e0 51E0      		ldi r21,lo8(1)
 5905 24e2 2617      		cp r18,r22
 5906 24e4 00F0      		brlo .L422
 5907 24e6 50E0      		ldi r21,lo8(0)
 5908               	.L422:
 5909 24e8 B42E      		mov r11,r20
 5910 24ea B20E      		add r11,r18
 5911 24ec 31E0      		ldi r19,lo8(1)
 5912 24ee B216      		cp r11,r18
 5913 24f0 00F0      		brlo .L423
 5914 24f2 30E0      		ldi r19,lo8(0)
 5915               	.L423:
 5916 24f4 532B      		or r21,r19
 5917 24f6 272F      		mov r18,r23
 5918 24f8 2A0D      		add r18,r10
 5919 24fa 41E0      		ldi r20,lo8(1)
 5920 24fc 2717      		cp r18,r23
 5921 24fe 00F0      		brlo .L424
 5922 2500 40E0      		ldi r20,lo8(0)
 5923               	.L424:
 5924 2502 A52E      		mov r10,r21
 5925 2504 A20E      		add r10,r18
 5926 2506 31E0      		ldi r19,lo8(1)
 5927 2508 A216      		cp r10,r18
 5928 250a 00F0      		brlo .L425
 5929 250c 30E0      		ldi r19,lo8(0)
 5930               	.L425:
 5931 250e 432B      		or r20,r19
 5932 2510 282F      		mov r18,r24
 5933 2512 290D      		add r18,r9
 5934 2514 31E0      		ldi r19,lo8(1)
 5935 2516 2817      		cp r18,r24
 5936 2518 00F0      		brlo .L426
 5937 251a 30E0      		ldi r19,lo8(0)
 5938               	.L426:
 5939 251c 942E      		mov r9,r20
 5940 251e 920E      		add r9,r18
 5941 2520 81E0      		ldi r24,lo8(1)
 5942 2522 9216      		cp r9,r18
 5943 2524 00F0      		brlo .L427
 5944 2526 80E0      		ldi r24,lo8(0)
 5945               	.L427:
 5946 2528 132F      		mov r17,r19
 5947 252a 182B      		or r17,r24
 5948 252c A90F      		add r26,r25
 5949 252e 1A0F      		add r17,r26
 5950 2530 F092 0000 		sts fat_fs_handles+34,r15
 5951 2534 E092 0000 		sts fat_fs_handles+35,r14
 5952 2538 D092 0000 		sts fat_fs_handles+36,r13
 5953 253c C092 0000 		sts fat_fs_handles+37,r12
 5954 2540 B092 0000 		sts fat_fs_handles+38,r11
 5955 2544 A092 0000 		sts fat_fs_handles+39,r10
 5956 2548 9092 0000 		sts fat_fs_handles+40,r9
 5957 254c 1093 0000 		sts fat_fs_handles+41,r17
 5958               	.LM278:
 5959 2550 2AA9      		ldd r18,Y+50
 5960 2552 3BA9      		ldd r19,Y+51
 5961 2554 40E0      		ldi r20,lo8(0)
 5962 2556 50E0      		ldi r21,lo8(0)
 5963 2558 60E0      		ldi r22,lo8(0)
 5964 255a 70E0      		ldi r23,lo8(0)
 5965 255c 80E0      		ldi r24,lo8(0)
 5966 255e 90E0      		ldi r25,lo8(0)
 5967 2560 05E0      		ldi r16,lo8(5)
 5968 2562 0E94 0000 		call __ashldi3
 5969 2566 2F0D      		add r18,r15
 5970 2568 E1E0      		ldi r30,lo8(1)
 5971 256a 2F15      		cp r18,r15
 5972 256c 00F0      		brlo .L428
 5973 256e E0E0      		ldi r30,lo8(0)
 5974               	.L428:
 5975 2570 3E0D      		add r19,r14
 5976 2572 F1E0      		ldi r31,lo8(1)
 5977 2574 3E15      		cp r19,r14
 5978 2576 00F0      		brlo .L429
 5979 2578 F0E0      		ldi r31,lo8(0)
 5980               	.L429:
 5981 257a BE2F      		mov r27,r30
 5982 257c B30F      		add r27,r19
 5983 257e E1E0      		ldi r30,lo8(1)
 5984 2580 B317      		cp r27,r19
 5985 2582 00F0      		brlo .L430
 5986 2584 E0E0      		ldi r30,lo8(0)
 5987               	.L430:
 5988 2586 FE2B      		or r31,r30
 5989 2588 4D0D      		add r20,r13
 5990 258a E1E0      		ldi r30,lo8(1)
 5991 258c 4D15      		cp r20,r13
 5992 258e 00F0      		brlo .L431
 5993 2590 E0E0      		ldi r30,lo8(0)
 5994               	.L431:
 5995 2592 AF2F      		mov r26,r31
 5996 2594 A40F      		add r26,r20
 5997 2596 31E0      		ldi r19,lo8(1)
 5998 2598 A417      		cp r26,r20
 5999 259a 00F0      		brlo .L432
 6000 259c 30E0      		ldi r19,lo8(0)
 6001               	.L432:
 6002 259e E32B      		or r30,r19
 6003 25a0 5C0D      		add r21,r12
 6004 25a2 41E0      		ldi r20,lo8(1)
 6005 25a4 5C15      		cp r21,r12
 6006 25a6 00F0      		brlo .L433
 6007 25a8 40E0      		ldi r20,lo8(0)
 6008               	.L433:
 6009 25aa FE2F      		mov r31,r30
 6010 25ac F50F      		add r31,r21
 6011 25ae 31E0      		ldi r19,lo8(1)
 6012 25b0 F517      		cp r31,r21
 6013 25b2 00F0      		brlo .L434
 6014 25b4 30E0      		ldi r19,lo8(0)
 6015               	.L434:
 6016 25b6 432B      		or r20,r19
 6017 25b8 6B0D      		add r22,r11
 6018 25ba 51E0      		ldi r21,lo8(1)
 6019 25bc 6B15      		cp r22,r11
 6020 25be 00F0      		brlo .L435
 6021 25c0 50E0      		ldi r21,lo8(0)
 6022               	.L435:
 6023 25c2 E42F      		mov r30,r20
 6024 25c4 E60F      		add r30,r22
 6025 25c6 31E0      		ldi r19,lo8(1)
 6026 25c8 E617      		cp r30,r22
 6027 25ca 00F0      		brlo .L436
 6028 25cc 30E0      		ldi r19,lo8(0)
 6029               	.L436:
 6030 25ce 532B      		or r21,r19
 6031 25d0 7A0D      		add r23,r10
 6032 25d2 41E0      		ldi r20,lo8(1)
 6033 25d4 7A15      		cp r23,r10
 6034 25d6 00F0      		brlo .L437
 6035 25d8 40E0      		ldi r20,lo8(0)
 6036               	.L437:
 6037 25da 652F      		mov r22,r21
 6038 25dc 670F      		add r22,r23
 6039 25de 31E0      		ldi r19,lo8(1)
 6040 25e0 6717      		cp r22,r23
 6041 25e2 00F0      		brlo .L438
 6042 25e4 30E0      		ldi r19,lo8(0)
 6043               	.L438:
 6044 25e6 432B      		or r20,r19
 6045 25e8 890D      		add r24,r9
 6046 25ea 31E0      		ldi r19,lo8(1)
 6047 25ec 8915      		cp r24,r9
 6048 25ee 00F0      		brlo .L439
 6049 25f0 30E0      		ldi r19,lo8(0)
 6050               	.L439:
 6051 25f2 542F      		mov r21,r20
 6052 25f4 580F      		add r21,r24
 6053 25f6 41E0      		ldi r20,lo8(1)
 6054 25f8 5817      		cp r21,r24
 6055 25fa 00F0      		brlo .L440
 6056 25fc 40E0      		ldi r20,lo8(0)
 6057               	.L440:
 6058 25fe 342B      		or r19,r20
 6059 2600 190F      		add r17,r25
 6060 2602 310F      		add r19,r17
 6061 2604 2093 0000 		sts fat_fs_handles+26,r18
 6062 2608 B093 0000 		sts fat_fs_handles+27,r27
 6063 260c A093 0000 		sts fat_fs_handles+28,r26
 6064 2610 F093 0000 		sts fat_fs_handles+29,r31
 6065 2614 E093 0000 		sts fat_fs_handles+30,r30
 6066 2618 6093 0000 		sts fat_fs_handles+31,r22
 6067 261c 5093 0000 		sts fat_fs_handles+32,r21
 6068 2620 3093 0000 		sts fat_fs_handles+33,r19
 6069 2624 00C0      		rjmp .L458
 6070               	.LVL399:
 6071               	.L414:
 6072               	.LM279:
 6073 2626 2796      		adiw r28,70-63
 6074 2628 AFAC      		ldd r10,Y+63
 6075 262a 2797      		sbiw r28,70-63
 6076               	.LVL400:
 6077 262c 2EA1      		ldd r18,Y+38
 6078 262e 3FA1      		ldd r19,Y+39
 6079 2630 40E0      		ldi r20,lo8(0)
 6080 2632 50E0      		ldi r21,lo8(0)
 6081 2634 60E0      		ldi r22,lo8(0)
 6082 2636 70E0      		ldi r23,lo8(0)
 6083 2638 80E0      		ldi r24,lo8(0)
 6084 263a 90E0      		ldi r25,lo8(0)
 6085               	.LVL401:
 6086 263c BB24      		clr r11
 6087 263e CC24      		clr r12
 6088 2640 DD24      		clr r13
 6089 2642 EE24      		clr r14
 6090 2644 FF24      		clr r15
 6091 2646 00E0      		ldi r16,lo8(0)
 6092 2648 10E0      		ldi r17,lo8(0)
 6093 264a 0E94 0000 		call __muldi3
 6094 264e EEA8      		ldd r14,Y+54
 6095 2650 FFA8      		ldd r15,Y+55
 6096 2652 08AD      		ldd r16,Y+56
 6097 2654 19AD      		ldd r17,Y+57
 6098 2656 1701      		movw r2,r14
 6099 2658 2801      		movw r4,r16
 6100               	.LVL402:
 6101 265a 5701      		movw r10,r14
 6102               	.LVL403:
 6103 265c 6201      		movw r12,r4
 6104               	.LVL404:
 6105 265e EE24      		clr r14
 6106 2660 FF24      		clr r15
 6107 2662 00E0      		ldi r16,lo8(0)
 6108 2664 10E0      		ldi r17,lo8(0)
 6109 2666 0E94 0000 		call __muldi3
 6110 266a A091 0000 		lds r26,fat_fs_handles+10
 6111 266e E091 0000 		lds r30,fat_fs_handles+11
 6112 2672 1091 0000 		lds r17,fat_fs_handles+12
 6113 2676 0091 0000 		lds r16,fat_fs_handles+13
 6114 267a F090 0000 		lds r15,fat_fs_handles+14
 6115 267e D090 0000 		lds r13,fat_fs_handles+15
 6116 2682 C090 0000 		lds r12,fat_fs_handles+16
 6117 2686 B091 0000 		lds r27,fat_fs_handles+17
 6118 268a A20F      		add r26,r18
 6119 268c F1E0      		ldi r31,lo8(1)
 6120 268e A217      		cp r26,r18
 6121 2690 00F0      		brlo .L442
 6122 2692 F0E0      		ldi r31,lo8(0)
 6123               	.L442:
 6124 2694 232F      		mov r18,r19
 6125 2696 2E0F      		add r18,r30
 6126 2698 E1E0      		ldi r30,lo8(1)
 6127 269a 2317      		cp r18,r19
 6128 269c 00F0      		brlo .L443
 6129 269e E0E0      		ldi r30,lo8(0)
 6130               	.L443:
 6131 26a0 EF2E      		mov r14,r31
 6132 26a2 E20E      		add r14,r18
 6133 26a4 31E0      		ldi r19,lo8(1)
 6134 26a6 E216      		cp r14,r18
 6135 26a8 00F0      		brlo .L444
 6136 26aa 30E0      		ldi r19,lo8(0)
 6137               	.L444:
 6138 26ac E32B      		or r30,r19
 6139 26ae 242F      		mov r18,r20
 6140 26b0 210F      		add r18,r17
 6141 26b2 F1E0      		ldi r31,lo8(1)
 6142 26b4 2417      		cp r18,r20
 6143 26b6 00F0      		brlo .L445
 6144 26b8 F0E0      		ldi r31,lo8(0)
 6145               	.L445:
 6146 26ba 1E2F      		mov r17,r30
 6147 26bc 120F      		add r17,r18
 6148 26be 31E0      		ldi r19,lo8(1)
 6149 26c0 1217      		cp r17,r18
 6150 26c2 00F0      		brlo .L446
 6151 26c4 30E0      		ldi r19,lo8(0)
 6152               	.L446:
 6153 26c6 F32B      		or r31,r19
 6154 26c8 252F      		mov r18,r21
 6155 26ca 200F      		add r18,r16
 6156 26cc 41E0      		ldi r20,lo8(1)
 6157 26ce 2517      		cp r18,r21
 6158 26d0 00F0      		brlo .L447
 6159 26d2 40E0      		ldi r20,lo8(0)
 6160               	.L447:
 6161 26d4 EF2F      		mov r30,r31
 6162 26d6 E20F      		add r30,r18
 6163 26d8 31E0      		ldi r19,lo8(1)
 6164 26da E217      		cp r30,r18
 6165 26dc 00F0      		brlo .L448
 6166 26de 30E0      		ldi r19,lo8(0)
 6167               	.L448:
 6168 26e0 432B      		or r20,r19
 6169 26e2 262F      		mov r18,r22
 6170 26e4 2F0D      		add r18,r15
 6171 26e6 51E0      		ldi r21,lo8(1)
 6172 26e8 2617      		cp r18,r22
 6173 26ea 00F0      		brlo .L449
 6174 26ec 50E0      		ldi r21,lo8(0)
 6175               	.L449:
 6176 26ee 642F      		mov r22,r20
 6177 26f0 620F      		add r22,r18
 6178 26f2 31E0      		ldi r19,lo8(1)
 6179 26f4 6217      		cp r22,r18
 6180 26f6 00F0      		brlo .L450
 6181 26f8 30E0      		ldi r19,lo8(0)
 6182               	.L450:
 6183 26fa 532B      		or r21,r19
 6184 26fc 272F      		mov r18,r23
 6185 26fe 2D0D      		add r18,r13
 6186 2700 41E0      		ldi r20,lo8(1)
 6187 2702 2717      		cp r18,r23
 6188 2704 00F0      		brlo .L451
 6189 2706 40E0      		ldi r20,lo8(0)
 6190               	.L451:
 6191 2708 520F      		add r21,r18
 6192 270a 31E0      		ldi r19,lo8(1)
 6193 270c 5217      		cp r21,r18
 6194 270e 00F0      		brlo .L452
 6195 2710 30E0      		ldi r19,lo8(0)
 6196               	.L452:
 6197 2712 432B      		or r20,r19
 6198 2714 282F      		mov r18,r24
 6199 2716 2C0D      		add r18,r12
 6200 2718 31E0      		ldi r19,lo8(1)
 6201 271a 2817      		cp r18,r24
 6202 271c 00F0      		brlo .L453
 6203 271e 30E0      		ldi r19,lo8(0)
 6204               	.L453:
 6205 2720 420F      		add r20,r18
 6206 2722 81E0      		ldi r24,lo8(1)
 6207 2724 4217      		cp r20,r18
 6208 2726 00F0      		brlo .L454
 6209 2728 80E0      		ldi r24,lo8(0)
 6210               	.L454:
 6211 272a 382B      		or r19,r24
 6212 272c B90F      		add r27,r25
 6213 272e 3B0F      		add r19,r27
 6214 2730 A093 0000 		sts fat_fs_handles+26,r26
 6215 2734 E092 0000 		sts fat_fs_handles+27,r14
 6216 2738 1093 0000 		sts fat_fs_handles+28,r17
 6217 273c E093 0000 		sts fat_fs_handles+29,r30
 6218 2740 6093 0000 		sts fat_fs_handles+30,r22
 6219 2744 5093 0000 		sts fat_fs_handles+31,r21
 6220 2748 4093 0000 		sts fat_fs_handles+32,r20
 6221 274c 3093 0000 		sts fat_fs_handles+33,r19
 6222               	.LM280:
 6223 2750 0AAD      		ldd r16,Y+58
 6224 2752 1BAD      		ldd r17,Y+59
 6225 2754 2CAD      		ldd r18,Y+60
 6226 2756 3DAD      		ldd r19,Y+61
 6227 2758 0093 0000 		sts fat_fs_handles+42,r16
 6228 275c 1093 0000 		sts (fat_fs_handles+42)+1,r17
 6229 2760 2093 0000 		sts (fat_fs_handles+42)+2,r18
 6230 2764 3093 0000 		sts (fat_fs_handles+42)+3,r19
 6231               	.LVL405:
 6232               	.L458:
 6233 2768 20E0      		ldi r18,lo8(fat_fs_handles)
 6234 276a 30E0      		ldi r19,hi8(fat_fs_handles)
 6235               	.LVL406:
 6236 276c 00C0      		rjmp .L441
 6237               	.LVL407:
 6238               	.L378:
 6239 276e 20E0      		ldi r18,lo8(0)
 6240 2770 30E0      		ldi r19,hi8(0)
 6241               	.LVL408:
 6242               	.L441:
 6243               	.LBE74:
 6244               	.LBE72:
 6245               	.LM281:
 6246 2772 C901      		movw r24,r18
 6247               	.LVL409:
 6248               	/* epilogue start */
 6249 2774 C35B      		subi r28,lo8(-(77))
 6250 2776 DF4F      		sbci r29,hi8(-(77))
 6251 2778 0FB6      		in __tmp_reg__,__SREG__
 6252 277a F894      		cli
 6253 277c DEBF      		out __SP_H__,r29
 6254 277e 0FBE      		out __SREG__,__tmp_reg__
 6255 2780 CDBF      		out __SP_L__,r28
 6256 2782 CF91      		pop r28
 6257 2784 DF91      		pop r29
 6258 2786 1F91      		pop r17
 6259 2788 0F91      		pop r16
 6260 278a FF90      		pop r15
 6261 278c EF90      		pop r14
 6262 278e DF90      		pop r13
 6263 2790 CF90      		pop r12
 6264               	.LVL410:
 6265 2792 BF90      		pop r11
 6266 2794 AF90      		pop r10
 6267               	.LVL411:
 6268 2796 9F90      		pop r9
 6269 2798 8F90      		pop r8
 6270 279a 7F90      		pop r7
 6271 279c 6F90      		pop r6
 6272               	.LVL412:
 6273 279e 5F90      		pop r5
 6274 27a0 4F90      		pop r4
 6275               	.LVL413:
 6276 27a2 3F90      		pop r3
 6277 27a4 2F90      		pop r2
 6278               	.LVL414:
 6279 27a6 0895      		ret
 6280               	.LVL415:
 6281               	.L459:
 6282               	.LM282:
 6283 27a8 8091 0000 		lds r24,fat_fs_handles
 6284 27ac 9091 0000 		lds r25,(fat_fs_handles)+1
 6285 27b0 892B      		or r24,r25
 6286 27b2 01F4      		brne .L378
 6287 27b4 00C0      		rjmp .L460
 6288               	.LVL416:
 6289               	.L393:
 6290               	.LM283:
 6291 27b6 1092 0000 		sts (fat_fs_handles)+1,__zero_reg__
 6292 27ba 1092 0000 		sts fat_fs_handles,__zero_reg__
 6293 27be 00C0      		rjmp .L378
 6294               	.LFE2:
 6297               	fat_find_offset_for_dir_entry:
 6298               	.LFB25:
 6299               	.LM284:
 6300               	.LVL417:
 6301 27c0 2F92      		push r2
 6302 27c2 3F92      		push r3
 6303 27c4 4F92      		push r4
 6304 27c6 5F92      		push r5
 6305 27c8 6F92      		push r6
 6306 27ca 7F92      		push r7
 6307 27cc 8F92      		push r8
 6308 27ce 9F92      		push r9
 6309 27d0 AF92      		push r10
 6310 27d2 BF92      		push r11
 6311 27d4 CF92      		push r12
 6312 27d6 DF92      		push r13
 6313 27d8 EF92      		push r14
 6314 27da FF92      		push r15
 6315 27dc 0F93      		push r16
 6316 27de 1F93      		push r17
 6317 27e0 DF93      		push r29
 6318 27e2 CF93      		push r28
 6319 27e4 CDB7      		in r28,__SP_L__
 6320 27e6 DEB7      		in r29,__SP_H__
 6321 27e8 6997      		sbiw r28,25
 6322 27ea 0FB6      		in __tmp_reg__,__SREG__
 6323 27ec F894      		cli
 6324 27ee DEBF      		out __SP_H__,r29
 6325 27f0 0FBE      		out __SREG__,__tmp_reg__
 6326 27f2 CDBF      		out __SP_L__,r28
 6327               	/* prologue: function */
 6328               	/* frame size = 25 */
 6329 27f4 9D87      		std Y+13,r25
 6330 27f6 8C87      		std Y+12,r24
 6331 27f8 9B01      		movw r18,r22
 6332               	.LM285:
 6333 27fa 892B      		or r24,r25
 6334 27fc 01F4      		brne .+2
 6335 27fe 00C0      		rjmp .L462
 6336               	.LVL418:
 6337 2800 4115      		cp r20,__zero_reg__
 6338 2802 5105      		cpc r21,__zero_reg__
 6339 2804 01F4      		brne .+2
 6340 2806 00C0      		rjmp .L462
 6341               	.LM286:
 6342 2808 DA01      		movw r26,r20
 6343 280a 0D90      		ld __tmp_reg__,X+
 6344 280c 0020      		tst __tmp_reg__
 6345 280e 01F4      		brne .-6
 6346 2810 A41B      		sub r26,r20
 6347 2812 B50B      		sbc r27,r21
 6348 2814 CD01      		movw r24,r26
 6349               	.LVL419:
 6350 2816 0B96      		adiw r24,11
 6351 2818 6DE0      		ldi r22,lo8(13)
 6352 281a 70E0      		ldi r23,hi8(13)
 6353 281c 0E94 0000 		call __udivmodhi4
 6354 2820 462F      		mov r20,r22
 6355               	.LVL420:
 6356 2822 4F5F      		subi r20,lo8(-(1))
 6357 2824 4B87      		std Y+11,r20
 6358               	.LVL421:
 6359               	.LM287:
 6360 2826 D901      		movw r26,r18
 6361 2828 9396      		adiw r26,35
 6362 282a 8D91      		ld r24,X+
 6363 282c 9D91      		ld r25,X+
 6364 282e 0D90      		ld __tmp_reg__,X+
 6365 2830 BC91      		ld r27,X
 6366 2832 A02D      		mov r26,__tmp_reg__
 6367 2834 8E83      		std Y+6,r24
 6368 2836 9F83      		std Y+7,r25
 6369 2838 A887      		std Y+8,r26
 6370 283a B987      		std Y+9,r27
 6371               	.LVL422:
 6372               	.LM288:
 6373 283c AC85      		ldd r26,Y+12
 6374 283e BD85      		ldd r27,Y+13
 6375 2840 ED91      		ld r30,X+
 6376 2842 FC91      		ld r31,X
 6377 2844 8085      		ldd r24,Z+8
 6378               	.LM289:
 6379 2846 2E81      		ldd r18,Y+6
 6380 2848 3F81      		ldd r19,Y+7
 6381 284a 4885      		ldd r20,Y+8
 6382 284c 5985      		ldd r21,Y+9
 6383               	.LVL423:
 6384 284e 2115      		cp r18,__zero_reg__
 6385 2850 3105      		cpc r19,__zero_reg__
 6386 2852 4105      		cpc r20,__zero_reg__
 6387 2854 5105      		cpc r21,__zero_reg__
 6388 2856 01F4      		brne .L542
 6389               	.L463:
 6390               	.LM290:
 6391 2858 8B30      		cpi r24,lo8(11)
 6392 285a 01F4      		brne .L465
 6393               	.LM291:
 6394 285c AC85      		ldd r26,Y+12
 6395 285e BD85      		ldd r27,Y+13
 6396 2860 9A96      		adiw r26,42
 6397 2862 8D91      		ld r24,X+
 6398 2864 9D91      		ld r25,X+
 6399 2866 0D90      		ld __tmp_reg__,X+
 6400 2868 BC91      		ld r27,X
 6401 286a A02D      		mov r26,__tmp_reg__
 6402 286c 8E83      		std Y+6,r24
 6403 286e 9F83      		std Y+7,r25
 6404 2870 A887      		std Y+8,r26
 6405 2872 B987      		std Y+9,r27
 6406               	.LVL424:
 6407               	.L542:
 6408 2874 1E8A      		std Y+22,__zero_reg__
 6409 2876 1F8A      		std Y+23,__zero_reg__
 6410 2878 188E      		std Y+24,__zero_reg__
 6411 287a 198E      		std Y+25,__zero_reg__
 6412 287c 3324      		clr r3
 6413               	.LVL425:
 6414 287e 4424      		clr r4
 6415               	.LVL426:
 6416 2880 5524      		clr r5
 6417               	.LVL427:
 6418 2882 6624      		clr r6
 6419               	.LVL428:
 6420 2884 DD24      		clr r13
 6421               	.LVL429:
 6422 2886 CC24      		clr r12
 6423               	.LVL430:
 6424 2888 BB24      		clr r11
 6425               	.LVL431:
 6426 288a AA24      		clr r10
 6427               	.LVL432:
 6428 288c 2224      		clr r2
 6429               	.LVL433:
 6430 288e 9924      		clr r9
 6431               	.LVL434:
 6432 2890 8824      		clr r8
 6433               	.LVL435:
 6434 2892 7724      		clr r7
 6435               	.LVL436:
 6436 2894 1E86      		std Y+14,__zero_reg__
 6437 2896 1F86      		std Y+15,__zero_reg__
 6438 2898 188A      		std Y+16,__zero_reg__
 6439 289a 198A      		std Y+17,__zero_reg__
 6440 289c 1A8A      		std Y+18,__zero_reg__
 6441 289e 1B8A      		std Y+19,__zero_reg__
 6442 28a0 1C8A      		std Y+20,__zero_reg__
 6443 28a2 1D8A      		std Y+21,__zero_reg__
 6444 28a4 00C0      		rjmp .L464
 6445               	.LVL437:
 6446               	.L465:
 6447               	.LM292:
 6448 28a6 EC85      		ldd r30,Y+12
 6449 28a8 FD85      		ldd r31,Y+13
 6450 28aa D2A0      		ldd r13,Z+34
 6451               	.LVL438:
 6452 28ac C3A0      		ldd r12,Z+35
 6453               	.LVL439:
 6454 28ae B4A0      		ldd r11,Z+36
 6455               	.LVL440:
 6456 28b0 A5A0      		ldd r10,Z+37
 6457               	.LVL441:
 6458 28b2 26A0      		ldd r2,Z+38
 6459               	.LVL442:
 6460 28b4 97A0      		ldd r9,Z+39
 6461               	.LVL443:
 6462 28b6 80A4      		ldd r8,Z+40
 6463               	.LVL444:
 6464 28b8 71A4      		ldd r7,Z+41
 6465               	.LVL445:
 6466               	.LM293:
 6467 28ba F28D      		ldd r31,Z+26
 6468 28bc FE87      		std Y+14,r31
 6469 28be AC85      		ldd r26,Y+12
 6470 28c0 BD85      		ldd r27,Y+13
 6471 28c2 5B96      		adiw r26,27
 6472 28c4 BC91      		ld r27,X
 6473 28c6 BF87      		std Y+15,r27
 6474 28c8 EC85      		ldd r30,Y+12
 6475 28ca FD85      		ldd r31,Y+13
 6476 28cc F48D      		ldd r31,Z+28
 6477 28ce F88B      		std Y+16,r31
 6478 28d0 AC85      		ldd r26,Y+12
 6479 28d2 BD85      		ldd r27,Y+13
 6480 28d4 5D96      		adiw r26,29
 6481 28d6 BC91      		ld r27,X
 6482 28d8 B98B      		std Y+17,r27
 6483 28da EC85      		ldd r30,Y+12
 6484 28dc FD85      		ldd r31,Y+13
 6485 28de F68D      		ldd r31,Z+30
 6486 28e0 FA8B      		std Y+18,r31
 6487 28e2 AC85      		ldd r26,Y+12
 6488 28e4 BD85      		ldd r27,Y+13
 6489 28e6 5F96      		adiw r26,31
 6490 28e8 BC91      		ld r27,X
 6491 28ea BB8B      		std Y+19,r27
 6492 28ec EC85      		ldd r30,Y+12
 6493 28ee FD85      		ldd r31,Y+13
 6494 28f0 F0A1      		ldd r31,Z+32
 6495 28f2 FC8B      		std Y+20,r31
 6496 28f4 AC85      		ldd r26,Y+12
 6497 28f6 BD85      		ldd r27,Y+13
 6498 28f8 9196      		adiw r26,33
 6499 28fa BC91      		ld r27,X
 6500 28fc BD8B      		std Y+21,r27
 6501               	.LVL446:
 6502               	.L543:
 6503 28fe DE8A      		std Y+22,r13
 6504 2900 CF8A      		std Y+23,r12
 6505 2902 B88E      		std Y+24,r11
 6506 2904 A98E      		std Y+25,r10
 6507 2906 322C      		mov r3,r2
 6508 2908 492C      		mov r4,r9
 6509 290a 582C      		mov r5,r8
 6510 290c 672C      		mov r6,r7
 6511               	.L464:
 6512 290e 1A86      		std Y+10,__zero_reg__
 6513               	.LVL447:
 6514               	.L541:
 6515               	.LBB75:
 6516               	.LM294:
 6517 2910 EE85      		ldd r30,Y+14
 6518 2912 DE16      		cp r13,r30
 6519 2914 01F0      		breq .+2
 6520 2916 00C0      		rjmp .L466
 6521 2918 FF85      		ldd r31,Y+15
 6522 291a CF16      		cp r12,r31
 6523 291c 01F0      		breq .+2
 6524 291e 00C0      		rjmp .L466
 6525 2920 2889      		ldd r18,Y+16
 6526 2922 B216      		cp r11,r18
 6527 2924 01F0      		breq .+2
 6528 2926 00C0      		rjmp .L466
 6529 2928 3989      		ldd r19,Y+17
 6530 292a A316      		cp r10,r19
 6531 292c 01F0      		breq .+2
 6532 292e 00C0      		rjmp .L466
 6533 2930 4A89      		ldd r20,Y+18
 6534 2932 2416      		cp r2,r20
 6535 2934 01F0      		breq .+2
 6536 2936 00C0      		rjmp .L466
 6537 2938 5B89      		ldd r21,Y+19
 6538 293a 9516      		cp r9,r21
 6539 293c 01F0      		breq .+2
 6540 293e 00C0      		rjmp .L466
 6541 2940 8C89      		ldd r24,Y+20
 6542 2942 8816      		cp r8,r24
 6543 2944 01F0      		breq .+2
 6544 2946 00C0      		rjmp .L466
 6545 2948 9D89      		ldd r25,Y+21
 6546 294a 7916      		cp r7,r25
 6547 294c 01F0      		breq .+2
 6548 294e 00C0      		rjmp .L466
 6549               	.LM295:
 6550 2950 2E81      		ldd r18,Y+6
 6551 2952 3F81      		ldd r19,Y+7
 6552 2954 4885      		ldd r20,Y+8
 6553 2956 5985      		ldd r21,Y+9
 6554 2958 2115      		cp r18,__zero_reg__
 6555 295a 3105      		cpc r19,__zero_reg__
 6556 295c 4105      		cpc r20,__zero_reg__
 6557 295e 5105      		cpc r21,__zero_reg__
 6558 2960 01F4      		brne .+2
 6559 2962 00C0      		rjmp .L462
 6560               	.LM296:
 6561 2964 8D2D      		mov r24,r13
 6562 2966 8C29      		or r24,r12
 6563               	.LVL448:
 6564 2968 8B29      		or r24,r11
 6565 296a 8A29      		or r24,r10
 6566 296c 8229      		or r24,r2
 6567 296e 8929      		or r24,r9
 6568 2970 8829      		or r24,r8
 6569 2972 8729      		or r24,r7
 6570 2974 01F4      		brne .+2
 6571 2976 00C0      		rjmp .L467
 6572               	.LBB76:
 6573               	.LM297:
 6574 2978 8C85      		ldd r24,Y+12
 6575 297a 9D85      		ldd r25,Y+13
 6576               	.LVL449:
 6577 297c BA01      		movw r22,r20
 6578 297e A901      		movw r20,r18
 6579 2980 0E94 0000 		call fat_get_next_cluster
 6580               	.LM298:
 6581 2984 6115      		cp r22,__zero_reg__
 6582 2986 7105      		cpc r23,__zero_reg__
 6583 2988 8105      		cpc r24,__zero_reg__
 6584 298a 9105      		cpc r25,__zero_reg__
 6585               	.LVL450:
 6586 298c 01F0      		breq .+2
 6587 298e 00C0      		rjmp .L468
 6588               	.LM299:
 6589 2990 8C85      		ldd r24,Y+12
 6590 2992 9D85      		ldd r25,Y+13
 6591 2994 4E81      		ldd r20,Y+6
 6592 2996 5F81      		ldd r21,Y+7
 6593 2998 6885      		ldd r22,Y+8
 6594 299a 7985      		ldd r23,Y+9
 6595 299c 01E0      		ldi r16,lo8(1)
 6596 299e 10E0      		ldi r17,hi8(1)
 6597 29a0 20E0      		ldi r18,hlo8(1)
 6598 29a2 30E0      		ldi r19,hhi8(1)
 6599 29a4 0E94 0000 		call fat_append_clusters
 6600               	.LVL451:
 6601 29a8 6A83      		std Y+2,r22
 6602 29aa 7B83      		std Y+3,r23
 6603 29ac 8C83      		std Y+4,r24
 6604 29ae 9D83      		std Y+5,r25
 6605               	.LVL452:
 6606               	.LM300:
 6607 29b0 6115      		cp r22,__zero_reg__
 6608 29b2 7105      		cpc r23,__zero_reg__
 6609 29b4 8105      		cpc r24,__zero_reg__
 6610 29b6 9105      		cpc r25,__zero_reg__
 6611 29b8 01F4      		brne .+2
 6612 29ba 00C0      		rjmp .L462
 6613               	.LM301:
 6614 29bc DC01      		movw r26,r24
 6615 29be CB01      		movw r24,r22
 6616 29c0 0297      		sbiw r24,2
 6617 29c2 A109      		sbc r26,__zero_reg__
 6618 29c4 B109      		sbc r27,__zero_reg__
 6619 29c6 5C01      		movw r10,r24
 6620 29c8 6D01      		movw r12,r26
 6621               	.LVL453:
 6622 29ca 0296      		adiw r24,2
 6623 29cc A11D      		adc r26,__zero_reg__
 6624 29ce B11D      		adc r27,__zero_reg__
 6625 29d0 8A83      		std Y+2,r24
 6626 29d2 9B83      		std Y+3,r25
 6627 29d4 AC83      		std Y+4,r26
 6628 29d6 BD83      		std Y+5,r27
 6629               	.LVL454:
 6630 29d8 AC85      		ldd r26,Y+12
 6631 29da BD85      		ldd r27,Y+13
 6632 29dc 5896      		adiw r26,24
 6633 29de 2D90      		ld r2,X+
 6634 29e0 3C90      		ld r3,X
 6635 29e2 5997      		sbiw r26,24+1
 6636               	.LVL455:
 6637 29e4 9501      		movw r18,r10
 6638 29e6 A601      		movw r20,r12
 6639               	.LVL456:
 6640 29e8 60E0      		ldi r22,lo8(0)
 6641 29ea 70E0      		ldi r23,lo8(0)
 6642 29ec 80E0      		ldi r24,lo8(0)
 6643 29ee 90E0      		ldi r25,lo8(0)
 6644 29f0 5101      		movw r10,r2
 6645 29f2 CC24      		clr r12
 6646 29f4 DD24      		clr r13
 6647 29f6 EE24      		clr r14
 6648 29f8 FF24      		clr r15
 6649 29fa 00E0      		ldi r16,lo8(0)
 6650 29fc 10E0      		ldi r17,lo8(0)
 6651 29fe 0E94 0000 		call __muldi3
 6652 2a02 C92E      		mov r12,r25
 6653 2a04 EC85      		ldd r30,Y+12
 6654 2a06 FD85      		ldd r31,Y+13
 6655 2a08 B28D      		ldd r27,Z+26
 6656 2a0a B38C      		ldd r11,Z+27
 6657               	.LVL457:
 6658 2a0c A48D      		ldd r26,Z+28
 6659 2a0e 058D      		ldd r16,Z+29
 6660 2a10 F68C      		ldd r15,Z+30
 6661 2a12 E78C      		ldd r14,Z+31
 6662 2a14 D0A0      		ldd r13,Z+32
 6663 2a16 11A1      		ldd r17,Z+33
 6664 2a18 B20F      		add r27,r18
 6665 2a1a E1E0      		ldi r30,lo8(1)
 6666 2a1c B217      		cp r27,r18
 6667 2a1e 00F0      		brlo .L469
 6668 2a20 E0E0      		ldi r30,lo8(0)
 6669               	.L469:
 6670 2a22 232F      		mov r18,r19
 6671 2a24 2B0D      		add r18,r11
 6672 2a26 F1E0      		ldi r31,lo8(1)
 6673 2a28 2317      		cp r18,r19
 6674 2a2a 00F0      		brlo .L470
 6675 2a2c F0E0      		ldi r31,lo8(0)
 6676               	.L470:
 6677 2a2e 3E2F      		mov r19,r30
 6678 2a30 320F      		add r19,r18
 6679 2a32 E1E0      		ldi r30,lo8(1)
 6680 2a34 3217      		cp r19,r18
 6681 2a36 00F0      		brlo .L471
 6682 2a38 E0E0      		ldi r30,lo8(0)
 6683               	.L471:
 6684 2a3a FE2B      		or r31,r30
 6685 2a3c 242F      		mov r18,r20
 6686 2a3e 2A0F      		add r18,r26
 6687 2a40 A1E0      		ldi r26,lo8(1)
 6688 2a42 2417      		cp r18,r20
 6689 2a44 00F0      		brlo .L472
 6690 2a46 A0E0      		ldi r26,lo8(0)
 6691               	.L472:
 6692 2a48 4F2F      		mov r20,r31
 6693 2a4a 420F      		add r20,r18
 6694 2a4c E1E0      		ldi r30,lo8(1)
 6695 2a4e 4217      		cp r20,r18
 6696 2a50 00F0      		brlo .L473
 6697 2a52 E0E0      		ldi r30,lo8(0)
 6698               	.L473:
 6699 2a54 AE2B      		or r26,r30
 6700 2a56 252F      		mov r18,r21
 6701 2a58 200F      		add r18,r16
 6702 2a5a F1E0      		ldi r31,lo8(1)
 6703 2a5c 2517      		cp r18,r21
 6704 2a5e 00F0      		brlo .L474
 6705 2a60 F0E0      		ldi r31,lo8(0)
 6706               	.L474:
 6707 2a62 5A2F      		mov r21,r26
 6708 2a64 520F      		add r21,r18
 6709 2a66 E1E0      		ldi r30,lo8(1)
 6710 2a68 5217      		cp r21,r18
 6711 2a6a 00F0      		brlo .L475
 6712 2a6c E0E0      		ldi r30,lo8(0)
 6713               	.L475:
 6714 2a6e FE2B      		or r31,r30
 6715 2a70 262F      		mov r18,r22
 6716 2a72 2F0D      		add r18,r15
 6717 2a74 A1E0      		ldi r26,lo8(1)
 6718 2a76 2617      		cp r18,r22
 6719 2a78 00F0      		brlo .L476
 6720 2a7a A0E0      		ldi r26,lo8(0)
 6721               	.L476:
 6722 2a7c 6F2F      		mov r22,r31
 6723 2a7e 620F      		add r22,r18
 6724 2a80 E1E0      		ldi r30,lo8(1)
 6725 2a82 6217      		cp r22,r18
 6726 2a84 00F0      		brlo .L477
 6727 2a86 E0E0      		ldi r30,lo8(0)
 6728               	.L477:
 6729 2a88 AE2B      		or r26,r30
 6730 2a8a 272F      		mov r18,r23
 6731 2a8c 2E0D      		add r18,r14
 6732 2a8e F1E0      		ldi r31,lo8(1)
 6733 2a90 2717      		cp r18,r23
 6734 2a92 00F0      		brlo .L478
 6735 2a94 F0E0      		ldi r31,lo8(0)
 6736               	.L478:
 6737 2a96 7A2F      		mov r23,r26
 6738 2a98 720F      		add r23,r18
 6739 2a9a E1E0      		ldi r30,lo8(1)
 6740 2a9c 7217      		cp r23,r18
 6741 2a9e 00F0      		brlo .L479
 6742 2aa0 E0E0      		ldi r30,lo8(0)
 6743               	.L479:
 6744 2aa2 FE2B      		or r31,r30
 6745 2aa4 282F      		mov r18,r24
 6746 2aa6 2D0D      		add r18,r13
 6747 2aa8 E1E0      		ldi r30,lo8(1)
 6748 2aaa 2817      		cp r18,r24
 6749 2aac 00F0      		brlo .L480
 6750 2aae E0E0      		ldi r30,lo8(0)
 6751               	.L480:
 6752 2ab0 8F2F      		mov r24,r31
 6753 2ab2 820F      		add r24,r18
 6754 2ab4 91E0      		ldi r25,lo8(1)
 6755 2ab6 8217      		cp r24,r18
 6756 2ab8 00F0      		brlo .L481
 6757 2aba 90E0      		ldi r25,lo8(0)
 6758               	.L481:
 6759 2abc 6E2E      		mov r6,r30
 6760 2abe 692A      		or r6,r25
 6761 2ac0 1C0D      		add r17,r12
 6762 2ac2 BE8B      		std Y+22,r27
 6763 2ac4 3F8B      		std Y+23,r19
 6764 2ac6 488F      		std Y+24,r20
 6765 2ac8 598F      		std Y+25,r21
 6766 2aca 362E      		mov r3,r22
 6767 2acc 472E      		mov r4,r23
 6768 2ace 582E      		mov r5,r24
 6769 2ad0 610E      		add r6,r17
 6770               	.LM302:
 6771 2ad2 8C85      		ldd r24,Y+12
 6772 2ad4 9D85      		ldd r25,Y+13
 6773 2ad6 4A81      		ldd r20,Y+2
 6774 2ad8 5B81      		ldd r21,Y+3
 6775 2ada 6C81      		ldd r22,Y+4
 6776 2adc 7D81      		ldd r23,Y+5
 6777 2ade 0E94 0000 		call fat_clear_cluster
 6778 2ae2 00C0      		rjmp .L482
 6779               	.LVL458:
 6780               	.L468:
 6781               	.LM303:
 6782 2ae4 6E83      		std Y+6,r22
 6783 2ae6 7F83      		std Y+7,r23
 6784 2ae8 8887      		std Y+8,r24
 6785 2aea 9987      		std Y+9,r25
 6786               	.LVL459:
 6787               	.L467:
 6788               	.LBE76:
 6789               	.LBB77:
 6790               	.LBB78:
 6791               	.LM304:
 6792 2aec 2E81      		ldd r18,Y+6
 6793 2aee 3F81      		ldd r19,Y+7
 6794 2af0 4885      		ldd r20,Y+8
 6795 2af2 5985      		ldd r21,Y+9
 6796 2af4 2230      		cpi r18,lo8(2)
 6797 2af6 3105      		cpc r19,__zero_reg__
 6798 2af8 4105      		cpc r20,__zero_reg__
 6799 2afa 5105      		cpc r21,__zero_reg__
 6800 2afc 00F4      		brsh .L483
 6801 2afe DD24      		clr r13
 6802               	.LVL460:
 6803 2b00 CC24      		clr r12
 6804 2b02 BB24      		clr r11
 6805 2b04 AA24      		clr r10
 6806 2b06 2224      		clr r2
 6807 2b08 9924      		clr r9
 6808 2b0a 8824      		clr r8
 6809 2b0c 7724      		clr r7
 6810 2b0e 00C0      		rjmp .L484
 6811               	.LVL461:
 6812               	.L483:
 6813               	.LM305:
 6814 2b10 8E81      		ldd r24,Y+6
 6815 2b12 9F81      		ldd r25,Y+7
 6816 2b14 A885      		ldd r26,Y+8
 6817 2b16 B985      		ldd r27,Y+9
 6818               	.LVL462:
 6819 2b18 0297      		sbiw r24,2
 6820 2b1a A109      		sbc r26,__zero_reg__
 6821 2b1c B109      		sbc r27,__zero_reg__
 6822 2b1e 5C01      		movw r10,r24
 6823 2b20 6D01      		movw r12,r26
 6824               	.LVL463:
 6825 2b22 0296      		adiw r24,2
 6826 2b24 A11D      		adc r26,__zero_reg__
 6827 2b26 B11D      		adc r27,__zero_reg__
 6828 2b28 8E83      		std Y+6,r24
 6829 2b2a 9F83      		std Y+7,r25
 6830 2b2c A887      		std Y+8,r26
 6831 2b2e B987      		std Y+9,r27
 6832               	.LVL464:
 6833 2b30 AC85      		ldd r26,Y+12
 6834 2b32 BD85      		ldd r27,Y+13
 6835 2b34 5896      		adiw r26,24
 6836 2b36 2D90      		ld r2,X+
 6837 2b38 3C90      		ld r3,X
 6838 2b3a 5997      		sbiw r26,24+1
 6839               	.LVL465:
 6840 2b3c 9501      		movw r18,r10
 6841 2b3e A601      		movw r20,r12
 6842               	.LVL466:
 6843 2b40 60E0      		ldi r22,lo8(0)
 6844               	.LVL467:
 6845 2b42 70E0      		ldi r23,lo8(0)
 6846 2b44 80E0      		ldi r24,lo8(0)
 6847 2b46 90E0      		ldi r25,lo8(0)
 6848 2b48 5101      		movw r10,r2
 6849 2b4a CC24      		clr r12
 6850 2b4c DD24      		clr r13
 6851 2b4e EE24      		clr r14
 6852 2b50 FF24      		clr r15
 6853 2b52 00E0      		ldi r16,lo8(0)
 6854 2b54 10E0      		ldi r17,lo8(0)
 6855 2b56 0E94 0000 		call __muldi3
 6856 2b5a C92E      		mov r12,r25
 6857 2b5c EC85      		ldd r30,Y+12
 6858 2b5e FD85      		ldd r31,Y+13
 6859 2b60 B28D      		ldd r27,Z+26
 6860 2b62 B38C      		ldd r11,Z+27
 6861               	.LVL468:
 6862 2b64 A48D      		ldd r26,Z+28
 6863 2b66 058D      		ldd r16,Z+29
 6864 2b68 F68C      		ldd r15,Z+30
 6865 2b6a E78C      		ldd r14,Z+31
 6866 2b6c D0A0      		ldd r13,Z+32
 6867 2b6e 11A1      		ldd r17,Z+33
 6868 2b70 B20F      		add r27,r18
 6869 2b72 E1E0      		ldi r30,lo8(1)
 6870 2b74 B217      		cp r27,r18
 6871 2b76 00F0      		brlo .L485
 6872 2b78 E0E0      		ldi r30,lo8(0)
 6873               	.L485:
 6874 2b7a 232F      		mov r18,r19
 6875 2b7c 2B0D      		add r18,r11
 6876 2b7e F1E0      		ldi r31,lo8(1)
 6877 2b80 2317      		cp r18,r19
 6878 2b82 00F0      		brlo .L486
 6879 2b84 F0E0      		ldi r31,lo8(0)
 6880               	.L486:
 6881 2b86 3E2F      		mov r19,r30
 6882 2b88 320F      		add r19,r18
 6883 2b8a E1E0      		ldi r30,lo8(1)
 6884 2b8c 3217      		cp r19,r18
 6885 2b8e 00F0      		brlo .L487
 6886 2b90 E0E0      		ldi r30,lo8(0)
 6887               	.L487:
 6888 2b92 FE2B      		or r31,r30
 6889 2b94 242F      		mov r18,r20
 6890 2b96 2A0F      		add r18,r26
 6891 2b98 A1E0      		ldi r26,lo8(1)
 6892 2b9a 2417      		cp r18,r20
 6893 2b9c 00F0      		brlo .L488
 6894 2b9e A0E0      		ldi r26,lo8(0)
 6895               	.L488:
 6896 2ba0 4F2F      		mov r20,r31
 6897 2ba2 420F      		add r20,r18
 6898 2ba4 E1E0      		ldi r30,lo8(1)
 6899 2ba6 4217      		cp r20,r18
 6900 2ba8 00F0      		brlo .L489
 6901 2baa E0E0      		ldi r30,lo8(0)
 6902               	.L489:
 6903 2bac AE2B      		or r26,r30
 6904 2bae 252F      		mov r18,r21
 6905 2bb0 200F      		add r18,r16
 6906 2bb2 F1E0      		ldi r31,lo8(1)
 6907 2bb4 2517      		cp r18,r21
 6908 2bb6 00F0      		brlo .L490
 6909 2bb8 F0E0      		ldi r31,lo8(0)
 6910               	.L490:
 6911 2bba 5A2F      		mov r21,r26
 6912 2bbc 520F      		add r21,r18
 6913 2bbe E1E0      		ldi r30,lo8(1)
 6914 2bc0 5217      		cp r21,r18
 6915 2bc2 00F0      		brlo .L491
 6916 2bc4 E0E0      		ldi r30,lo8(0)
 6917               	.L491:
 6918 2bc6 FE2B      		or r31,r30
 6919 2bc8 262F      		mov r18,r22
 6920 2bca 2F0D      		add r18,r15
 6921 2bcc A1E0      		ldi r26,lo8(1)
 6922 2bce 2617      		cp r18,r22
 6923 2bd0 00F0      		brlo .L492
 6924 2bd2 A0E0      		ldi r26,lo8(0)
 6925               	.L492:
 6926 2bd4 6F2F      		mov r22,r31
 6927 2bd6 620F      		add r22,r18
 6928 2bd8 E1E0      		ldi r30,lo8(1)
 6929 2bda 6217      		cp r22,r18
 6930 2bdc 00F0      		brlo .L493
 6931 2bde E0E0      		ldi r30,lo8(0)
 6932               	.L493:
 6933 2be0 AE2B      		or r26,r30
 6934 2be2 272F      		mov r18,r23
 6935 2be4 2E0D      		add r18,r14
 6936 2be6 F1E0      		ldi r31,lo8(1)
 6937 2be8 2717      		cp r18,r23
 6938 2bea 00F0      		brlo .L494
 6939 2bec F0E0      		ldi r31,lo8(0)
 6940               	.L494:
 6941 2bee 7A2F      		mov r23,r26
 6942 2bf0 720F      		add r23,r18
 6943 2bf2 E1E0      		ldi r30,lo8(1)
 6944 2bf4 7217      		cp r23,r18
 6945 2bf6 00F0      		brlo .L495
 6946 2bf8 E0E0      		ldi r30,lo8(0)
 6947               	.L495:
 6948 2bfa FE2B      		or r31,r30
 6949 2bfc 282F      		mov r18,r24
 6950 2bfe 2D0D      		add r18,r13
 6951 2c00 E1E0      		ldi r30,lo8(1)
 6952 2c02 2817      		cp r18,r24
 6953 2c04 00F0      		brlo .L496
 6954 2c06 E0E0      		ldi r30,lo8(0)
 6955               	.L496:
 6956 2c08 8F2F      		mov r24,r31
 6957 2c0a 820F      		add r24,r18
 6958 2c0c 91E0      		ldi r25,lo8(1)
 6959 2c0e 8217      		cp r24,r18
 6960 2c10 00F0      		brlo .L497
 6961 2c12 90E0      		ldi r25,lo8(0)
 6962               	.L497:
 6963 2c14 7E2E      		mov r7,r30
 6964 2c16 792A      		or r7,r25
 6965 2c18 1C0D      		add r17,r12
 6966 2c1a DB2E      		mov r13,r27
 6967               	.LVL469:
 6968 2c1c C32E      		mov r12,r19
 6969               	.LVL470:
 6970 2c1e B42E      		mov r11,r20
 6971               	.LVL471:
 6972 2c20 A52E      		mov r10,r21
 6973               	.LVL472:
 6974 2c22 262E      		mov r2,r22
 6975               	.LVL473:
 6976 2c24 972E      		mov r9,r23
 6977 2c26 882E      		mov r8,r24
 6978 2c28 710E      		add r7,r17
 6979               	.LVL474:
 6980               	.L484:
 6981               	.LBE78:
 6982               	.LBE77:
 6983               	.LM306:
 6984 2c2a AC85      		ldd r26,Y+12
 6985 2c2c BD85      		ldd r27,Y+13
 6986 2c2e 5896      		adiw r26,24
 6987 2c30 8D91      		ld r24,X+
 6988 2c32 9C91      		ld r25,X
 6989 2c34 5997      		sbiw r26,24+1
 6990 2c36 9C01      		movw r18,r24
 6991 2c38 FD2D      		mov r31,r13
 6992 2c3a F80F      		add r31,r24
 6993 2c3c E1E0      		ldi r30,lo8(1)
 6994 2c3e FD15      		cp r31,r13
 6995 2c40 00F0      		brlo .L498
 6996 2c42 E0E0      		ldi r30,lo8(0)
 6997               	.L498:
 6998 2c44 8C2D      		mov r24,r12
 6999 2c46 830F      		add r24,r19
 7000 2c48 21E0      		ldi r18,lo8(1)
 7001 2c4a 8C15      		cp r24,r12
 7002 2c4c 00F0      		brlo .L499
 7003 2c4e 20E0      		ldi r18,lo8(0)
 7004               	.L499:
 7005 2c50 6E2F      		mov r22,r30
 7006               	.LVL475:
 7007 2c52 680F      		add r22,r24
 7008 2c54 91E0      		ldi r25,lo8(1)
 7009 2c56 6817      		cp r22,r24
 7010 2c58 00F0      		brlo .L500
 7011 2c5a 90E0      		ldi r25,lo8(0)
 7012               	.L500:
 7013 2c5c 922B      		or r25,r18
 7014 2c5e 9B0D      		add r25,r11
 7015 2c60 81E0      		ldi r24,lo8(1)
 7016 2c62 9B15      		cp r25,r11
 7017 2c64 00F0      		brlo .L502
 7018 2c66 80E0      		ldi r24,lo8(0)
 7019               	.L502:
 7020 2c68 582F      		mov r21,r24
 7021 2c6a 5A0D      		add r21,r10
 7022 2c6c 81E0      		ldi r24,lo8(1)
 7023 2c6e 5A15      		cp r21,r10
 7024 2c70 00F0      		brlo .L504
 7025 2c72 80E0      		ldi r24,lo8(0)
 7026               	.L504:
 7027 2c74 482F      		mov r20,r24
 7028 2c76 420D      		add r20,r2
 7029 2c78 81E0      		ldi r24,lo8(1)
 7030 2c7a 4215      		cp r20,r2
 7031 2c7c 00F0      		brlo .L506
 7032 2c7e 80E0      		ldi r24,lo8(0)
 7033               	.L506:
 7034 2c80 382F      		mov r19,r24
 7035 2c82 390D      		add r19,r9
 7036 2c84 81E0      		ldi r24,lo8(1)
 7037 2c86 3915      		cp r19,r9
 7038 2c88 00F0      		brlo .L508
 7039 2c8a 80E0      		ldi r24,lo8(0)
 7040               	.L508:
 7041 2c8c 880D      		add r24,r8
 7042 2c8e 21E0      		ldi r18,lo8(1)
 7043 2c90 8815      		cp r24,r8
 7044 2c92 00F0      		brlo .L510
 7045 2c94 20E0      		ldi r18,lo8(0)
 7046               	.L510:
 7047 2c96 FE87      		std Y+14,r31
 7048 2c98 6F87      		std Y+15,r22
 7049 2c9a 988B      		std Y+16,r25
 7050 2c9c 598B      		std Y+17,r21
 7051 2c9e 4A8B      		std Y+18,r20
 7052 2ca0 3B8B      		std Y+19,r19
 7053 2ca2 8C8B      		std Y+20,r24
 7054 2ca4 270D      		add r18,r7
 7055 2ca6 2D8B      		std Y+21,r18
 7056 2ca8 DE8A      		std Y+22,r13
 7057 2caa CF8A      		std Y+23,r12
 7058 2cac B88E      		std Y+24,r11
 7059 2cae A98E      		std Y+25,r10
 7060 2cb0 322C      		mov r3,r2
 7061 2cb2 492C      		mov r4,r9
 7062 2cb4 582C      		mov r5,r8
 7063 2cb6 672C      		mov r6,r7
 7064 2cb8 1A86      		std Y+10,__zero_reg__
 7065               	.LVL476:
 7066               	.L466:
 7067               	.LM307:
 7068 2cba AC85      		ldd r26,Y+12
 7069 2cbc BD85      		ldd r27,Y+13
 7070 2cbe ED91      		ld r30,X+
 7071 2cc0 FC91      		ld r31,X
 7072 2cc2 0190      		ld __tmp_reg__,Z+
 7073 2cc4 F081      		ld r31,Z
 7074 2cc6 E02D      		mov r30,__tmp_reg__
 7075 2cc8 2D2D      		mov r18,r13
 7076 2cca 3C2D      		mov r19,r12
 7077 2ccc 4B2D      		mov r20,r11
 7078 2cce 5A2D      		mov r21,r10
 7079 2cd0 622D      		mov r22,r2
 7080 2cd2 792D      		mov r23,r9
 7081 2cd4 882D      		mov r24,r8
 7082 2cd6 972D      		mov r25,r7
 7083 2cd8 8E01      		movw r16,r28
 7084 2cda 0F5F      		subi r16,lo8(-(1))
 7085 2cdc 1F4F      		sbci r17,hi8(-(1))
 7086 2cde B1E0      		ldi r27,lo8(1)
 7087 2ce0 EB2E      		mov r14,r27
 7088 2ce2 F12C      		mov r15,__zero_reg__
 7089 2ce4 0995      		icall
 7090 2ce6 8823      		tst r24
 7091 2ce8 01F4      		brne .+2
 7092 2cea 00C0      		rjmp .L462
 7093               	.LM308:
 7094 2cec 8981      		ldd r24,Y+1
 7095 2cee 853E      		cpi r24,lo8(-27)
 7096 2cf0 01F0      		breq .L511
 7097 2cf2 8823      		tst r24
 7098 2cf4 01F4      		brne .L512
 7099               	.L511:
 7100               	.LM309:
 7101 2cf6 BA85      		ldd r27,Y+10
 7102 2cf8 BF5F      		subi r27,lo8(-(1))
 7103 2cfa BA87      		std Y+10,r27
 7104               	.LVL477:
 7105               	.LM310:
 7106 2cfc EB85      		ldd r30,Y+11
 7107 2cfe BE17      		cp r27,r30
 7108 2d00 00F0      		brlo .+2
 7109 2d02 00C0      		rjmp .L482
 7110               	.LM311:
 7111 2d04 7D2D      		mov r23,r13
 7112 2d06 705E      		subi r23,lo8(-(32))
 7113 2d08 81E0      		ldi r24,lo8(1)
 7114 2d0a 7D15      		cp r23,r13
 7115 2d0c 00F0      		brlo .L513
 7116 2d0e 80E0      		ldi r24,lo8(0)
 7117               	.L513:
 7118 2d10 682F      		mov r22,r24
 7119 2d12 6C0D      		add r22,r12
 7120 2d14 81E0      		ldi r24,lo8(1)
 7121 2d16 6C15      		cp r22,r12
 7122 2d18 00F0      		brlo .L515
 7123 2d1a 80E0      		ldi r24,lo8(0)
 7124               	.L515:
 7125 2d1c 582F      		mov r21,r24
 7126 2d1e 5B0D      		add r21,r11
 7127 2d20 81E0      		ldi r24,lo8(1)
 7128 2d22 5B15      		cp r21,r11
 7129 2d24 00F0      		brlo .L517
 7130 2d26 80E0      		ldi r24,lo8(0)
 7131               	.L517:
 7132 2d28 482F      		mov r20,r24
 7133 2d2a 4A0D      		add r20,r10
 7134 2d2c 81E0      		ldi r24,lo8(1)
 7135 2d2e 4A15      		cp r20,r10
 7136 2d30 00F0      		brlo .L519
 7137 2d32 80E0      		ldi r24,lo8(0)
 7138               	.L519:
 7139 2d34 382F      		mov r19,r24
 7140 2d36 320D      		add r19,r2
 7141 2d38 81E0      		ldi r24,lo8(1)
 7142 2d3a 3215      		cp r19,r2
 7143 2d3c 00F0      		brlo .L521
 7144 2d3e 80E0      		ldi r24,lo8(0)
 7145               	.L521:
 7146 2d40 282F      		mov r18,r24
 7147 2d42 290D      		add r18,r9
 7148 2d44 81E0      		ldi r24,lo8(1)
 7149 2d46 2915      		cp r18,r9
 7150 2d48 00F0      		brlo .L523
 7151 2d4a 80E0      		ldi r24,lo8(0)
 7152               	.L523:
 7153 2d4c 880D      		add r24,r8
 7154 2d4e 91E0      		ldi r25,lo8(1)
 7155 2d50 8815      		cp r24,r8
 7156 2d52 00F0      		brlo .L525
 7157 2d54 90E0      		ldi r25,lo8(0)
 7158               	.L525:
 7159 2d56 6B01      		movw r12,r22
 7160               	.LVL478:
 7161 2d58 5A01      		movw r10,r20
 7162               	.LVL479:
 7163 2d5a 232E      		mov r2,r19
 7164 2d5c 922E      		mov r9,r18
 7165 2d5e 882E      		mov r8,r24
 7166 2d60 790E      		add r7,r25
 7167 2d62 00C0      		rjmp .L541
 7168               	.LVL480:
 7169               	.L512:
 7170               	.LM312:
 7171 2d64 7D2D      		mov r23,r13
 7172 2d66 705E      		subi r23,lo8(-(32))
 7173 2d68 81E0      		ldi r24,lo8(1)
 7174 2d6a 7D15      		cp r23,r13
 7175 2d6c 00F0      		brlo .L527
 7176 2d6e 80E0      		ldi r24,lo8(0)
 7177               	.L527:
 7178 2d70 682F      		mov r22,r24
 7179 2d72 6C0D      		add r22,r12
 7180 2d74 81E0      		ldi r24,lo8(1)
 7181 2d76 6C15      		cp r22,r12
 7182 2d78 00F0      		brlo .L529
 7183 2d7a 80E0      		ldi r24,lo8(0)
 7184               	.L529:
 7185 2d7c 582F      		mov r21,r24
 7186 2d7e 5B0D      		add r21,r11
 7187 2d80 81E0      		ldi r24,lo8(1)
 7188 2d82 5B15      		cp r21,r11
 7189 2d84 00F0      		brlo .L531
 7190 2d86 80E0      		ldi r24,lo8(0)
 7191               	.L531:
 7192 2d88 482F      		mov r20,r24
 7193 2d8a 4A0D      		add r20,r10
 7194 2d8c 81E0      		ldi r24,lo8(1)
 7195 2d8e 4A15      		cp r20,r10
 7196 2d90 00F0      		brlo .L533
 7197 2d92 80E0      		ldi r24,lo8(0)
 7198               	.L533:
 7199 2d94 382F      		mov r19,r24
 7200 2d96 320D      		add r19,r2
 7201 2d98 81E0      		ldi r24,lo8(1)
 7202 2d9a 3215      		cp r19,r2
 7203 2d9c 00F0      		brlo .L535
 7204 2d9e 80E0      		ldi r24,lo8(0)
 7205               	.L535:
 7206 2da0 282F      		mov r18,r24
 7207 2da2 290D      		add r18,r9
 7208 2da4 81E0      		ldi r24,lo8(1)
 7209 2da6 2915      		cp r18,r9
 7210 2da8 00F0      		brlo .L537
 7211 2daa 80E0      		ldi r24,lo8(0)
 7212               	.L537:
 7213 2dac 880D      		add r24,r8
 7214 2dae 91E0      		ldi r25,lo8(1)
 7215 2db0 8815      		cp r24,r8
 7216 2db2 00F0      		brlo .L539
 7217 2db4 90E0      		ldi r25,lo8(0)
 7218               	.L539:
 7219 2db6 6B01      		movw r12,r22
 7220               	.LVL481:
 7221 2db8 5A01      		movw r10,r20
 7222               	.LVL482:
 7223 2dba 232E      		mov r2,r19
 7224 2dbc 922E      		mov r9,r18
 7225 2dbe 882E      		mov r8,r24
 7226 2dc0 790E      		add r7,r25
 7227 2dc2 00C0      		rjmp .L543
 7228               	.LVL483:
 7229               	.L462:
 7230 2dc4 1E8A      		std Y+22,__zero_reg__
 7231 2dc6 1F8A      		std Y+23,__zero_reg__
 7232 2dc8 188E      		std Y+24,__zero_reg__
 7233 2dca 198E      		std Y+25,__zero_reg__
 7234 2dcc 3324      		clr r3
 7235 2dce 4424      		clr r4
 7236 2dd0 5524      		clr r5
 7237 2dd2 6624      		clr r6
 7238               	.L482:
 7239               	.LBE75:
 7240               	.LM313:
 7241 2dd4 2E89      		ldd r18,Y+22
 7242               	.LVL484:
 7243 2dd6 3F89      		ldd r19,Y+23
 7244 2dd8 488D      		ldd r20,Y+24
 7245               	.LVL485:
 7246 2dda 598D      		ldd r21,Y+25
 7247 2ddc 632D      		mov r22,r3
 7248               	.LVL486:
 7249 2dde 742D      		mov r23,r4
 7250 2de0 852D      		mov r24,r5
 7251 2de2 962D      		mov r25,r6
 7252               	/* epilogue start */
 7253 2de4 6996      		adiw r28,25
 7254 2de6 0FB6      		in __tmp_reg__,__SREG__
 7255 2de8 F894      		cli
 7256 2dea DEBF      		out __SP_H__,r29
 7257 2dec 0FBE      		out __SREG__,__tmp_reg__
 7258 2dee CDBF      		out __SP_L__,r28
 7259 2df0 CF91      		pop r28
 7260 2df2 DF91      		pop r29
 7261 2df4 1F91      		pop r17
 7262 2df6 0F91      		pop r16
 7263 2df8 FF90      		pop r15
 7264 2dfa EF90      		pop r14
 7265 2dfc DF90      		pop r13
 7266               	.LVL487:
 7267 2dfe CF90      		pop r12
 7268               	.LVL488:
 7269 2e00 BF90      		pop r11
 7270               	.LVL489:
 7271 2e02 AF90      		pop r10
 7272               	.LVL490:
 7273 2e04 9F90      		pop r9
 7274               	.LVL491:
 7275 2e06 8F90      		pop r8
 7276               	.LVL492:
 7277 2e08 7F90      		pop r7
 7278               	.LVL493:
 7279 2e0a 6F90      		pop r6
 7280               	.LVL494:
 7281 2e0c 5F90      		pop r5
 7282               	.LVL495:
 7283 2e0e 4F90      		pop r4
 7284               	.LVL496:
 7285 2e10 3F90      		pop r3
 7286               	.LVL497:
 7287 2e12 2F90      		pop r2
 7288               	.LVL498:
 7289 2e14 0895      		ret
 7290               	.LFE25:
 7293               	fat_write_dir_entry:
 7294               	.LFB26:
 7295               	.LM314:
 7296               	.LVL499:
 7297 2e16 2F92      		push r2
 7298 2e18 3F92      		push r3
 7299 2e1a 4F92      		push r4
 7300 2e1c 5F92      		push r5
 7301 2e1e 6F92      		push r6
 7302 2e20 7F92      		push r7
 7303 2e22 8F92      		push r8
 7304 2e24 9F92      		push r9
 7305 2e26 AF92      		push r10
 7306 2e28 BF92      		push r11
 7307 2e2a CF92      		push r12
 7308 2e2c DF92      		push r13
 7309 2e2e EF92      		push r14
 7310 2e30 FF92      		push r15
 7311 2e32 0F93      		push r16
 7312 2e34 1F93      		push r17
 7313 2e36 DF93      		push r29
 7314 2e38 CF93      		push r28
 7315 2e3a CDB7      		in r28,__SP_L__
 7316 2e3c DEB7      		in r29,__SP_H__
 7317 2e3e A597      		sbiw r28,37
 7318 2e40 0FB6      		in __tmp_reg__,__SREG__
 7319 2e42 F894      		cli
 7320 2e44 DEBF      		out __SP_H__,r29
 7321 2e46 0FBE      		out __SREG__,__tmp_reg__
 7322 2e48 CDBF      		out __SP_L__,r28
 7323               	/* prologue: function */
 7324               	/* frame size = 37 */
 7325 2e4a FC01      		movw r30,r24
 7326 2e4c 6B01      		movw r12,r22
 7327               	.LM315:
 7328 2e4e 0097      		sbiw r24,0
 7329 2e50 01F4      		brne .+2
 7330 2e52 00C0      		rjmp .L545
 7331               	.LVL500:
 7332 2e54 6115      		cp r22,__zero_reg__
 7333 2e56 7105      		cpc r23,__zero_reg__
 7334 2e58 01F4      		brne .+2
 7335 2e5a 00C0      		rjmp .L545
 7336               	.LVL501:
 7337               	.LM316:
 7338 2e5c 0190      		ld __tmp_reg__,Z+
 7339 2e5e F081      		ld r31,Z
 7340 2e60 E02D      		mov r30,__tmp_reg__
 7341 2e62 8481      		ldd r24,Z+4
 7342 2e64 9581      		ldd r25,Z+5
 7343               	.LVL502:
 7344 2e66 9BA3      		std Y+35,r25
 7345 2e68 8AA3      		std Y+34,r24
 7346               	.LVL503:
 7347               	.LM317:
 7348 2e6a DB01      		movw r26,r22
 7349 2e6c 9996      		adiw r26,41
 7350 2e6e 2C90      		ld r2,X
 7351 2e70 9997      		sbiw r26,41
 7352               	.LVL504:
 7353 2e72 9A96      		adiw r26,42
 7354 2e74 BC91      		ld r27,X
 7355 2e76 BCA3      		std Y+36,r27
 7356 2e78 FB01      		movw r30,r22
 7357 2e7a 73A4      		ldd r7,Z+43
 7358               	.LVL505:
 7359 2e7c 64A4      		ldd r6,Z+44
 7360               	.LVL506:
 7361 2e7e 55A4      		ldd r5,Z+45
 7362               	.LVL507:
 7363 2e80 46A4      		ldd r4,Z+46
 7364               	.LVL508:
 7365 2e82 37A4      		ldd r3,Z+47
 7366               	.LVL509:
 7367 2e84 F0A9      		ldd r31,Z+48
 7368 2e86 FDA3      		std Y+37,r31
 7369               	.LM318:
 7370 2e88 062F      		mov r16,r22
 7371               	.LVL510:
 7372 2e8a FD2C      		mov r15,r13
 7373               	.LVL511:
 7374               	.LM319:
 7375 2e8c FB01      		movw r30,r22
 7376 2e8e 0190      		ld __tmp_reg__,Z+
 7377 2e90 0020      		tst __tmp_reg__
 7378 2e92 01F4      		brne .-6
 7379 2e94 3197      		sbiw r30,1
 7380 2e96 1E2F      		mov r17,r30
 7381               	.LVL512:
 7382 2e98 161B      		sub r17,r22
 7383               	.LM320:
 7384 2e9a 812F      		mov r24,r17
 7385 2e9c 90E0      		ldi r25,lo8(0)
 7386               	.LVL513:
 7387 2e9e 0C96      		adiw r24,12
 7388 2ea0 6DE0      		ldi r22,lo8(13)
 7389 2ea2 70E0      		ldi r23,hi8(13)
 7390               	.LVL514:
 7391 2ea4 0E94 0000 		call __divmodhi4
 7392 2ea8 69A3      		std Y+33,r22
 7393               	.LVL515:
 7394               	.LM321:
 7395 2eaa CE01      		movw r24,r28
 7396 2eac 0196      		adiw r24,1
 7397 2eae 60E2      		ldi r22,lo8(32)
 7398 2eb0 70E0      		ldi r23,hi8(32)
 7399 2eb2 4BE0      		ldi r20,lo8(11)
 7400 2eb4 50E0      		ldi r21,hi8(11)
 7401 2eb6 0E94 0000 		call memset
 7402               	.LVL516:
 7403               	.LM322:
 7404 2eba C601      		movw r24,r12
 7405               	.LVL517:
 7406 2ebc 6EE2      		ldi r22,lo8(46)
 7407 2ebe 70E0      		ldi r23,hi8(46)
 7408 2ec0 0E94 0000 		call strrchr
 7409 2ec4 FC01      		movw r30,r24
 7410               	.LM323:
 7411 2ec6 0097      		sbiw r24,0
 7412               	.LVL518:
 7413 2ec8 01F0      		breq .L546
 7414 2eca 9C01      		movw r18,r24
 7415 2ecc 2F5F      		subi r18,lo8(-(1))
 7416 2ece 3F4F      		sbci r19,hi8(-(1))
 7417               	.LVL519:
 7418 2ed0 8181      		ldd r24,Z+1
 7419 2ed2 8823      		tst r24
 7420 2ed4 01F0      		breq .L546
 7421               	.LVL520:
 7422               	.LBB79:
 7423               	.LM324:
 7424 2ed6 D901      		movw r26,r18
 7425 2ed8 0D90      		ld __tmp_reg__,X+
 7426 2eda 0020      		tst __tmp_reg__
 7427 2edc 01F4      		brne .-6
 7428 2ede 1197      		sbiw r26,1
 7429 2ee0 A21B      		sub r26,r18
 7430 2ee2 B30B      		sbc r27,r19
 7431               	.LM325:
 7432 2ee4 8A2F      		mov r24,r26
 7433 2ee6 8095      		com r24
 7434 2ee8 180F      		add r17,r24
 7435               	.LM326:
 7436 2eea BE01      		movw r22,r28
 7437 2eec 675F      		subi r22,lo8(-(9))
 7438 2eee 7F4F      		sbci r23,hi8(-(9))
 7439 2ef0 4A2F      		mov r20,r26
 7440               	.LVL521:
 7441 2ef2 A430      		cpi r26,lo8(4)
 7442 2ef4 00F0      		brlo .L547
 7443               	.LVL522:
 7444 2ef6 43E0      		ldi r20,lo8(3)
 7445               	.LVL523:
 7446               	.L547:
 7447 2ef8 CB01      		movw r24,r22
 7448 2efa B901      		movw r22,r18
 7449               	.LVL524:
 7450 2efc 50E0      		ldi r21,lo8(0)
 7451 2efe 0E94 0000 		call memcpy
 7452               	.LVL525:
 7453               	.L546:
 7454 2f02 CE01      		movw r24,r28
 7455               	.LVL526:
 7456 2f04 0196      		adiw r24,1
 7457               	.LBE79:
 7458               	.LM327:
 7459 2f06 1930      		cpi r17,lo8(9)
 7460 2f08 00F4      		brsh .L549
 7461               	.LM328:
 7462 2f0a 602F      		mov r22,r16
 7463 2f0c 7F2D      		mov r23,r15
 7464 2f0e 412F      		mov r20,r17
 7465 2f10 50E0      		ldi r21,lo8(0)
 7466 2f12 0E94 0000 		call memcpy
 7467               	.LVL527:
 7468               	.LM329:
 7469 2f16 D601      		movw r26,r12
 7470               	.LVL528:
 7471 2f18 8C91      		ld r24,X
 7472 2f1a 8E32      		cpi r24,lo8(46)
 7473 2f1c 01F4      		brne .L551
 7474 2f1e 1196      		adiw r26,1
 7475 2f20 8C91      		ld r24,X
 7476 2f22 1197      		sbiw r26,1
 7477 2f24 8E32      		cpi r24,lo8(46)
 7478 2f26 01F4      		brne .L552
 7479 2f28 1296      		adiw r26,2
 7480 2f2a 8C91      		ld r24,X
 7481               	.L552:
 7482 2f2c 8823      		tst r24
 7483 2f2e 01F0      		breq .L553
 7484 2f30 00C0      		rjmp .L551
 7485               	.LVL529:
 7486               	.L549:
 7487               	.LBB80:
 7488               	.LM330:
 7489 2f32 DC01      		movw r26,r24
 7490 2f34 802F      		mov r24,r16
 7491 2f36 9F2D      		mov r25,r15
 7492 2f38 9C01      		movw r18,r24
 7493 2f3a F901      		movw r30,r18
 7494               	.LVL530:
 7495 2f3c 88E0      		ldi r24,lo8(8)
 7496               	.LVL531:
 7497               	.L554:
 7498 2f3e 0190      		ld r0,Z+
 7499 2f40 0D92      		st X+,r0
 7500 2f42 8150      		subi r24,lo8(-(-1))
 7501 2f44 01F4      		brne .L554
 7502               	.LM331:
 7503 2f46 F601      		movw r30,r12
 7504               	.LVL532:
 7505 2f48 81A1      		ldd r24,Z+33
 7506               	.LVL533:
 7507 2f4a 982F      		mov r25,r24
 7508               	.LVL534:
 7509 2f4c 9295      		swap r25
 7510 2f4e 9F70      		andi r25,lo8(15)
 7511               	.LM332:
 7512 2f50 803A      		cpi r24,lo8(-96)
 7513 2f52 00F4      		brsh .L555
 7514 2f54 905D      		subi r25,lo8(-(48))
 7515 2f56 00C0      		rjmp .L556
 7516               	.L555:
 7517 2f58 9F59      		subi r25,lo8(-(97))
 7518               	.L556:
 7519               	.LM333:
 7520 2f5a 8F70      		andi r24,lo8(15)
 7521               	.LVL535:
 7522               	.LM334:
 7523 2f5c 8A30      		cpi r24,lo8(10)
 7524 2f5e 00F4      		brsh .L557
 7525 2f60 805D      		subi r24,lo8(-(48))
 7526               	.LVL536:
 7527 2f62 00C0      		rjmp .L558
 7528               	.LVL537:
 7529               	.L557:
 7530 2f64 8F59      		subi r24,lo8(-(97))
 7531               	.LVL538:
 7532               	.L558:
 7533               	.LM335:
 7534 2f66 9F83      		std Y+7,r25
 7535               	.LM336:
 7536 2f68 8887      		std Y+8,r24
 7537 2f6a 00C0      		rjmp .L551
 7538               	.LVL539:
 7539               	.L553:
 7540 2f6c 19A2      		std Y+33,__zero_reg__
 7541               	.LVL540:
 7542               	.L551:
 7543               	.LBE80:
 7544               	.LM337:
 7545 2f6e 8981      		ldd r24,Y+1
 7546 2f70 853E      		cpi r24,lo8(-27)
 7547 2f72 01F4      		brne .L559
 7548               	.LM338:
 7549 2f74 85E0      		ldi r24,lo8(5)
 7550 2f76 8983      		std Y+1,r24
 7551               	.L559:
 7552               	.LM339:
 7553 2f78 85E1      		ldi r24,lo8(21)
 7554 2f7a FE01      		movw r30,r28
 7555 2f7c 3C96      		adiw r30,12
 7556 2f7e DF01      		movw r26,r30
 7557 2f80 1D92      		st X+,__zero_reg__
 7558 2f82 8A95      	        dec r24
 7559 2f84 01F4      		brne .-6
 7560               	.LM340:
 7561 2f86 F601      		movw r30,r12
 7562 2f88 80A1      		ldd r24,Z+32
 7563 2f8a 8C87      		std Y+12,r24
 7564               	.LM341:
 7565 2f8c 21A1      		ldd r18,Z+33
 7566 2f8e 32A1      		ldd r19,Z+34
 7567 2f90 43A1      		ldd r20,Z+35
 7568 2f92 54A1      		ldd r21,Z+36
 7569 2f94 CA01      		movw r24,r20
 7570 2f96 AA27      		clr r26
 7571 2f98 BB27      		clr r27
 7572 2f9a 9E8B      		std Y+22,r25
 7573 2f9c 8D8B      		std Y+21,r24
 7574               	.LM342:
 7575 2f9e 3C8F      		std Y+28,r19
 7576 2fa0 2B8F      		std Y+27,r18
 7577               	.LM343:
 7578 2fa2 85A1      		ldd r24,Z+37
 7579 2fa4 96A1      		ldd r25,Z+38
 7580 2fa6 A7A1      		ldd r26,Z+39
 7581 2fa8 B0A5      		ldd r27,Z+40
 7582 2faa 8D8F      		std Y+29,r24
 7583 2fac 9E8F      		std Y+30,r25
 7584 2fae AF8F      		std Y+31,r26
 7585 2fb0 B8A3      		std Y+32,r27
 7586               	.LM344:
 7587 2fb2 F9A1      		ldd r31,Y+33
 7588 2fb4 8F2F      		mov r24,r31
 7589               	.LVL541:
 7590 2fb6 90E0      		ldi r25,lo8(0)
 7591               	.LVL542:
 7592 2fb8 A5E0      		ldi r26,5
 7593 2fba 880F      	1:	lsl r24
 7594 2fbc 991F      		rol r25
 7595 2fbe AA95      		dec r26
 7596 2fc0 01F4      		brne 1b
 7597               	.LVL543:
 7598 2fc2 9C01      		movw r18,r24
 7599 2fc4 40E0      		ldi r20,lo8(0)
 7600 2fc6 50E0      		ldi r21,hi8(0)
 7601 2fc8 60E0      		ldi r22,lo8(0)
 7602 2fca 70E0      		ldi r23,hi8(0)
 7603 2fcc 80E0      		ldi r24,hlo8(0)
 7604 2fce 90E0      		ldi r25,hhi8(0)
 7605 2fd0 B22E      		mov r11,r18
 7606 2fd2 B20C      		add r11,r2
 7607 2fd4 A1E0      		ldi r26,lo8(1)
 7608 2fd6 B216      		cp r11,r18
 7609 2fd8 00F0      		brlo .L560
 7610 2fda A0E0      		ldi r26,lo8(0)
 7611               	.L560:
 7612 2fdc ECA1      		ldd r30,Y+36
 7613 2fde E30F      		add r30,r19
 7614 2fe0 F1E0      		ldi r31,lo8(1)
 7615 2fe2 E317      		cp r30,r19
 7616 2fe4 00F0      		brlo .L561
 7617 2fe6 F0E0      		ldi r31,lo8(0)
 7618               	.L561:
 7619 2fe8 EA2E      		mov r14,r26
 7620 2fea EE0E      		add r14,r30
 7621 2fec A1E0      		ldi r26,lo8(1)
 7622 2fee EE16      		cp r14,r30
 7623 2ff0 00F0      		brlo .L562
 7624 2ff2 A0E0      		ldi r26,lo8(0)
 7625               	.L562:
 7626 2ff4 FA2B      		or r31,r26
 7627 2ff6 E1E0      		ldi r30,lo8(1)
 7628 2ff8 7416      		cp r7,r20
 7629 2ffa 00F0      		brlo .L563
 7630 2ffc E0E0      		ldi r30,lo8(0)
 7631               	.L563:
 7632 2ffe FF2E      		mov r15,r31
 7633               	.LVL544:
 7634 3000 F70C      		add r15,r7
 7635 3002 F1E0      		ldi r31,lo8(1)
 7636 3004 F714      		cp r15,r7
 7637 3006 00F0      		brlo .L564
 7638 3008 F0E0      		ldi r31,lo8(0)
 7639               	.L564:
 7640 300a EF2B      		or r30,r31
 7641 300c F1E0      		ldi r31,lo8(1)
 7642 300e 6516      		cp r6,r21
 7643 3010 00F0      		brlo .L565
 7644 3012 F0E0      		ldi r31,lo8(0)
 7645               	.L565:
 7646 3014 0E2F      		mov r16,r30
 7647               	.LVL545:
 7648 3016 060D      		add r16,r6
 7649 3018 E1E0      		ldi r30,lo8(1)
 7650 301a 0615      		cp r16,r6
 7651 301c 00F0      		brlo .L566
 7652 301e E0E0      		ldi r30,lo8(0)
 7653               	.L566:
 7654 3020 FE2B      		or r31,r30
 7655 3022 E1E0      		ldi r30,lo8(1)
 7656 3024 5616      		cp r5,r22
 7657 3026 00F0      		brlo .L567
 7658 3028 E0E0      		ldi r30,lo8(0)
 7659               	.L567:
 7660 302a 1F2F      		mov r17,r31
 7661               	.LVL546:
 7662 302c 150D      		add r17,r5
 7663 302e F1E0      		ldi r31,lo8(1)
 7664 3030 1515      		cp r17,r5
 7665 3032 00F0      		brlo .L568
 7666 3034 F0E0      		ldi r31,lo8(0)
 7667               	.L568:
 7668 3036 EF2B      		or r30,r31
 7669 3038 F1E0      		ldi r31,lo8(1)
 7670 303a 4716      		cp r4,r23
 7671 303c 00F0      		brlo .L569
 7672 303e F0E0      		ldi r31,lo8(0)
 7673               	.L569:
 7674 3040 BE2F      		mov r27,r30
 7675 3042 B40D      		add r27,r4
 7676 3044 E1E0      		ldi r30,lo8(1)
 7677 3046 B415      		cp r27,r4
 7678 3048 00F0      		brlo .L570
 7679 304a E0E0      		ldi r30,lo8(0)
 7680               	.L570:
 7681 304c FE2B      		or r31,r30
 7682 304e A1E0      		ldi r26,lo8(1)
 7683 3050 3816      		cp r3,r24
 7684               	.LVL547:
 7685 3052 00F0      		brlo .L571
 7686 3054 A0E0      		ldi r26,lo8(0)
 7687               	.L571:
 7688 3056 8F2F      		mov r24,r31
 7689 3058 830D      		add r24,r3
 7690 305a E1E0      		ldi r30,lo8(1)
 7691 305c 8315      		cp r24,r3
 7692 305e 00F0      		brlo .L572
 7693 3060 E0E0      		ldi r30,lo8(0)
 7694               	.L572:
 7695 3062 AE2B      		or r26,r30
 7696 3064 2B2D      		mov r18,r11
 7697 3066 3E2D      		mov r19,r14
 7698 3068 4F2D      		mov r20,r15
 7699 306a 502F      		mov r21,r16
 7700 306c 612F      		mov r22,r17
 7701 306e 7B2F      		mov r23,r27
 7702 3070 9DA1      		ldd r25,Y+37
 7703               	.LVL548:
 7704 3072 9A0F      		add r25,r26
 7705 3074 8E01      		movw r16,r28
 7706 3076 0F5F      		subi r16,lo8(-(1))
 7707 3078 1F4F      		sbci r17,hi8(-(1))
 7708 307a F0E2      		ldi r31,lo8(32)
 7709 307c EF2E      		mov r14,r31
 7710 307e F12C      		mov r15,__zero_reg__
 7711 3080 AAA1      		ldd r26,Y+34
 7712 3082 BBA1      		ldd r27,Y+35
 7713 3084 FD01      		movw r30,r26
 7714 3086 0995      		icall
 7715 3088 8823      		tst r24
 7716 308a 01F4      		brne .+2
 7717 308c 00C0      		rjmp .L545
 7718               	.LM345:
 7719 308e B980      		ldd r11,Y+1
 7720               	.LVL549:
 7721 3090 FE01      		movw r30,r28
 7722 3092 3296      		adiw r30,2
 7723               	.LBB81:
 7724               	.LM346:
 7725 3094 9E01      		movw r18,r28
 7726 3096 245F      		subi r18,lo8(-(12))
 7727 3098 3F4F      		sbci r19,hi8(-(12))
 7728               	.L573:
 7729               	.LM347:
 7730 309a 8B2D      		mov r24,r11
 7731 309c 8695      		lsr r24
 7732 309e B794      		ror r11
 7733 30a0 BB24      		clr r11
 7734 30a2 B794      		ror r11
 7735 30a4 B82A      		or r11,r24
 7736 30a6 8191      		ld r24,Z+
 7737 30a8 B80E      		add r11,r24
 7738               	.LM348:
 7739 30aa E217      		cp r30,r18
 7740 30ac F307      		cpc r31,r19
 7741 30ae 01F4      		brne .L573
 7742 30b0 A9A0      		ldd r10,Y+33
 7743               	.LVL550:
 7744               	.LBE81:
 7745               	.LBB82:
 7746               	.LBB83:
 7747               	.LM349:
 7748 30b2 4E01      		movw r8,r28
 7749 30b4 0894      		sec
 7750 30b6 811C      		adc r8,__zero_reg__
 7751 30b8 911C      		adc r9,__zero_reg__
 7752 30ba 00C0      		rjmp .L574
 7753               	.L594:
 7754 30bc C401      		movw r24,r8
 7755 30be 6FEF      		ldi r22,lo8(255)
 7756 30c0 70E0      		ldi r23,hi8(255)
 7757 30c2 40E2      		ldi r20,lo8(32)
 7758 30c4 50E0      		ldi r21,hi8(32)
 7759 30c6 0E94 0000 		call memset
 7760               	.LM350:
 7761 30ca EDE0      		ldi r30,lo8(13)
 7762 30cc AE9E      		mul r10,r30
 7763 30ce D001      		movw r26,r0
 7764 30d0 1124      		clr r1
 7765               	.LVL551:
 7766 30d2 1D97      		sbiw r26,13
 7767 30d4 AC0D      		add r26,r12
 7768 30d6 BD1D      		adc r27,r13
 7769 30d8 91E0      		ldi r25,lo8(1)
 7770               	.LVL552:
 7771               	.L579:
 7772               	.LM351:
 7773 30da F401      		movw r30,r8
 7774 30dc E90F      		add r30,r25
 7775 30de F11D      		adc r31,__zero_reg__
 7776 30e0 8C91      		ld r24,X
 7777 30e2 8083      		st Z,r24
 7778 30e4 892F      		mov r24,r25
 7779 30e6 8F5F      		subi r24,lo8(-(1))
 7780               	.LVL553:
 7781               	.LM352:
 7782 30e8 F401      		movw r30,r8
 7783 30ea E80F      		add r30,r24
 7784 30ec F11D      		adc r31,__zero_reg__
 7785 30ee 1082      		st Z,__zero_reg__
 7786 30f0 9E5F      		subi r25,lo8(-(2))
 7787               	.LVL554:
 7788               	.LM353:
 7789 30f2 9B30      		cpi r25,lo8(11)
 7790 30f4 01F0      		breq .L576
 7791 30f6 9A31      		cpi r25,lo8(26)
 7792 30f8 01F4      		brne .L575
 7793 30fa 00C0      		rjmp .L599
 7794               	.L576:
 7795 30fc 9EE0      		ldi r25,lo8(14)
 7796 30fe 00C0      		rjmp .L575
 7797               	.L599:
 7798 3100 9CE1      		ldi r25,lo8(28)
 7799               	.L575:
 7800               	.LM354:
 7801 3102 8C91      		ld r24,X
 7802 3104 8823      		tst r24
 7803 3106 01F0      		breq .L578
 7804               	.LM355:
 7805 3108 9F31      		cpi r25,lo8(31)
 7806 310a 00F4      		brsh .L578
 7807               	.LM356:
 7808 310c 1196      		adiw r26,1
 7809 310e 00C0      		rjmp .L579
 7810               	.L578:
 7811               	.LM357:
 7812 3110 A982      		std Y+1,r10
 7813               	.LM358:
 7814 3112 F9A1      		ldd r31,Y+33
 7815 3114 AF16      		cp r10,r31
 7816 3116 01F4      		brne .L580
 7817               	.LM359:
 7818 3118 8A2D      		mov r24,r10
 7819 311a 8064      		ori r24,lo8(64)
 7820 311c 8983      		std Y+1,r24
 7821               	.L580:
 7822               	.LM360:
 7823 311e 2FE0      		ldi r18,lo8(15)
 7824 3120 2C87      		std Y+12,r18
 7825               	.LM361:
 7826 3122 BE86      		std Y+14,r11
 7827               	.LM362:
 7828 3124 1D86      		std Y+13,__zero_reg__
 7829               	.LM363:
 7830 3126 1B8E      		std Y+27,__zero_reg__
 7831               	.LM364:
 7832 3128 1C8E      		std Y+28,__zero_reg__
 7833               	.LM365:
 7834 312a 222D      		mov r18,r2
 7835 312c 3CA1      		ldd r19,Y+36
 7836 312e 472D      		mov r20,r7
 7837 3130 562D      		mov r21,r6
 7838 3132 652D      		mov r22,r5
 7839 3134 742D      		mov r23,r4
 7840 3136 832D      		mov r24,r3
 7841 3138 9DA1      		ldd r25,Y+37
 7842               	.LVL555:
 7843 313a 8401      		movw r16,r8
 7844 313c E0E2      		ldi r30,lo8(32)
 7845 313e EE2E      		mov r14,r30
 7846 3140 F12C      		mov r15,__zero_reg__
 7847 3142 AAA1      		ldd r26,Y+34
 7848 3144 BBA1      		ldd r27,Y+35
 7849               	.LVL556:
 7850 3146 FD01      		movw r30,r26
 7851 3148 0995      		icall
 7852               	.LM366:
 7853 314a 722D      		mov r23,r2
 7854 314c 705E      		subi r23,lo8(-(32))
 7855 314e 81E0      		ldi r24,lo8(1)
 7856 3150 7215      		cp r23,r2
 7857 3152 00F0      		brlo .L581
 7858 3154 80E0      		ldi r24,lo8(0)
 7859               	.L581:
 7860 3156 6CA1      		ldd r22,Y+36
 7861 3158 680F      		add r22,r24
 7862 315a 81E0      		ldi r24,lo8(1)
 7863 315c BCA1      		ldd r27,Y+36
 7864 315e 6B17      		cp r22,r27
 7865 3160 00F0      		brlo .L583
 7866 3162 80E0      		ldi r24,lo8(0)
 7867               	.L583:
 7868 3164 582F      		mov r21,r24
 7869 3166 570D      		add r21,r7
 7870 3168 81E0      		ldi r24,lo8(1)
 7871 316a 5715      		cp r21,r7
 7872 316c 00F0      		brlo .L585
 7873 316e 80E0      		ldi r24,lo8(0)
 7874               	.L585:
 7875 3170 482F      		mov r20,r24
 7876 3172 460D      		add r20,r6
 7877 3174 81E0      		ldi r24,lo8(1)
 7878 3176 4615      		cp r20,r6
 7879 3178 00F0      		brlo .L587
 7880 317a 80E0      		ldi r24,lo8(0)
 7881               	.L587:
 7882 317c 382F      		mov r19,r24
 7883 317e 350D      		add r19,r5
 7884 3180 81E0      		ldi r24,lo8(1)
 7885 3182 3515      		cp r19,r5
 7886 3184 00F0      		brlo .L589
 7887 3186 80E0      		ldi r24,lo8(0)
 7888               	.L589:
 7889 3188 282F      		mov r18,r24
 7890 318a 240D      		add r18,r4
 7891 318c 81E0      		ldi r24,lo8(1)
 7892 318e 2415      		cp r18,r4
 7893 3190 00F0      		brlo .L591
 7894 3192 80E0      		ldi r24,lo8(0)
 7895               	.L591:
 7896 3194 830D      		add r24,r3
 7897 3196 91E0      		ldi r25,lo8(1)
 7898 3198 8315      		cp r24,r3
 7899 319a 00F0      		brlo .L593
 7900 319c 90E0      		ldi r25,lo8(0)
 7901               	.L593:
 7902 319e 272E      		mov r2,r23
 7903 31a0 6CA3      		std Y+36,r22
 7904 31a2 3A01      		movw r6,r20
 7905               	.LVL557:
 7906 31a4 2901      		movw r4,r18
 7907               	.LVL558:
 7908 31a6 382E      		mov r3,r24
 7909 31a8 EDA1      		ldd r30,Y+37
 7910 31aa E90F      		add r30,r25
 7911 31ac EDA3      		std Y+37,r30
 7912               	.LBE83:
 7913               	.LM367:
 7914 31ae AA94      		dec r10
 7915               	.LVL559:
 7916               	.L574:
 7917 31b0 AA20      		tst r10
 7918 31b2 01F0      		breq .+2
 7919 31b4 00C0      		rjmp .L594
 7920 31b6 81E0      		ldi r24,lo8(1)
 7921 31b8 00C0      		rjmp .L595
 7922               	.LVL560:
 7923               	.L545:
 7924 31ba 80E0      		ldi r24,lo8(0)
 7925               	.LVL561:
 7926               	.L595:
 7927               	/* epilogue start */
 7928               	.LBE82:
 7929               	.LM368:
 7930 31bc A596      		adiw r28,37
 7931 31be 0FB6      		in __tmp_reg__,__SREG__
 7932 31c0 F894      		cli
 7933 31c2 DEBF      		out __SP_H__,r29
 7934 31c4 0FBE      		out __SREG__,__tmp_reg__
 7935 31c6 CDBF      		out __SP_L__,r28
 7936 31c8 CF91      		pop r28
 7937 31ca DF91      		pop r29
 7938 31cc 1F91      		pop r17
 7939 31ce 0F91      		pop r16
 7940 31d0 FF90      		pop r15
 7941 31d2 EF90      		pop r14
 7942 31d4 DF90      		pop r13
 7943               	.LVL562:
 7944 31d6 CF90      		pop r12
 7945               	.LVL563:
 7946 31d8 BF90      		pop r11
 7947               	.LVL564:
 7948 31da AF90      		pop r10
 7949               	.LVL565:
 7950 31dc 9F90      		pop r9
 7951 31de 8F90      		pop r8
 7952 31e0 7F90      		pop r7
 7953               	.LVL566:
 7954 31e2 6F90      		pop r6
 7955               	.LVL567:
 7956 31e4 5F90      		pop r5
 7957               	.LVL568:
 7958 31e6 4F90      		pop r4
 7959               	.LVL569:
 7960 31e8 3F90      		pop r3
 7961               	.LVL570:
 7962 31ea 2F90      		pop r2
 7963               	.LVL571:
 7964 31ec 0895      		ret
 7965               	.LFE26:
 7967               	.global	fat_create_dir
 7969               	fat_create_dir:
 7970               	.LFB29:
 7971               	.LM369:
 7972               	.LVL572:
 7973 31ee 2F92      		push r2
 7974 31f0 3F92      		push r3
 7975 31f2 4F92      		push r4
 7976 31f4 5F92      		push r5
 7977 31f6 6F92      		push r6
 7978 31f8 7F92      		push r7
 7979 31fa 8F92      		push r8
 7980 31fc 9F92      		push r9
 7981 31fe AF92      		push r10
 7982 3200 BF92      		push r11
 7983 3202 CF92      		push r12
 7984 3204 DF92      		push r13
 7985 3206 EF92      		push r14
 7986 3208 FF92      		push r15
 7987 320a 0F93      		push r16
 7988 320c 1F93      		push r17
 7989 320e DF93      		push r29
 7990 3210 CF93      		push r28
 7991 3212 CDB7      		in r28,__SP_L__
 7992 3214 DEB7      		in r29,__SP_H__
 7993 3216 2E97      		sbiw r28,14
 7994 3218 0FB6      		in __tmp_reg__,__SREG__
 7995 321a F894      		cli
 7996 321c DEBF      		out __SP_H__,r29
 7997 321e 0FBE      		out __SREG__,__tmp_reg__
 7998 3220 CDBF      		out __SP_L__,r28
 7999               	/* prologue: function */
 8000               	/* frame size = 14 */
 8001 3222 9887      		std Y+8,r25
 8002 3224 8F83      		std Y+7,r24
 8003 3226 7A87      		std Y+10,r23
 8004 3228 6987      		std Y+9,r22
 8005 322a 5E87      		std Y+14,r21
 8006 322c 4D87      		std Y+13,r20
 8007               	.LM370:
 8008 322e 892B      		or r24,r25
 8009 3230 01F4      		brne .+2
 8010 3232 00C0      		rjmp .L601
 8011               	.LVL573:
 8012 3234 6115      		cp r22,__zero_reg__
 8013 3236 7105      		cpc r23,__zero_reg__
 8014 3238 01F4      		brne .+2
 8015 323a 00C0      		rjmp .L601
 8016               	.LVL574:
 8017 323c DB01      		movw r26,r22
 8018 323e 8C91      		ld r24,X
 8019               	.LVL575:
 8020 3240 8823      		tst r24
 8021 3242 01F4      		brne .+2
 8022 3244 00C0      		rjmp .L601
 8023 3246 452B      		or r20,r21
 8024 3248 01F4      		brne .L638
 8025               	.LVL576:
 8026 324a 00C0      		rjmp .L601
 8027               	.LVL577:
 8028               	.L605:
 8029               	.LM371:
 8030 324c 8985      		ldd r24,Y+9
 8031 324e 9A85      		ldd r25,Y+10
 8032 3250 6B85      		ldd r22,Y+11
 8033 3252 7C85      		ldd r23,Y+12
 8034 3254 0E94 0000 		call strcmp
 8035 3258 0097      		sbiw r24,0
 8036 325a 01F4      		brne .L603
 8037               	.LBB84:
 8038               	.LBB85:
 8039               	.LM372:
 8040 325c EF81      		ldd r30,Y+7
 8041 325e F885      		ldd r31,Y+8
 8042 3260 83A1      		ldd r24,Z+35
 8043 3262 94A1      		ldd r25,Z+36
 8044 3264 A5A1      		ldd r26,Z+37
 8045 3266 B6A1      		ldd r27,Z+38
 8046 3268 83AB      		std Z+51,r24
 8047 326a 94AB      		std Z+52,r25
 8048 326c A5AB      		std Z+53,r26
 8049 326e B6AB      		std Z+54,r27
 8050               	.LM373:
 8051 3270 10AE      		std Z+56,__zero_reg__
 8052 3272 17AA      		std Z+55,__zero_reg__
 8053 3274 00C0      		rjmp .L601
 8054               	.LVL578:
 8055               	.L638:
 8056               	.LBE85:
 8057               	.LBE84:
 8058               	.LM374:
 8059 3276 FD85      		ldd r31,Y+13
 8060 3278 FB87      		std Y+11,r31
 8061 327a 8E85      		ldd r24,Y+14
 8062               	.LVL579:
 8063 327c 8C87      		std Y+12,r24
 8064               	.LVL580:
 8065               	.L603:
 8066               	.LM375:
 8067 327e 8F81      		ldd r24,Y+7
 8068 3280 9885      		ldd r25,Y+8
 8069 3282 6D85      		ldd r22,Y+13
 8070 3284 7E85      		ldd r23,Y+14
 8071 3286 0E94 0000 		call fat_read_dir
 8072 328a 8823      		tst r24
 8073 328c 01F4      		brne .L605
 8074               	.LVL581:
 8075               	.LM376:
 8076 328e AF81      		ldd r26,Y+7
 8077 3290 B885      		ldd r27,Y+8
 8078 3292 0D90      		ld __tmp_reg__,X+
 8079 3294 BC91      		ld r27,X
 8080 3296 A02D      		mov r26,__tmp_reg__
 8081 3298 BE83      		std Y+6,r27
 8082 329a AD83      		std Y+5,r26
 8083               	.LVL582:
 8084               	.LM377:
 8085 329c CD01      		movw r24,r26
 8086 329e 40E0      		ldi r20,lo8(0)
 8087 32a0 50E0      		ldi r21,hi8(0)
 8088 32a2 60E0      		ldi r22,hlo8(0)
 8089 32a4 70E0      		ldi r23,hhi8(0)
 8090 32a6 01E0      		ldi r16,lo8(1)
 8091 32a8 10E0      		ldi r17,hi8(1)
 8092 32aa 20E0      		ldi r18,hlo8(1)
 8093 32ac 30E0      		ldi r19,hhi8(1)
 8094 32ae 0E94 0000 		call fat_append_clusters
 8095 32b2 6983      		std Y+1,r22
 8096 32b4 7A83      		std Y+2,r23
 8097 32b6 8B83      		std Y+3,r24
 8098 32b8 9C83      		std Y+4,r25
 8099               	.LVL583:
 8100               	.LM378:
 8101 32ba 6115      		cp r22,__zero_reg__
 8102 32bc 7105      		cpc r23,__zero_reg__
 8103 32be 8105      		cpc r24,__zero_reg__
 8104 32c0 9105      		cpc r25,__zero_reg__
 8105 32c2 01F4      		brne .+2
 8106 32c4 00C0      		rjmp .L601
 8107               	.LM379:
 8108 32c6 8D81      		ldd r24,Y+5
 8109 32c8 9E81      		ldd r25,Y+6
 8110 32ca 4981      		ldd r20,Y+1
 8111 32cc 5A81      		ldd r21,Y+2
 8112 32ce 6B81      		ldd r22,Y+3
 8113 32d0 7C81      		ldd r23,Y+4
 8114 32d2 0E94 0000 		call fat_clear_cluster
 8115               	.LM380:
 8116 32d6 81E3      		ldi r24,lo8(49)
 8117 32d8 ED85      		ldd r30,Y+13
 8118 32da FE85      		ldd r31,Y+14
 8119 32dc 1192      		st Z+,__zero_reg__
 8120 32de 8A95      	        dec r24
 8121 32e0 01F4      		brne .-6
 8122               	.LM381:
 8123 32e2 80E1      		ldi r24,lo8(16)
 8124 32e4 AD85      		ldd r26,Y+13
 8125 32e6 BE85      		ldd r27,Y+14
 8126 32e8 9096      		adiw r26,32
 8127 32ea 8C93      		st X,r24
 8128               	.LM382:
 8129 32ec 8981      		ldd r24,Y+1
 8130 32ee 9A81      		ldd r25,Y+2
 8131 32f0 AB81      		ldd r26,Y+3
 8132 32f2 BC81      		ldd r27,Y+4
 8133 32f4 0297      		sbiw r24,2
 8134 32f6 A109      		sbc r26,__zero_reg__
 8135 32f8 B109      		sbc r27,__zero_reg__
 8136 32fa 5C01      		movw r10,r24
 8137 32fc 6D01      		movw r12,r26
 8138 32fe 0296      		adiw r24,2
 8139 3300 A11D      		adc r26,__zero_reg__
 8140 3302 B11D      		adc r27,__zero_reg__
 8141 3304 8983      		std Y+1,r24
 8142 3306 9A83      		std Y+2,r25
 8143 3308 AB83      		std Y+3,r26
 8144 330a BC83      		std Y+4,r27
 8145               	.LVL584:
 8146 330c AD81      		ldd r26,Y+5
 8147 330e BE81      		ldd r27,Y+6
 8148 3310 5896      		adiw r26,24
 8149 3312 2D90      		ld r2,X+
 8150 3314 3C90      		ld r3,X
 8151 3316 5997      		sbiw r26,24+1
 8152 3318 9501      		movw r18,r10
 8153 331a A601      		movw r20,r12
 8154 331c 60E0      		ldi r22,lo8(0)
 8155 331e 70E0      		ldi r23,lo8(0)
 8156 3320 80E0      		ldi r24,lo8(0)
 8157 3322 90E0      		ldi r25,lo8(0)
 8158 3324 5101      		movw r10,r2
 8159 3326 CC24      		clr r12
 8160 3328 DD24      		clr r13
 8161 332a EE24      		clr r14
 8162 332c FF24      		clr r15
 8163 332e 00E0      		ldi r16,lo8(0)
 8164 3330 10E0      		ldi r17,lo8(0)
 8165 3332 0E94 0000 		call __muldi3
 8166 3336 ED81      		ldd r30,Y+5
 8167 3338 FE81      		ldd r31,Y+6
 8168 333a A28D      		ldd r26,Z+26
 8169 333c E38C      		ldd r14,Z+27
 8170 333e 148D      		ldd r17,Z+28
 8171 3340 058D      		ldd r16,Z+29
 8172 3342 F68C      		ldd r15,Z+30
 8173 3344 D78C      		ldd r13,Z+31
 8174 3346 C0A0      		ldd r12,Z+32
 8175 3348 B1A1      		ldd r27,Z+33
 8176 334a A20F      		add r26,r18
 8177 334c F1E0      		ldi r31,lo8(1)
 8178 334e A217      		cp r26,r18
 8179 3350 00F0      		brlo .L606
 8180 3352 F0E0      		ldi r31,lo8(0)
 8181               	.L606:
 8182 3354 232F      		mov r18,r19
 8183 3356 2E0D      		add r18,r14
 8184 3358 E1E0      		ldi r30,lo8(1)
 8185 335a 2317      		cp r18,r19
 8186 335c 00F0      		brlo .L607
 8187 335e E0E0      		ldi r30,lo8(0)
 8188               	.L607:
 8189 3360 EF2E      		mov r14,r31
 8190 3362 E20E      		add r14,r18
 8191 3364 31E0      		ldi r19,lo8(1)
 8192 3366 E216      		cp r14,r18
 8193 3368 00F0      		brlo .L608
 8194 336a 30E0      		ldi r19,lo8(0)
 8195               	.L608:
 8196 336c E32B      		or r30,r19
 8197 336e 242F      		mov r18,r20
 8198 3370 210F      		add r18,r17
 8199 3372 F1E0      		ldi r31,lo8(1)
 8200 3374 2417      		cp r18,r20
 8201 3376 00F0      		brlo .L609
 8202 3378 F0E0      		ldi r31,lo8(0)
 8203               	.L609:
 8204 337a 1E2F      		mov r17,r30
 8205 337c 120F      		add r17,r18
 8206 337e 31E0      		ldi r19,lo8(1)
 8207 3380 1217      		cp r17,r18
 8208 3382 00F0      		brlo .L610
 8209 3384 30E0      		ldi r19,lo8(0)
 8210               	.L610:
 8211 3386 F32B      		or r31,r19
 8212 3388 252F      		mov r18,r21
 8213 338a 200F      		add r18,r16
 8214 338c 41E0      		ldi r20,lo8(1)
 8215 338e 2517      		cp r18,r21
 8216 3390 00F0      		brlo .L611
 8217 3392 40E0      		ldi r20,lo8(0)
 8218               	.L611:
 8219 3394 0F2F      		mov r16,r31
 8220 3396 020F      		add r16,r18
 8221 3398 31E0      		ldi r19,lo8(1)
 8222 339a 0217      		cp r16,r18
 8223 339c 00F0      		brlo .L612
 8224 339e 30E0      		ldi r19,lo8(0)
 8225               	.L612:
 8226 33a0 432B      		or r20,r19
 8227 33a2 262F      		mov r18,r22
 8228 33a4 2F0D      		add r18,r15
 8229 33a6 51E0      		ldi r21,lo8(1)
 8230 33a8 2617      		cp r18,r22
 8231 33aa 00F0      		brlo .L613
 8232 33ac 50E0      		ldi r21,lo8(0)
 8233               	.L613:
 8234 33ae 642F      		mov r22,r20
 8235 33b0 620F      		add r22,r18
 8236 33b2 31E0      		ldi r19,lo8(1)
 8237 33b4 6217      		cp r22,r18
 8238 33b6 00F0      		brlo .L614
 8239 33b8 30E0      		ldi r19,lo8(0)
 8240               	.L614:
 8241 33ba 532B      		or r21,r19
 8242 33bc 272F      		mov r18,r23
 8243 33be 2D0D      		add r18,r13
 8244 33c0 41E0      		ldi r20,lo8(1)
 8245 33c2 2717      		cp r18,r23
 8246 33c4 00F0      		brlo .L615
 8247 33c6 40E0      		ldi r20,lo8(0)
 8248               	.L615:
 8249 33c8 520F      		add r21,r18
 8250 33ca 31E0      		ldi r19,lo8(1)
 8251 33cc 5217      		cp r21,r18
 8252 33ce 00F0      		brlo .L616
 8253 33d0 30E0      		ldi r19,lo8(0)
 8254               	.L616:
 8255 33d2 432B      		or r20,r19
 8256 33d4 282F      		mov r18,r24
 8257 33d6 2C0D      		add r18,r12
 8258 33d8 31E0      		ldi r19,lo8(1)
 8259 33da 2817      		cp r18,r24
 8260 33dc 00F0      		brlo .L617
 8261 33de 30E0      		ldi r19,lo8(0)
 8262               	.L617:
 8263 33e0 420F      		add r20,r18
 8264 33e2 81E0      		ldi r24,lo8(1)
 8265 33e4 4217      		cp r20,r18
 8266 33e6 00F0      		brlo .L618
 8267 33e8 80E0      		ldi r24,lo8(0)
 8268               	.L618:
 8269 33ea 382B      		or r19,r24
 8270 33ec B90F      		add r27,r25
 8271 33ee 3B0F      		add r19,r27
 8272 33f0 ED85      		ldd r30,Y+13
 8273 33f2 FE85      		ldd r31,Y+14
 8274 33f4 A1A7      		std Z+41,r26
 8275 33f6 E2A6      		std Z+42,r14
 8276 33f8 13A7      		std Z+43,r17
 8277 33fa 04A7      		std Z+44,r16
 8278 33fc 65A7      		std Z+45,r22
 8279 33fe 56A7      		std Z+46,r21
 8280 3400 47A7      		std Z+47,r20
 8281 3402 30AB      		std Z+48,r19
 8282               	.LM383:
 8283 3404 8EE2      		ldi r24,lo8(46)
 8284 3406 8083      		st Z,r24
 8285               	.LM384:
 8286 3408 8981      		ldd r24,Y+1
 8287 340a 9A81      		ldd r25,Y+2
 8288 340c AB81      		ldd r26,Y+3
 8289 340e BC81      		ldd r27,Y+4
 8290 3410 ED85      		ldd r30,Y+13
 8291 3412 FE85      		ldd r31,Y+14
 8292 3414 81A3      		std Z+33,r24
 8293 3416 92A3      		std Z+34,r25
 8294 3418 A3A3      		std Z+35,r26
 8295 341a B4A3      		std Z+36,r27
 8296               	.LM385:
 8297 341c 8D81      		ldd r24,Y+5
 8298 341e 9E81      		ldd r25,Y+6
 8299 3420 BF01      		movw r22,r30
 8300 3422 0E94 0000 		call fat_write_dir_entry
 8301 3426 8823      		tst r24
 8302 3428 01F4      		brne .+2
 8303 342a 00C0      		rjmp .L635
 8304               	.L619:
 8305               	.LM386:
 8306 342c AD85      		ldd r26,Y+13
 8307 342e BE85      		ldd r27,Y+14
 8308 3430 9996      		adiw r26,41
 8309 3432 8C91      		ld r24,X
 8310 3434 9997      		sbiw r26,41
 8311 3436 9A96      		adiw r26,42
 8312 3438 2C91      		ld r18,X
 8313 343a 9A97      		sbiw r26,42
 8314 343c 9B96      		adiw r26,43
 8315 343e 3C91      		ld r19,X
 8316 3440 9B97      		sbiw r26,43
 8317 3442 9C96      		adiw r26,44
 8318 3444 4C91      		ld r20,X
 8319 3446 9C97      		sbiw r26,44
 8320 3448 9D96      		adiw r26,45
 8321 344a 6C91      		ld r22,X
 8322 344c 9D97      		sbiw r26,45
 8323 344e 9E96      		adiw r26,46
 8324 3450 FC90      		ld r15,X
 8325 3452 9E97      		sbiw r26,46
 8326 3454 9F96      		adiw r26,47
 8327 3456 AC91      		ld r26,X
 8328 3458 ED85      		ldd r30,Y+13
 8329 345a FE85      		ldd r31,Y+14
 8330 345c 10A9      		ldd r17,Z+48
 8331 345e B82F      		mov r27,r24
 8332 3460 B05E      		subi r27,lo8(-(32))
 8333 3462 91E0      		ldi r25,lo8(1)
 8334 3464 B817      		cp r27,r24
 8335 3466 00F0      		brlo .L620
 8336 3468 90E0      		ldi r25,lo8(0)
 8337               	.L620:
 8338 346a 092F      		mov r16,r25
 8339 346c 020F      		add r16,r18
 8340 346e 81E0      		ldi r24,lo8(1)
 8341 3470 0217      		cp r16,r18
 8342 3472 00F0      		brlo .L622
 8343 3474 80E0      		ldi r24,lo8(0)
 8344               	.L622:
 8345 3476 782F      		mov r23,r24
 8346 3478 730F      		add r23,r19
 8347 347a 81E0      		ldi r24,lo8(1)
 8348 347c 7317      		cp r23,r19
 8349 347e 00F0      		brlo .L624
 8350 3480 80E0      		ldi r24,lo8(0)
 8351               	.L624:
 8352 3482 582F      		mov r21,r24
 8353 3484 540F      		add r21,r20
 8354 3486 81E0      		ldi r24,lo8(1)
 8355 3488 5417      		cp r21,r20
 8356 348a 00F0      		brlo .L626
 8357 348c 80E0      		ldi r24,lo8(0)
 8358               	.L626:
 8359 348e 382F      		mov r19,r24
 8360 3490 360F      		add r19,r22
 8361 3492 81E0      		ldi r24,lo8(1)
 8362 3494 3617      		cp r19,r22
 8363 3496 00F0      		brlo .L628
 8364 3498 80E0      		ldi r24,lo8(0)
 8365               	.L628:
 8366 349a 282F      		mov r18,r24
 8367 349c 2F0D      		add r18,r15
 8368 349e 81E0      		ldi r24,lo8(1)
 8369 34a0 2F15      		cp r18,r15
 8370 34a2 00F0      		brlo .L630
 8371 34a4 80E0      		ldi r24,lo8(0)
 8372               	.L630:
 8373 34a6 982F      		mov r25,r24
 8374 34a8 9A0F      		add r25,r26
 8375 34aa 81E0      		ldi r24,lo8(1)
 8376 34ac 9A17      		cp r25,r26
 8377 34ae 00F0      		brlo .L632
 8378 34b0 80E0      		ldi r24,lo8(0)
 8379               	.L632:
 8380 34b2 810F      		add r24,r17
 8381 34b4 ED85      		ldd r30,Y+13
 8382 34b6 FE85      		ldd r31,Y+14
 8383 34b8 B1A7      		std Z+41,r27
 8384 34ba 02A7      		std Z+42,r16
 8385 34bc 73A7      		std Z+43,r23
 8386 34be 54A7      		std Z+44,r21
 8387 34c0 35A7      		std Z+45,r19
 8388 34c2 26A7      		std Z+46,r18
 8389 34c4 97A7      		std Z+47,r25
 8390 34c6 80AB      		std Z+48,r24
 8391               	.LM387:
 8392 34c8 8EE2      		ldi r24,lo8(46)
 8393 34ca 8183      		std Z+1,r24
 8394               	.LM388:
 8395 34cc EF81      		ldd r30,Y+7
 8396 34ce F885      		ldd r31,Y+8
 8397 34d0 83A1      		ldd r24,Z+35
 8398 34d2 94A1      		ldd r25,Z+36
 8399 34d4 A5A1      		ldd r26,Z+37
 8400 34d6 B6A1      		ldd r27,Z+38
 8401 34d8 ED85      		ldd r30,Y+13
 8402 34da FE85      		ldd r31,Y+14
 8403 34dc 81A3      		std Z+33,r24
 8404 34de 92A3      		std Z+34,r25
 8405 34e0 A3A3      		std Z+35,r26
 8406 34e2 B4A3      		std Z+36,r27
 8407               	.LM389:
 8408 34e4 8D81      		ldd r24,Y+5
 8409 34e6 9E81      		ldd r25,Y+6
 8410 34e8 BF01      		movw r22,r30
 8411 34ea 0E94 0000 		call fat_write_dir_entry
 8412 34ee 8823      		tst r24
 8413 34f0 01F4      		brne .+2
 8414 34f2 00C0      		rjmp .L635
 8415               	.L633:
 8416               	.LM390:
 8417 34f4 8B85      		ldd r24,Y+11
 8418 34f6 9C85      		ldd r25,Y+12
 8419 34f8 6985      		ldd r22,Y+9
 8420 34fa 7A85      		ldd r23,Y+10
 8421 34fc 4FE1      		ldi r20,lo8(31)
 8422 34fe 50E0      		ldi r21,hi8(31)
 8423 3500 0E94 0000 		call strncpy
 8424               	.LM391:
 8425 3504 8981      		ldd r24,Y+1
 8426 3506 9A81      		ldd r25,Y+2
 8427 3508 AB81      		ldd r26,Y+3
 8428 350a BC81      		ldd r27,Y+4
 8429 350c ED85      		ldd r30,Y+13
 8430 350e FE85      		ldd r31,Y+14
 8431 3510 81A3      		std Z+33,r24
 8432 3512 92A3      		std Z+34,r25
 8433 3514 A3A3      		std Z+35,r26
 8434 3516 B4A3      		std Z+36,r27
 8435               	.LM392:
 8436 3518 8D81      		ldd r24,Y+5
 8437 351a 9E81      		ldd r25,Y+6
 8438 351c 6F81      		ldd r22,Y+7
 8439 351e 7885      		ldd r23,Y+8
 8440 3520 AF01      		movw r20,r30
 8441 3522 0E94 0000 		call fat_find_offset_for_dir_entry
 8442 3526 AD85      		ldd r26,Y+13
 8443 3528 BE85      		ldd r27,Y+14
 8444 352a 9996      		adiw r26,41
 8445 352c 2C93      		st X,r18
 8446 352e 9997      		sbiw r26,41
 8447 3530 9A96      		adiw r26,42
 8448 3532 3C93      		st X,r19
 8449 3534 9A97      		sbiw r26,42
 8450 3536 9B96      		adiw r26,43
 8451 3538 4C93      		st X,r20
 8452 353a 9B97      		sbiw r26,43
 8453 353c 9C96      		adiw r26,44
 8454 353e 5C93      		st X,r21
 8455 3540 9C97      		sbiw r26,44
 8456 3542 9D96      		adiw r26,45
 8457 3544 6C93      		st X,r22
 8458 3546 9D97      		sbiw r26,45
 8459 3548 9E96      		adiw r26,46
 8460 354a 7C93      		st X,r23
 8461 354c 9E97      		sbiw r26,46
 8462 354e 9F96      		adiw r26,47
 8463 3550 8C93      		st X,r24
 8464 3552 9F97      		sbiw r26,47
 8465 3554 D096      		adiw r26,48
 8466 3556 9C93      		st X,r25
 8467 3558 232B      		or r18,r19
 8468 355a 242B      		or r18,r20
 8469 355c 252B      		or r18,r21
 8470 355e 262B      		or r18,r22
 8471 3560 272B      		or r18,r23
 8472 3562 282B      		or r18,r24
 8473 3564 292B      		or r18,r25
 8474 3566 01F0      		breq .L635
 8475               	.L634:
 8476               	.LM393:
 8477 3568 8D81      		ldd r24,Y+5
 8478 356a 9E81      		ldd r25,Y+6
 8479 356c 6D85      		ldd r22,Y+13
 8480 356e 7E85      		ldd r23,Y+14
 8481 3570 0E94 0000 		call fat_write_dir_entry
 8482 3574 8823      		tst r24
 8483 3576 01F0      		breq .L635
 8484 3578 81E0      		ldi r24,lo8(1)
 8485 357a 00C0      		rjmp .L604
 8486               	.L635:
 8487               	.LM394:
 8488 357c 8D81      		ldd r24,Y+5
 8489 357e 9E81      		ldd r25,Y+6
 8490 3580 4981      		ldd r20,Y+1
 8491 3582 5A81      		ldd r21,Y+2
 8492 3584 6B81      		ldd r22,Y+3
 8493 3586 7C81      		ldd r23,Y+4
 8494 3588 0E94 0000 		call fat_free_clusters
 8495               	.LVL585:
 8496               	.L601:
 8497               	.LM395:
 8498 358c 80E0      		ldi r24,lo8(0)
 8499               	.L604:
 8500               	/* epilogue start */
 8501               	.LM396:
 8502 358e 2E96      		adiw r28,14
 8503 3590 0FB6      		in __tmp_reg__,__SREG__
 8504 3592 F894      		cli
 8505 3594 DEBF      		out __SP_H__,r29
 8506 3596 0FBE      		out __SREG__,__tmp_reg__
 8507 3598 CDBF      		out __SP_L__,r28
 8508 359a CF91      		pop r28
 8509 359c DF91      		pop r29
 8510 359e 1F91      		pop r17
 8511 35a0 0F91      		pop r16
 8512 35a2 FF90      		pop r15
 8513 35a4 EF90      		pop r14
 8514 35a6 DF90      		pop r13
 8515 35a8 CF90      		pop r12
 8516 35aa BF90      		pop r11
 8517 35ac AF90      		pop r10
 8518 35ae 9F90      		pop r9
 8519 35b0 8F90      		pop r8
 8520 35b2 7F90      		pop r7
 8521 35b4 6F90      		pop r6
 8522 35b6 5F90      		pop r5
 8523 35b8 4F90      		pop r4
 8524 35ba 3F90      		pop r3
 8525 35bc 2F90      		pop r2
 8526 35be 0895      		ret
 8527               	.LFE29:
 8529               	.global	fat_create_file
 8531               	fat_create_file:
 8532               	.LFB27:
 8533               	.LM397:
 8534               	.LVL586:
 8535 35c0 AF92      		push r10
 8536 35c2 BF92      		push r11
 8537 35c4 CF92      		push r12
 8538 35c6 DF92      		push r13
 8539 35c8 EF92      		push r14
 8540 35ca FF92      		push r15
 8541 35cc 0F93      		push r16
 8542 35ce 1F93      		push r17
 8543 35d0 CF93      		push r28
 8544 35d2 DF93      		push r29
 8545               	/* prologue: function */
 8546               	/* frame size = 0 */
 8547 35d4 8C01      		movw r16,r24
 8548 35d6 7B01      		movw r14,r22
 8549 35d8 EA01      		movw r28,r20
 8550               	.LM398:
 8551 35da 0097      		sbiw r24,0
 8552 35dc 01F4      		brne .+2
 8553 35de 00C0      		rjmp .L640
 8554               	.LVL587:
 8555 35e0 6115      		cp r22,__zero_reg__
 8556 35e2 7105      		cpc r23,__zero_reg__
 8557 35e4 01F4      		brne .+2
 8558 35e6 00C0      		rjmp .L640
 8559               	.LVL588:
 8560 35e8 FB01      		movw r30,r22
 8561 35ea 8081      		ld r24,Z
 8562               	.LVL589:
 8563 35ec 8823      		tst r24
 8564 35ee 01F4      		brne .+2
 8565 35f0 00C0      		rjmp .L640
 8566 35f2 4115      		cp r20,__zero_reg__
 8567 35f4 5105      		cpc r21,__zero_reg__
 8568 35f6 01F4      		brne .+2
 8569 35f8 00C0      		rjmp .L640
 8570               	.LVL590:
 8571               	.LM399:
 8572 35fa B42E      		mov r11,r20
 8573 35fc AD2E      		mov r10,r29
 8574               	.LVL591:
 8575               	.L642:
 8576               	.LM400:
 8577 35fe C801      		movw r24,r16
 8578 3600 BE01      		movw r22,r28
 8579 3602 0E94 0000 		call fat_read_dir
 8580 3606 8823      		tst r24
 8581 3608 01F0      		breq .L641
 8582               	.LM401:
 8583 360a C701      		movw r24,r14
 8584 360c 6B2D      		mov r22,r11
 8585 360e 7A2D      		mov r23,r10
 8586 3610 0E94 0000 		call strcmp
 8587 3614 0097      		sbiw r24,0
 8588 3616 01F4      		brne .L642
 8589               	.LBB86:
 8590               	.LBB87:
 8591               	.LM402:
 8592 3618 F801      		movw r30,r16
 8593 361a 83A1      		ldd r24,Z+35
 8594 361c 94A1      		ldd r25,Z+36
 8595 361e A5A1      		ldd r26,Z+37
 8596 3620 B6A1      		ldd r27,Z+38
 8597 3622 83AB      		std Z+51,r24
 8598 3624 94AB      		std Z+52,r25
 8599 3626 A5AB      		std Z+53,r26
 8600 3628 B6AB      		std Z+54,r27
 8601               	.LM403:
 8602 362a 10AE      		std Z+56,__zero_reg__
 8603 362c 17AA      		std Z+55,__zero_reg__
 8604 362e 00C0      		rjmp .L640
 8605               	.L641:
 8606               	.LBE87:
 8607               	.LBE86:
 8608               	.LM404:
 8609 3630 F801      		movw r30,r16
 8610 3632 C080      		ld r12,Z
 8611 3634 D180      		ldd r13,Z+1
 8612               	.LVL592:
 8613               	.LM405:
 8614 3636 81E3      		ldi r24,lo8(49)
 8615 3638 FE01      		movw r30,r28
 8616 363a 1192      		st Z+,__zero_reg__
 8617 363c 8A95      	        dec r24
 8618 363e 01F4      		brne .-6
 8619               	.LM406:
 8620 3640 8B2D      		mov r24,r11
 8621 3642 9A2D      		mov r25,r10
 8622 3644 B701      		movw r22,r14
 8623 3646 4FE1      		ldi r20,lo8(31)
 8624 3648 50E0      		ldi r21,hi8(31)
 8625 364a 0E94 0000 		call strncpy
 8626               	.LM407:
 8627 364e C601      		movw r24,r12
 8628 3650 B801      		movw r22,r16
 8629 3652 AE01      		movw r20,r28
 8630 3654 0E94 0000 		call fat_find_offset_for_dir_entry
 8631 3658 29A7      		std Y+41,r18
 8632 365a 3AA7      		std Y+42,r19
 8633 365c 4BA7      		std Y+43,r20
 8634 365e 5CA7      		std Y+44,r21
 8635 3660 6DA7      		std Y+45,r22
 8636 3662 7EA7      		std Y+46,r23
 8637 3664 8FA7      		std Y+47,r24
 8638 3666 98AB      		std Y+48,r25
 8639 3668 232B      		or r18,r19
 8640 366a 242B      		or r18,r20
 8641 366c 252B      		or r18,r21
 8642 366e 262B      		or r18,r22
 8643 3670 272B      		or r18,r23
 8644 3672 282B      		or r18,r24
 8645 3674 292B      		or r18,r25
 8646 3676 01F0      		breq .L640
 8647               	.LM408:
 8648 3678 C601      		movw r24,r12
 8649 367a BE01      		movw r22,r28
 8650 367c 0E94 0000 		call fat_write_dir_entry
 8651 3680 8823      		tst r24
 8652 3682 01F0      		breq .L643
 8653 3684 81E0      		ldi r24,lo8(1)
 8654 3686 00C0      		rjmp .L643
 8655               	.LVL593:
 8656               	.L640:
 8657 3688 80E0      		ldi r24,lo8(0)
 8658               	.L643:
 8659               	/* epilogue start */
 8660               	.LM409:
 8661 368a DF91      		pop r29
 8662               	.LVL594:
 8663 368c CF91      		pop r28
 8664               	.LVL595:
 8665 368e 1F91      		pop r17
 8666 3690 0F91      		pop r16
 8667               	.LVL596:
 8668 3692 FF90      		pop r15
 8669 3694 EF90      		pop r14
 8670               	.LVL597:
 8671 3696 DF90      		pop r13
 8672 3698 CF90      		pop r12
 8673               	.LVL598:
 8674 369a BF90      		pop r11
 8675 369c AF90      		pop r10
 8676 369e 0895      		ret
 8677               	.LFE27:
 8679               	.global	fat_resize_file
 8681               	fat_resize_file:
 8682               	.LFB18:
 8683               	.LM410:
 8684               	.LVL599:
 8685 36a0 2F92      		push r2
 8686 36a2 3F92      		push r3
 8687 36a4 4F92      		push r4
 8688 36a6 5F92      		push r5
 8689 36a8 6F92      		push r6
 8690 36aa 7F92      		push r7
 8691 36ac 8F92      		push r8
 8692 36ae 9F92      		push r9
 8693 36b0 AF92      		push r10
 8694 36b2 BF92      		push r11
 8695 36b4 CF92      		push r12
 8696 36b6 DF92      		push r13
 8697 36b8 EF92      		push r14
 8698 36ba FF92      		push r15
 8699 36bc 0F93      		push r16
 8700 36be 1F93      		push r17
 8701 36c0 DF93      		push r29
 8702 36c2 CF93      		push r28
 8703 36c4 CDB7      		in r28,__SP_L__
 8704 36c6 DEB7      		in r29,__SP_H__
 8705 36c8 6297      		sbiw r28,18
 8706 36ca 0FB6      		in __tmp_reg__,__SREG__
 8707 36cc F894      		cli
 8708 36ce DEBF      		out __SP_H__,r29
 8709 36d0 0FBE      		out __SREG__,__tmp_reg__
 8710 36d2 CDBF      		out __SP_L__,r28
 8711               	/* prologue: function */
 8712               	/* frame size = 18 */
 8713 36d4 1C01      		movw r2,r24
 8714 36d6 4B87      		std Y+11,r20
 8715 36d8 5C87      		std Y+12,r21
 8716 36da 6D87      		std Y+13,r22
 8717 36dc 7E87      		std Y+14,r23
 8718               	.LM411:
 8719 36de 0097      		sbiw r24,0
 8720 36e0 01F4      		brne .+2
 8721 36e2 00C0      		rjmp .L648
 8722               	.LVL600:
 8723               	.LM412:
 8724 36e4 DC01      		movw r26,r24
 8725 36e6 9396      		adiw r26,35
 8726 36e8 CD90      		ld r12,X+
 8727 36ea DD90      		ld r13,X+
 8728 36ec ED90      		ld r14,X+
 8729 36ee FC90      		ld r15,X
 8730 36f0 9697      		sbiw r26,35+3
 8731               	.LVL601:
 8732               	.LM413:
 8733 36f2 ED91      		ld r30,X+
 8734 36f4 FC91      		ld r31,X
 8735 36f6 208D      		ldd r18,Z+24
 8736 36f8 318D      		ldd r19,Z+25
 8737               	.LVL602:
 8738               	.LM414:
 8739 36fa C114      		cp r12,__zero_reg__
 8740 36fc D104      		cpc r13,__zero_reg__
 8741 36fe E104      		cpc r14,__zero_reg__
 8742 3700 F104      		cpc r15,__zero_reg__
 8743 3702 01F0      		breq .L649
 8744               	.LVL603:
 8745               	.L652:
 8746 3704 4B84      		ldd r4,Y+11
 8747 3706 5C84      		ldd r5,Y+12
 8748 3708 6D84      		ldd r6,Y+13
 8749 370a 7E84      		ldd r7,Y+14
 8750               	.LVL604:
 8751               	.LM415:
 8752 370c 4901      		movw r8,r18
 8753 370e AA24      		clr r10
 8754 3710 BB24      		clr r11
 8755               	.LBB88:
 8756               	.LM416:
 8757 3712 2227      		clr r18
 8758 3714 3327      		clr r19
 8759 3716 A901      		movw r20,r18
 8760 3718 2819      		sub r18,r8
 8761 371a 3909      		sbc r19,r9
 8762 371c 4A09      		sbc r20,r10
 8763 371e 5B09      		sbc r21,r11
 8764               	.LVL605:
 8765 3720 2F87      		std Y+15,r18
 8766 3722 388B      		std Y+16,r19
 8767 3724 498B      		std Y+17,r20
 8768 3726 5A8B      		std Y+18,r21
 8769 3728 00C0      		rjmp .L650
 8770               	.LVL606:
 8771               	.L649:
 8772               	.LBE88:
 8773               	.LM417:
 8774 372a 8B85      		ldd r24,Y+11
 8775 372c 9C85      		ldd r25,Y+12
 8776 372e AD85      		ldd r26,Y+13
 8777 3730 BE85      		ldd r27,Y+14
 8778               	.LVL607:
 8779 3732 0097      		sbiw r24,0
 8780 3734 A105      		cpc r26,__zero_reg__
 8781 3736 B105      		cpc r27,__zero_reg__
 8782 3738 01F4      		brne .+2
 8783 373a 00C0      		rjmp .L651
 8784 373c 00C0      		rjmp .L652
 8785               	.LVL608:
 8786               	.L654:
 8787               	.LBB89:
 8788               	.LM418:
 8789 373e D101      		movw r26,r2
 8790 3740 8D91      		ld r24,X+
 8791 3742 9C91      		ld r25,X
 8792 3744 B701      		movw r22,r14
 8793 3746 A601      		movw r20,r12
 8794 3748 0E94 0000 		call fat_get_next_cluster
 8795               	.LVL609:
 8796               	.LM419:
 8797 374c 6115      		cp r22,__zero_reg__
 8798 374e 7105      		cpc r23,__zero_reg__
 8799 3750 8105      		cpc r24,__zero_reg__
 8800 3752 9105      		cpc r25,__zero_reg__
 8801               	.LVL610:
 8802 3754 01F0      		breq .L690
 8803               	.LM420:
 8804 3756 2F85      		ldd r18,Y+15
 8805 3758 3889      		ldd r19,Y+16
 8806 375a 4989      		ldd r20,Y+17
 8807 375c 5A89      		ldd r21,Y+18
 8808 375e 420E      		add r4,r18
 8809 3760 531E      		adc r5,r19
 8810 3762 641E      		adc r6,r20
 8811 3764 751E      		adc r7,r21
 8812 3766 6B01      		movw r12,r22
 8813 3768 7C01      		movw r14,r24
 8814               	.LVL611:
 8815               	.L650:
 8816               	.LBE89:
 8817               	.LM421:
 8818 376a 8414      		cp r8,r4
 8819 376c 9504      		cpc r9,r5
 8820 376e A604      		cpc r10,r6
 8821 3770 B704      		cpc r11,r7
 8822 3772 00F0      		brlo .L654
 8823 3774 00C0      		rjmp .L698
 8824               	.L690:
 8825               	.LBB90:
 8826               	.LM422:
 8827 3776 C301      		movw r24,r6
 8828 3778 B201      		movw r22,r4
 8829               	.LVL612:
 8830 377a 680D      		add r22,r8
 8831 377c 791D      		adc r23,r9
 8832 377e 8A1D      		adc r24,r10
 8833 3780 9B1D      		adc r25,r11
 8834 3782 6150      		subi r22,lo8(-(-1))
 8835 3784 7040      		sbci r23,hi8(-(-1))
 8836 3786 8040      		sbci r24,hlo8(-(-1))
 8837 3788 9040      		sbci r25,hhi8(-(-1))
 8838 378a A501      		movw r20,r10
 8839 378c 9401      		movw r18,r8
 8840 378e 0E94 0000 		call __udivmodsi4
 8841 3792 8901      		movw r16,r18
 8842 3794 9A01      		movw r18,r20
 8843 3796 D101      		movw r26,r2
 8844 3798 8D91      		ld r24,X+
 8845 379a 9C91      		ld r25,X
 8846 379c B701      		movw r22,r14
 8847 379e A601      		movw r20,r12
 8848 37a0 0E94 0000 		call fat_append_clusters
 8849               	.LM423:
 8850 37a4 6115      		cp r22,__zero_reg__
 8851 37a6 7105      		cpc r23,__zero_reg__
 8852 37a8 8105      		cpc r24,__zero_reg__
 8853 37aa 9105      		cpc r25,__zero_reg__
 8854               	.LVL613:
 8855 37ac 01F4      		brne .+2
 8856 37ae 00C0      		rjmp .L648
 8857               	.LM424:
 8858 37b0 C114      		cp r12,__zero_reg__
 8859 37b2 D104      		cpc r13,__zero_reg__
 8860 37b4 E104      		cpc r14,__zero_reg__
 8861 37b6 F104      		cpc r15,__zero_reg__
 8862 37b8 01F4      		brne .L656
 8863               	.LM425:
 8864 37ba F101      		movw r30,r2
 8865 37bc 63A3      		std Z+35,r22
 8866 37be 74A3      		std Z+36,r23
 8867 37c0 85A3      		std Z+37,r24
 8868 37c2 96A3      		std Z+38,r25
 8869 37c4 6B01      		movw r12,r22
 8870 37c6 7C01      		movw r14,r24
 8871               	.LVL614:
 8872               	.L656:
 8873               	.LBE90:
 8874               	.LM426:
 8875 37c8 2B85      		ldd r18,Y+11
 8876 37ca 3C85      		ldd r19,Y+12
 8877 37cc 4D85      		ldd r20,Y+13
 8878 37ce 5E85      		ldd r21,Y+14
 8879 37d0 D101      		movw r26,r2
 8880 37d2 9796      		adiw r26,39
 8881 37d4 2D93      		st X+,r18
 8882 37d6 3D93      		st X+,r19
 8883 37d8 4D93      		st X+,r20
 8884 37da 5C93      		st X,r21
 8885 37dc 9A97      		sbiw r26,39+3
 8886               	.LM427:
 8887 37de 2115      		cp r18,__zero_reg__
 8888 37e0 3105      		cpc r19,__zero_reg__
 8889 37e2 4105      		cpc r20,__zero_reg__
 8890 37e4 5105      		cpc r21,__zero_reg__
 8891 37e6 01F4      		brne .L657
 8892               	.LM428:
 8893 37e8 F101      		movw r30,r2
 8894 37ea 13A2      		std Z+35,__zero_reg__
 8895 37ec 14A2      		std Z+36,__zero_reg__
 8896 37ee 15A2      		std Z+37,__zero_reg__
 8897 37f0 16A2      		std Z+38,__zero_reg__
 8898               	.L657:
 8899               	.LM429:
 8900 37f2 F101      		movw r30,r2
 8901 37f4 8191      		ld r24,Z+
 8902 37f6 9191      		ld r25,Z+
 8903 37f8 BF01      		movw r22,r30
 8904               	.LVL615:
 8905 37fa 0E94 0000 		call fat_write_dir_entry
 8906 37fe 8823      		tst r24
 8907 3800 01F4      		brne .+2
 8908 3802 00C0      		rjmp .L648
 8909               	.LM430:
 8910 3804 2B85      		ldd r18,Y+11
 8911 3806 3C85      		ldd r19,Y+12
 8912 3808 4D85      		ldd r20,Y+13
 8913 380a 5E85      		ldd r21,Y+14
 8914 380c 2115      		cp r18,__zero_reg__
 8915 380e 3105      		cpc r19,__zero_reg__
 8916 3810 4105      		cpc r20,__zero_reg__
 8917 3812 5105      		cpc r21,__zero_reg__
 8918 3814 01F4      		brne .L658
 8919               	.LM431:
 8920 3816 D101      		movw r26,r2
 8921 3818 8D91      		ld r24,X+
 8922 381a 9C91      		ld r25,X
 8923 381c B701      		movw r22,r14
 8924 381e A601      		movw r20,r12
 8925 3820 00C0      		rjmp .L696
 8926               	.L658:
 8927               	.LM432:
 8928 3822 8414      		cp r8,r4
 8929 3824 9504      		cpc r9,r5
 8930 3826 A604      		cpc r10,r6
 8931 3828 B704      		cpc r11,r7
 8932 382a 00F4      		brsh .+2
 8933 382c 00C0      		rjmp .L651
 8934               	.LM433:
 8935 382e F101      		movw r30,r2
 8936 3830 A080      		ld r10,Z
 8937 3832 B180      		ldd r11,Z+1
 8938               	.LBB91:
 8939               	.LBB92:
 8940               	.LM434:
 8941 3834 A114      		cp r10,__zero_reg__
 8942 3836 B104      		cpc r11,__zero_reg__
 8943 3838 01F4      		brne .+2
 8944 383a 00C0      		rjmp .L651
 8945 383c F2E0      		ldi r31,lo8(2)
 8946 383e CF16      		cp r12,r31
 8947 3840 D104      		cpc r13,__zero_reg__
 8948 3842 E104      		cpc r14,__zero_reg__
 8949 3844 F104      		cpc r15,__zero_reg__
 8950 3846 00F4      		brsh .+2
 8951 3848 00C0      		rjmp .L651
 8952               	.LBE92:
 8953               	.LM435:
 8954 384a C501      		movw r24,r10
 8955 384c B701      		movw r22,r14
 8956 384e A601      		movw r20,r12
 8957 3850 0E94 0000 		call fat_get_next_cluster
 8958 3854 6F83      		std Y+7,r22
 8959 3856 7887      		std Y+8,r23
 8960 3858 8987      		std Y+9,r24
 8961 385a 9A87      		std Y+10,r25
 8962               	.LVL616:
 8963               	.LBB96:
 8964               	.LM436:
 8965 385c D501      		movw r26,r10
 8966 385e 8D90      		ld r8,X+
 8967 3860 9C90      		ld r9,X
 8968 3862 F401      		movw r30,r8
 8969 3864 8085      		ldd r24,Z+8
 8970 3866 8B30      		cpi r24,lo8(11)
 8971 3868 01F0      		breq .+2
 8972 386a 00C0      		rjmp .L659
 8973               	.LBB94:
 8974               	.LM437:
 8975 386c 8FEF      		ldi r24,lo8(268435455)
 8976 386e 9FEF      		ldi r25,hi8(268435455)
 8977 3870 AFEF      		ldi r26,hlo8(268435455)
 8978 3872 BFE0      		ldi r27,hhi8(268435455)
 8979 3874 8B83      		std Y+3,r24
 8980 3876 9C83      		std Y+4,r25
 8981 3878 AD83      		std Y+5,r26
 8982 387a BE83      		std Y+6,r27
 8983               	.LVL617:
 8984               	.LBE94:
 8985               	.LBE96:
 8986               	.LM438:
 8987 387c B2E0      		ldi r27,2
 8988 387e CC0C      	1:	lsl r12
 8989 3880 DD1C      		rol r13
 8990 3882 EE1C      		rol r14
 8991 3884 FF1C      		rol r15
 8992 3886 BA95      		dec r27
 8993 3888 01F4      		brne 1b
 8994 388a B701      		movw r22,r14
 8995 388c A601      		movw r20,r12
 8996 388e 80E0      		ldi r24,lo8(0)
 8997 3890 90E0      		ldi r25,hi8(0)
 8998 3892 A0E0      		ldi r26,hlo8(0)
 8999 3894 B0E0      		ldi r27,hhi8(0)
 9000 3896 F501      		movw r30,r10
 9001 3898 2285      		ldd r18,Z+10
 9002 389a 1385      		ldd r17,Z+11
 9003 389c 0485      		ldd r16,Z+12
 9004 389e C584      		ldd r12,Z+13
 9005               	.LVL618:
 9006 38a0 F684      		ldd r15,Z+14
 9007 38a2 E784      		ldd r14,Z+15
 9008 38a4 D088      		ldd r13,Z+16
 9009 38a6 5188      		ldd r5,Z+17
 9010 38a8 240F      		add r18,r20
 9011 38aa 31E0      		ldi r19,lo8(1)
 9012 38ac 2417      		cp r18,r20
 9013 38ae 00F0      		brlo .L660
 9014 38b0 30E0      		ldi r19,lo8(0)
 9015               	.L660:
 9016 38b2 E12F      		mov r30,r17
 9017 38b4 E50F      		add r30,r21
 9018 38b6 11E0      		ldi r17,lo8(1)
 9019 38b8 E517      		cp r30,r21
 9020 38ba 00F0      		brlo .L661
 9021 38bc 10E0      		ldi r17,lo8(0)
 9022               	.L661:
 9023 38be 3E0F      		add r19,r30
 9024 38c0 F1E0      		ldi r31,lo8(1)
 9025 38c2 3E17      		cp r19,r30
 9026 38c4 00F0      		brlo .L662
 9027 38c6 F0E0      		ldi r31,lo8(0)
 9028               	.L662:
 9029 38c8 1F2B      		or r17,r31
 9030 38ca E62F      		mov r30,r22
 9031 38cc E00F      		add r30,r16
 9032 38ce 01E0      		ldi r16,lo8(1)
 9033 38d0 E617      		cp r30,r22
 9034 38d2 00F0      		brlo .L663
 9035 38d4 00E0      		ldi r16,lo8(0)
 9036               	.L663:
 9037 38d6 612E      		mov r6,r17
 9038 38d8 6E0E      		add r6,r30
 9039 38da F1E0      		ldi r31,lo8(1)
 9040 38dc 6E16      		cp r6,r30
 9041 38de 00F0      		brlo .L664
 9042 38e0 F0E0      		ldi r31,lo8(0)
 9043               	.L664:
 9044 38e2 0F2B      		or r16,r31
 9045 38e4 E72F      		mov r30,r23
 9046 38e6 EC0D      		add r30,r12
 9047 38e8 F1E0      		ldi r31,lo8(1)
 9048 38ea E717      		cp r30,r23
 9049 38ec 00F0      		brlo .L665
 9050 38ee F0E0      		ldi r31,lo8(0)
 9051               	.L665:
 9052 38f0 702E      		mov r7,r16
 9053 38f2 7E0E      		add r7,r30
 9054 38f4 11E0      		ldi r17,lo8(1)
 9055 38f6 7E16      		cp r7,r30
 9056 38f8 00F0      		brlo .L666
 9057 38fa 10E0      		ldi r17,lo8(0)
 9058               	.L666:
 9059 38fc F12B      		or r31,r17
 9060 38fe E1E0      		ldi r30,lo8(1)
 9061 3900 F816      		cp r15,r24
 9062 3902 00F0      		brlo .L667
 9063 3904 E0E0      		ldi r30,lo8(0)
 9064               	.L667:
 9065 3906 CF2E      		mov r12,r31
 9066 3908 CF0C      		add r12,r15
 9067 390a F1E0      		ldi r31,lo8(1)
 9068 390c CF14      		cp r12,r15
 9069 390e 00F0      		brlo .L668
 9070 3910 F0E0      		ldi r31,lo8(0)
 9071               	.L668:
 9072 3912 EF2B      		or r30,r31
 9073 3914 F1E0      		ldi r31,lo8(1)
 9074 3916 E916      		cp r14,r25
 9075 3918 00F0      		brlo .L669
 9076 391a F0E0      		ldi r31,lo8(0)
 9077               	.L669:
 9078 391c 0E2F      		mov r16,r30
 9079 391e 0E0D      		add r16,r14
 9080 3920 E1E0      		ldi r30,lo8(1)
 9081 3922 0E15      		cp r16,r14
 9082 3924 00F0      		brlo .L670
 9083 3926 E0E0      		ldi r30,lo8(0)
 9084               	.L670:
 9085 3928 FE2B      		or r31,r30
 9086 392a 11E0      		ldi r17,lo8(1)
 9087 392c DA16      		cp r13,r26
 9088 392e 00F0      		brlo .L671
 9089 3930 10E0      		ldi r17,lo8(0)
 9090               	.L671:
 9091 3932 8F2F      		mov r24,r31
 9092 3934 8D0D      		add r24,r13
 9093 3936 E1E0      		ldi r30,lo8(1)
 9094 3938 8D15      		cp r24,r13
 9095 393a 00F0      		brlo .L672
 9096 393c E0E0      		ldi r30,lo8(0)
 9097               	.L672:
 9098 393e 1E2B      		or r17,r30
 9099 3940 D401      		movw r26,r8
 9100 3942 1496      		adiw r26,4
 9101 3944 ED91      		ld r30,X+
 9102 3946 FC91      		ld r31,X
 9103 3948 1597      		sbiw r26,4+1
 9104 394a A301      		movw r20,r6
 9105 394c 6C2D      		mov r22,r12
 9106 394e 702F      		mov r23,r16
 9107 3950 912F      		mov r25,r17
 9108 3952 950D      		add r25,r5
 9109 3954 8E01      		movw r16,r28
 9110 3956 0D5F      		subi r16,lo8(-(3))
 9111 3958 1F4F      		sbci r17,hi8(-(3))
 9112 395a A4E0      		ldi r26,lo8(4)
 9113 395c EA2E      		mov r14,r26
 9114 395e F12C      		mov r15,__zero_reg__
 9115 3960 00C0      		rjmp .L695
 9116               	.LVL619:
 9117               	.L659:
 9118               	.LBB97:
 9119               	.LBB93:
 9120               	.LM439:
 9121 3962 8FEF      		ldi r24,lo8(-1)
 9122 3964 9FEF      		ldi r25,hi8(-1)
 9123 3966 9A83      		std Y+2,r25
 9124 3968 8983      		std Y+1,r24
 9125               	.LVL620:
 9126               	.LBE93:
 9127               	.LBE97:
 9128               	.LM440:
 9129 396a CC0C      		lsl r12
 9130 396c DD1C      		rol r13
 9131 396e EE1C      		rol r14
 9132 3970 FF1C      		rol r15
 9133 3972 B701      		movw r22,r14
 9134 3974 A601      		movw r20,r12
 9135 3976 80E0      		ldi r24,lo8(0)
 9136 3978 90E0      		ldi r25,hi8(0)
 9137 397a A0E0      		ldi r26,hlo8(0)
 9138 397c B0E0      		ldi r27,hhi8(0)
 9139 397e F501      		movw r30,r10
 9140 3980 2285      		ldd r18,Z+10
 9141 3982 1385      		ldd r17,Z+11
 9142 3984 0485      		ldd r16,Z+12
 9143 3986 C584      		ldd r12,Z+13
 9144               	.LVL621:
 9145 3988 F684      		ldd r15,Z+14
 9146 398a E784      		ldd r14,Z+15
 9147 398c D088      		ldd r13,Z+16
 9148 398e 5188      		ldd r5,Z+17
 9149 3990 240F      		add r18,r20
 9150 3992 31E0      		ldi r19,lo8(1)
 9151 3994 2417      		cp r18,r20
 9152 3996 00F0      		brlo .L674
 9153 3998 30E0      		ldi r19,lo8(0)
 9154               	.L674:
 9155 399a E12F      		mov r30,r17
 9156 399c E50F      		add r30,r21
 9157 399e 11E0      		ldi r17,lo8(1)
 9158 39a0 E517      		cp r30,r21
 9159 39a2 00F0      		brlo .L675
 9160 39a4 10E0      		ldi r17,lo8(0)
 9161               	.L675:
 9162 39a6 3E0F      		add r19,r30
 9163 39a8 F1E0      		ldi r31,lo8(1)
 9164 39aa 3E17      		cp r19,r30
 9165 39ac 00F0      		brlo .L676
 9166 39ae F0E0      		ldi r31,lo8(0)
 9167               	.L676:
 9168 39b0 1F2B      		or r17,r31
 9169 39b2 E62F      		mov r30,r22
 9170 39b4 E00F      		add r30,r16
 9171 39b6 01E0      		ldi r16,lo8(1)
 9172 39b8 E617      		cp r30,r22
 9173 39ba 00F0      		brlo .L677
 9174 39bc 00E0      		ldi r16,lo8(0)
 9175               	.L677:
 9176 39be 612E      		mov r6,r17
 9177 39c0 6E0E      		add r6,r30
 9178 39c2 F1E0      		ldi r31,lo8(1)
 9179 39c4 6E16      		cp r6,r30
 9180 39c6 00F0      		brlo .L678
 9181 39c8 F0E0      		ldi r31,lo8(0)
 9182               	.L678:
 9183 39ca 0F2B      		or r16,r31
 9184 39cc E72F      		mov r30,r23
 9185 39ce EC0D      		add r30,r12
 9186 39d0 F1E0      		ldi r31,lo8(1)
 9187 39d2 E717      		cp r30,r23
 9188 39d4 00F0      		brlo .L679
 9189 39d6 F0E0      		ldi r31,lo8(0)
 9190               	.L679:
 9191 39d8 702E      		mov r7,r16
 9192 39da 7E0E      		add r7,r30
 9193 39dc 11E0      		ldi r17,lo8(1)
 9194 39de 7E16      		cp r7,r30
 9195 39e0 00F0      		brlo .L680
 9196 39e2 10E0      		ldi r17,lo8(0)
 9197               	.L680:
 9198 39e4 F12B      		or r31,r17
 9199 39e6 E1E0      		ldi r30,lo8(1)
 9200 39e8 F816      		cp r15,r24
 9201 39ea 00F0      		brlo .L681
 9202 39ec E0E0      		ldi r30,lo8(0)
 9203               	.L681:
 9204 39ee CF2E      		mov r12,r31
 9205 39f0 CF0C      		add r12,r15
 9206 39f2 F1E0      		ldi r31,lo8(1)
 9207 39f4 CF14      		cp r12,r15
 9208 39f6 00F0      		brlo .L682
 9209 39f8 F0E0      		ldi r31,lo8(0)
 9210               	.L682:
 9211 39fa EF2B      		or r30,r31
 9212 39fc F1E0      		ldi r31,lo8(1)
 9213 39fe E916      		cp r14,r25
 9214 3a00 00F0      		brlo .L683
 9215 3a02 F0E0      		ldi r31,lo8(0)
 9216               	.L683:
 9217 3a04 0E2F      		mov r16,r30
 9218 3a06 0E0D      		add r16,r14
 9219 3a08 E1E0      		ldi r30,lo8(1)
 9220 3a0a 0E15      		cp r16,r14
 9221 3a0c 00F0      		brlo .L684
 9222 3a0e E0E0      		ldi r30,lo8(0)
 9223               	.L684:
 9224 3a10 FE2B      		or r31,r30
 9225 3a12 11E0      		ldi r17,lo8(1)
 9226 3a14 DA16      		cp r13,r26
 9227 3a16 00F0      		brlo .L685
 9228 3a18 10E0      		ldi r17,lo8(0)
 9229               	.L685:
 9230 3a1a 8F2F      		mov r24,r31
 9231 3a1c 8D0D      		add r24,r13
 9232 3a1e E1E0      		ldi r30,lo8(1)
 9233 3a20 8D15      		cp r24,r13
 9234 3a22 00F0      		brlo .L686
 9235 3a24 E0E0      		ldi r30,lo8(0)
 9236               	.L686:
 9237 3a26 1E2B      		or r17,r30
 9238 3a28 D401      		movw r26,r8
 9239 3a2a 1496      		adiw r26,4
 9240 3a2c ED91      		ld r30,X+
 9241 3a2e FC91      		ld r31,X
 9242 3a30 1597      		sbiw r26,4+1
 9243 3a32 A301      		movw r20,r6
 9244 3a34 6C2D      		mov r22,r12
 9245 3a36 702F      		mov r23,r16
 9246 3a38 912F      		mov r25,r17
 9247 3a3a 950D      		add r25,r5
 9248 3a3c 8E01      		movw r16,r28
 9249 3a3e 0F5F      		subi r16,lo8(-(1))
 9250 3a40 1F4F      		sbci r17,hi8(-(1))
 9251 3a42 A2E0      		ldi r26,lo8(2)
 9252 3a44 EA2E      		mov r14,r26
 9253 3a46 F12C      		mov r15,__zero_reg__
 9254               	.LVL622:
 9255               	.L695:
 9256 3a48 0995      		icall
 9257               	.LBB98:
 9258               	.LBB95:
 9259 3a4a 8823      		tst r24
 9260 3a4c 01F0      		breq .L651
 9261               	.LBE95:
 9262               	.LM441:
 9263 3a4e 2F81      		ldd r18,Y+7
 9264 3a50 3885      		ldd r19,Y+8
 9265 3a52 4985      		ldd r20,Y+9
 9266 3a54 5A85      		ldd r21,Y+10
 9267 3a56 2115      		cp r18,__zero_reg__
 9268 3a58 3105      		cpc r19,__zero_reg__
 9269 3a5a 4105      		cpc r20,__zero_reg__
 9270 3a5c 5105      		cpc r21,__zero_reg__
 9271 3a5e 01F0      		breq .L651
 9272               	.LM442:
 9273 3a60 C501      		movw r24,r10
 9274 3a62 BA01      		movw r22,r20
 9275 3a64 A901      		movw r20,r18
 9276               	.LVL623:
 9277               	.L696:
 9278 3a66 0E94 0000 		call fat_free_clusters
 9279               	.LVL624:
 9280               	.L651:
 9281               	.LBE98:
 9282               	.LBE91:
 9283               	.LM443:
 9284 3a6a 8B85      		ldd r24,Y+11
 9285 3a6c 9C85      		ldd r25,Y+12
 9286 3a6e AD85      		ldd r26,Y+13
 9287 3a70 BE85      		ldd r27,Y+14
 9288 3a72 8C01      		movw r16,r24
 9289 3a74 9D01      		movw r18,r26
 9290 3a76 40E0      		ldi r20,lo8(0)
 9291 3a78 50E0      		ldi r21,hi8(0)
 9292 3a7a 60E0      		ldi r22,hlo8(0)
 9293 3a7c 70E0      		ldi r23,hhi8(0)
 9294 3a7e D101      		movw r26,r2
 9295 3a80 DA96      		adiw r26,58
 9296 3a82 8C91      		ld r24,X
 9297 3a84 DA97      		sbiw r26,58
 9298 3a86 7817      		cp r23,r24
 9299 3a88 00F0      		brlo .L687
 9300 3a8a 8717      		cp r24,r23
 9301 3a8c 01F4      		brne .L697
 9302 3a8e D996      		adiw r26,57
 9303 3a90 8C91      		ld r24,X
 9304 3a92 D997      		sbiw r26,57
 9305 3a94 6817      		cp r22,r24
 9306 3a96 00F0      		brlo .L687
 9307 3a98 8617      		cp r24,r22
 9308 3a9a 01F4      		brne .L697
 9309 3a9c D896      		adiw r26,56
 9310 3a9e 8C91      		ld r24,X
 9311 3aa0 D897      		sbiw r26,56
 9312 3aa2 5817      		cp r21,r24
 9313 3aa4 00F0      		brlo .L687
 9314 3aa6 8517      		cp r24,r21
 9315 3aa8 01F4      		brne .L697
 9316 3aaa D796      		adiw r26,55
 9317 3aac 8C91      		ld r24,X
 9318 3aae D797      		sbiw r26,55
 9319 3ab0 4817      		cp r20,r24
 9320 3ab2 00F0      		brlo .L687
 9321 3ab4 8417      		cp r24,r20
 9322 3ab6 01F4      		brne .L697
 9323 3ab8 D696      		adiw r26,54
 9324 3aba 8C91      		ld r24,X
 9325 3abc D697      		sbiw r26,54
 9326 3abe 3817      		cp r19,r24
 9327 3ac0 00F0      		brlo .L687
 9328 3ac2 8317      		cp r24,r19
 9329 3ac4 01F4      		brne .L697
 9330 3ac6 D596      		adiw r26,53
 9331 3ac8 8C91      		ld r24,X
 9332 3aca D597      		sbiw r26,53
 9333 3acc 2817      		cp r18,r24
 9334               	.LVL625:
 9335 3ace 00F0      		brlo .L687
 9336 3ad0 8217      		cp r24,r18
 9337 3ad2 01F4      		brne .L697
 9338 3ad4 D496      		adiw r26,52
 9339 3ad6 8C91      		ld r24,X
 9340 3ad8 D497      		sbiw r26,52
 9341 3ada 1817      		cp r17,r24
 9342 3adc 00F0      		brlo .L687
 9343 3ade 8117      		cp r24,r17
 9344 3ae0 01F4      		brne .L697
 9345 3ae2 D396      		adiw r26,51
 9346 3ae4 8C91      		ld r24,X
 9347 3ae6 0817      		cp r16,r24
 9348 3ae8 00F4      		brsh .L697
 9349               	.LVL626:
 9350               	.L687:
 9351               	.LM444:
 9352 3aea F101      		movw r30,r2
 9353 3aec 03AB      		std Z+51,r16
 9354 3aee 14AB      		std Z+52,r17
 9355 3af0 25AB      		std Z+53,r18
 9356               	.LVL627:
 9357 3af2 36AB      		std Z+54,r19
 9358 3af4 17AA      		std Z+55,__zero_reg__
 9359 3af6 10AE      		std Z+56,__zero_reg__
 9360 3af8 11AE      		std Z+57,__zero_reg__
 9361 3afa 12AE      		std Z+58,__zero_reg__
 9362               	.LM445:
 9363 3afc D101      		movw r26,r2
 9364 3afe DB96      		adiw r26,59
 9365 3b00 1D92      		st X+,__zero_reg__
 9366 3b02 1D92      		st X+,__zero_reg__
 9367 3b04 1D92      		st X+,__zero_reg__
 9368 3b06 1C92      		st X,__zero_reg__
 9369 3b08 DE97      		sbiw r26,59+3
 9370               	.LVL628:
 9371               	.L697:
 9372 3b0a 81E0      		ldi r24,lo8(1)
 9373 3b0c 00C0      		rjmp .L689
 9374               	.LVL629:
 9375               	.L648:
 9376 3b0e 80E0      		ldi r24,lo8(0)
 9377               	.LVL630:
 9378               	.L689:
 9379               	/* epilogue start */
 9380               	.LM446:
 9381 3b10 6296      		adiw r28,18
 9382 3b12 0FB6      		in __tmp_reg__,__SREG__
 9383 3b14 F894      		cli
 9384 3b16 DEBF      		out __SP_H__,r29
 9385 3b18 0FBE      		out __SREG__,__tmp_reg__
 9386 3b1a CDBF      		out __SP_L__,r28
 9387 3b1c CF91      		pop r28
 9388 3b1e DF91      		pop r29
 9389 3b20 1F91      		pop r17
 9390 3b22 0F91      		pop r16
 9391 3b24 FF90      		pop r15
 9392 3b26 EF90      		pop r14
 9393 3b28 DF90      		pop r13
 9394 3b2a CF90      		pop r12
 9395               	.LVL631:
 9396 3b2c BF90      		pop r11
 9397 3b2e AF90      		pop r10
 9398 3b30 9F90      		pop r9
 9399 3b32 8F90      		pop r8
 9400 3b34 7F90      		pop r7
 9401 3b36 6F90      		pop r6
 9402 3b38 5F90      		pop r5
 9403 3b3a 4F90      		pop r4
 9404               	.LVL632:
 9405 3b3c 3F90      		pop r3
 9406 3b3e 2F90      		pop r2
 9407               	.LVL633:
 9408 3b40 0895      		ret
 9409               	.LVL634:
 9410               	.L698:
 9411               	.LM447:
 9412 3b42 C114      		cp r12,__zero_reg__
 9413 3b44 D104      		cpc r13,__zero_reg__
 9414 3b46 E104      		cpc r14,__zero_reg__
 9415 3b48 F104      		cpc r15,__zero_reg__
 9416 3b4a 01F4      		brne .+2
 9417 3b4c 00C0      		rjmp .L690
 9418 3b4e 00C0      		rjmp .L656
 9419               	.LFE18:
 9421               	.global	fat_seek_file
 9423               	fat_seek_file:
 9424               	.LFB17:
 9425               	.LM448:
 9426               	.LVL635:
 9427 3b50 CF92      		push r12
 9428 3b52 DF92      		push r13
 9429 3b54 EF92      		push r14
 9430 3b56 FF92      		push r15
 9431 3b58 0F93      		push r16
 9432 3b5a 1F93      		push r17
 9433 3b5c CF93      		push r28
 9434 3b5e DF93      		push r29
 9435               	/* prologue: function */
 9436               	/* frame size = 0 */
 9437 3b60 EC01      		movw r28,r24
 9438 3b62 6B01      		movw r12,r22
 9439               	.LM449:
 9440 3b64 0097      		sbiw r24,0
 9441 3b66 01F4      		brne .+2
 9442 3b68 00C0      		rjmp .L700
 9443               	.LVL636:
 9444 3b6a 6115      		cp r22,__zero_reg__
 9445 3b6c 7105      		cpc r23,__zero_reg__
 9446 3b6e 01F4      		brne .+2
 9447 3b70 00C0      		rjmp .L700
 9448               	.LVL637:
 9449               	.LM450:
 9450 3b72 2BA9      		ldd r18,Y+51
 9451 3b74 3CA9      		ldd r19,Y+52
 9452 3b76 5DA9      		ldd r21,Y+53
 9453 3b78 6EA9      		ldd r22,Y+54
 9454               	.LVL638:
 9455               	.LM451:
 9456 3b7a 4130      		cpi r20,lo8(1)
 9457 3b7c 01F0      		breq .L702
 9458               	.LVL639:
 9459 3b7e 4130      		cpi r20,lo8(1)
 9460 3b80 00F0      		brlo .L701
 9461 3b82 4230      		cpi r20,lo8(2)
 9462 3b84 01F0      		breq .+2
 9463 3b86 00C0      		rjmp .L700
 9464 3b88 00C0      		rjmp .L709
 9465               	.L701:
 9466               	.LM452:
 9467 3b8a F601      		movw r30,r12
 9468 3b8c E080      		ld r14,Z
 9469 3b8e F180      		ldd r15,Z+1
 9470 3b90 0281      		ldd r16,Z+2
 9471 3b92 1381      		ldd r17,Z+3
 9472               	.LVL640:
 9473 3b94 00C0      		rjmp .L704
 9474               	.LVL641:
 9475               	.L702:
 9476               	.LM453:
 9477 3b96 C901      		movw r24,r18
 9478 3b98 A52F      		mov r26,r21
 9479               	.LVL642:
 9480 3b9a B62F      		mov r27,r22
 9481               	.LVL643:
 9482               	.LM454:
 9483 3b9c F601      		movw r30,r12
 9484 3b9e E080      		ld r14,Z
 9485 3ba0 F180      		ldd r15,Z+1
 9486 3ba2 0281      		ldd r16,Z+2
 9487 3ba4 1381      		ldd r17,Z+3
 9488               	.LVL644:
 9489 3ba6 00C0      		rjmp .L708
 9490               	.LVL645:
 9491               	.L709:
 9492               	.LM455:
 9493 3ba8 F601      		movw r30,r12
 9494 3baa E080      		ld r14,Z
 9495 3bac F180      		ldd r15,Z+1
 9496 3bae 0281      		ldd r16,Z+2
 9497 3bb0 1381      		ldd r17,Z+3
 9498               	.LVL646:
 9499 3bb2 8FA1      		ldd r24,Y+39
 9500 3bb4 98A5      		ldd r25,Y+40
 9501 3bb6 A9A5      		ldd r26,Y+41
 9502 3bb8 BAA5      		ldd r27,Y+42
 9503               	.LVL647:
 9504               	.L708:
 9505 3bba E80E      		add r14,r24
 9506 3bbc F91E      		adc r15,r25
 9507 3bbe 0A1F      		adc r16,r26
 9508 3bc0 1B1F      		adc r17,r27
 9509               	.LVL648:
 9510               	.L704:
 9511               	.LM456:
 9512 3bc2 8FA1      		ldd r24,Y+39
 9513 3bc4 98A5      		ldd r25,Y+40
 9514 3bc6 A9A5      		ldd r26,Y+41
 9515 3bc8 BAA5      		ldd r27,Y+42
 9516 3bca 8E15      		cp r24,r14
 9517 3bcc 9F05      		cpc r25,r15
 9518 3bce A007      		cpc r26,r16
 9519 3bd0 B107      		cpc r27,r17
 9520 3bd2 00F4      		brsh .L705
 9521 3bd4 CE01      		movw r24,r28
 9522 3bd6 B801      		movw r22,r16
 9523 3bd8 A701      		movw r20,r14
 9524               	.LVL649:
 9525 3bda 0E94 0000 		call fat_resize_file
 9526               	.LVL650:
 9527 3bde 8823      		tst r24
 9528 3be0 01F0      		breq .L700
 9529               	.LVL651:
 9530               	.L705:
 9531               	.LM457:
 9532 3be2 A801      		movw r20,r16
 9533 3be4 9701      		movw r18,r14
 9534 3be6 EBAA      		std Y+51,r14
 9535 3be8 3CAB      		std Y+52,r19
 9536               	.LVL652:
 9537 3bea 4DAB      		std Y+53,r20
 9538 3bec 5EAB      		std Y+54,r21
 9539 3bee 1FAA      		std Y+55,__zero_reg__
 9540 3bf0 18AE      		std Y+56,__zero_reg__
 9541 3bf2 19AE      		std Y+57,__zero_reg__
 9542 3bf4 1AAE      		std Y+58,__zero_reg__
 9543               	.LM458:
 9544 3bf6 1BAE      		std Y+59,__zero_reg__
 9545 3bf8 1CAE      		std Y+60,__zero_reg__
 9546 3bfa 1DAE      		std Y+61,__zero_reg__
 9547 3bfc 1EAE      		std Y+62,__zero_reg__
 9548               	.LM459:
 9549 3bfe F601      		movw r30,r12
 9550 3c00 E082      		st Z,r14
 9551 3c02 F182      		std Z+1,r15
 9552 3c04 0283      		std Z+2,r16
 9553 3c06 1383      		std Z+3,r17
 9554 3c08 81E0      		ldi r24,lo8(1)
 9555 3c0a 00C0      		rjmp .L706
 9556               	.LVL653:
 9557               	.L700:
 9558               	.LM460:
 9559 3c0c 80E0      		ldi r24,lo8(0)
 9560               	.LVL654:
 9561               	.L706:
 9562               	/* epilogue start */
 9563               	.LM461:
 9564 3c0e DF91      		pop r29
 9565 3c10 CF91      		pop r28
 9566               	.LVL655:
 9567 3c12 1F91      		pop r17
 9568 3c14 0F91      		pop r16
 9569 3c16 FF90      		pop r15
 9570 3c18 EF90      		pop r14
 9571               	.LVL656:
 9572 3c1a DF90      		pop r13
 9573 3c1c CF90      		pop r12
 9574               	.LVL657:
 9575 3c1e 0895      		ret
 9576               	.LFE17:
 9578               	.global	fat_write_file
 9580               	fat_write_file:
 9581               	.LFB16:
 9582               	.LM462:
 9583               	.LVL658:
 9584 3c20 2F92      		push r2
 9585 3c22 3F92      		push r3
 9586 3c24 4F92      		push r4
 9587 3c26 5F92      		push r5
 9588 3c28 6F92      		push r6
 9589 3c2a 7F92      		push r7
 9590 3c2c 8F92      		push r8
 9591 3c2e 9F92      		push r9
 9592 3c30 AF92      		push r10
 9593 3c32 BF92      		push r11
 9594 3c34 CF92      		push r12
 9595 3c36 DF92      		push r13
 9596 3c38 EF92      		push r14
 9597 3c3a FF92      		push r15
 9598 3c3c 0F93      		push r16
 9599 3c3e 1F93      		push r17
 9600 3c40 DF93      		push r29
 9601 3c42 CF93      		push r28
 9602 3c44 CDB7      		in r28,__SP_L__
 9603 3c46 DEB7      		in r29,__SP_H__
 9604 3c48 6697      		sbiw r28,22
 9605 3c4a 0FB6      		in __tmp_reg__,__SREG__
 9606 3c4c F894      		cli
 9607 3c4e DEBF      		out __SP_H__,r29
 9608 3c50 0FBE      		out __SREG__,__tmp_reg__
 9609 3c52 CDBF      		out __SP_L__,r28
 9610               	/* prologue: function */
 9611               	/* frame size = 22 */
 9612 3c54 9E8B      		std Y+22,r25
 9613 3c56 8D8B      		std Y+21,r24
 9614 3c58 7E87      		std Y+14,r23
 9615 3c5a 6D87      		std Y+13,r22
 9616 3c5c 588B      		std Y+16,r21
 9617 3c5e 4F87      		std Y+15,r20
 9618               	.LM463:
 9619 3c60 0097      		sbiw r24,0
 9620 3c62 01F4      		brne .+2
 9621 3c64 00C0      		rjmp .L711
 9622               	.LVL659:
 9623 3c66 672B      		or r22,r23
 9624 3c68 01F4      		brne .+2
 9625 3c6a 00C0      		rjmp .L711
 9626               	.LVL660:
 9627 3c6c 452B      		or r20,r21
 9628 3c6e 01F4      		brne .+2
 9629 3c70 00C0      		rjmp .L711
 9630               	.LVL661:
 9631               	.LM464:
 9632 3c72 DC01      		movw r26,r24
 9633 3c74 D396      		adiw r26,51
 9634 3c76 8C90      		ld r8,X
 9635 3c78 D397      		sbiw r26,51
 9636 3c7a D496      		adiw r26,52
 9637 3c7c 9C90      		ld r9,X
 9638 3c7e D497      		sbiw r26,52
 9639 3c80 D596      		adiw r26,53
 9640 3c82 AC90      		ld r10,X
 9641 3c84 D597      		sbiw r26,53
 9642 3c86 D696      		adiw r26,54
 9643 3c88 BC90      		ld r11,X
 9644 3c8a D697      		sbiw r26,54
 9645 3c8c D796      		adiw r26,55
 9646 3c8e CC90      		ld r12,X
 9647 3c90 D797      		sbiw r26,55
 9648 3c92 D896      		adiw r26,56
 9649 3c94 DC90      		ld r13,X
 9650 3c96 D897      		sbiw r26,56
 9651 3c98 D996      		adiw r26,57
 9652 3c9a EC90      		ld r14,X
 9653 3c9c D997      		sbiw r26,57
 9654 3c9e DA96      		adiw r26,58
 9655 3ca0 FC90      		ld r15,X
 9656 3ca2 FC01      		movw r30,r24
 9657               	.LVL662:
 9658 3ca4 87A1      		ldd r24,Z+39
 9659 3ca6 90A5      		ldd r25,Z+40
 9660 3ca8 A1A5      		ldd r26,Z+41
 9661 3caa B2A5      		ldd r27,Z+42
 9662 3cac 9C01      		movw r18,r24
 9663 3cae AD01      		movw r20,r26
 9664 3cb0 60E0      		ldi r22,lo8(0)
 9665 3cb2 70E0      		ldi r23,hi8(0)
 9666 3cb4 80E0      		ldi r24,hlo8(0)
 9667 3cb6 90E0      		ldi r25,hhi8(0)
 9668               	.LVL663:
 9669 3cb8 9F15      		cp r25,r15
 9670 3cba 00F4      		brsh .+2
 9671 3cbc 00C0      		rjmp .L711
 9672 3cbe F916      		cp r15,r25
 9673 3cc0 01F4      		brne .L770
 9674 3cc2 8E15      		cp r24,r14
 9675 3cc4 00F4      		brsh .+2
 9676 3cc6 00C0      		rjmp .L711
 9677 3cc8 E816      		cp r14,r24
 9678 3cca 01F4      		brne .L770
 9679 3ccc 7D15      		cp r23,r13
 9680 3cce 00F4      		brsh .+2
 9681 3cd0 00C0      		rjmp .L711
 9682 3cd2 D716      		cp r13,r23
 9683 3cd4 01F4      		brne .L770
 9684 3cd6 6C15      		cp r22,r12
 9685 3cd8 00F4      		brsh .+2
 9686 3cda 00C0      		rjmp .L711
 9687 3cdc C616      		cp r12,r22
 9688 3cde 01F4      		brne .L770
 9689 3ce0 5B15      		cp r21,r11
 9690 3ce2 00F4      		brsh .+2
 9691 3ce4 00C0      		rjmp .L711
 9692 3ce6 B516      		cp r11,r21
 9693 3ce8 01F4      		brne .L770
 9694 3cea 4A15      		cp r20,r10
 9695               	.LVL664:
 9696 3cec 00F4      		brsh .+2
 9697 3cee 00C0      		rjmp .L711
 9698 3cf0 A416      		cp r10,r20
 9699 3cf2 01F4      		brne .L770
 9700 3cf4 3915      		cp r19,r9
 9701 3cf6 00F4      		brsh .+2
 9702 3cf8 00C0      		rjmp .L711
 9703 3cfa 9316      		cp r9,r19
 9704 3cfc 01F4      		brne .L770
 9705 3cfe 2815      		cp r18,r8
 9706 3d00 00F4      		brsh .+2
 9707 3d02 00C0      		rjmp .L711
 9708               	.LVL665:
 9709               	.L770:
 9710               	.LM465:
 9711 3d04 AD89      		ldd r26,Y+21
 9712 3d06 BE89      		ldd r27,Y+22
 9713 3d08 2D91      		ld r18,X+
 9714 3d0a 3C91      		ld r19,X
 9715 3d0c 1197      		sbiw r26,1
 9716 3d0e F901      		movw r30,r18
 9717 3d10 008C      		ldd __tmp_reg__,Z+24
 9718 3d12 F18D      		ldd r31,Z+25
 9719 3d14 E02D      		mov r30,__tmp_reg__
 9720 3d16 FC87      		std Y+12,r31
 9721 3d18 EB87      		std Y+11,r30
 9722               	.LVL666:
 9723               	.LM466:
 9724 3d1a DB96      		adiw r26,59
 9725 3d1c 8D91      		ld r24,X+
 9726 3d1e 9D91      		ld r25,X+
 9727 3d20 0D90      		ld __tmp_reg__,X+
 9728 3d22 BC91      		ld r27,X
 9729 3d24 A02D      		mov r26,__tmp_reg__
 9730 3d26 8F83      		std Y+7,r24
 9731 3d28 9887      		std Y+8,r25
 9732 3d2a A987      		std Y+9,r26
 9733 3d2c BA87      		std Y+10,r27
 9734               	.LVL667:
 9735               	.LM467:
 9736 3d2e 0097      		sbiw r24,0
 9737 3d30 A105      		cpc r26,__zero_reg__
 9738 3d32 B105      		cpc r27,__zero_reg__
 9739 3d34 01F0      		breq .+2
 9740 3d36 00C0      		rjmp .L713
 9741               	.LM468:
 9742 3d38 AD89      		ldd r26,Y+21
 9743 3d3a BE89      		ldd r27,Y+22
 9744 3d3c 9396      		adiw r26,35
 9745 3d3e 8D91      		ld r24,X+
 9746 3d40 9D91      		ld r25,X+
 9747 3d42 0D90      		ld __tmp_reg__,X+
 9748 3d44 BC91      		ld r27,X
 9749 3d46 A02D      		mov r26,__tmp_reg__
 9750 3d48 8F83      		std Y+7,r24
 9751 3d4a 9887      		std Y+8,r25
 9752 3d4c A987      		std Y+9,r26
 9753 3d4e BA87      		std Y+10,r27
 9754               	.LVL668:
 9755               	.LM469:
 9756 3d50 0097      		sbiw r24,0
 9757 3d52 A105      		cpc r26,__zero_reg__
 9758 3d54 B105      		cpc r27,__zero_reg__
 9759 3d56 01F4      		brne .L714
 9760               	.LM470:
 9761 3d58 882D      		mov r24,r8
 9762 3d5a 8929      		or r24,r9
 9763 3d5c 8A29      		or r24,r10
 9764 3d5e 8B29      		or r24,r11
 9765 3d60 8C29      		or r24,r12
 9766 3d62 8D29      		or r24,r13
 9767 3d64 8E29      		or r24,r14
 9768 3d66 8F29      		or r24,r15
 9769 3d68 01F0      		breq .+2
 9770 3d6a 00C0      		rjmp .L711
 9771               	.LM471:
 9772 3d6c C901      		movw r24,r18
 9773 3d6e 40E0      		ldi r20,lo8(0)
 9774 3d70 50E0      		ldi r21,hi8(0)
 9775 3d72 60E0      		ldi r22,hlo8(0)
 9776 3d74 70E0      		ldi r23,hhi8(0)
 9777 3d76 01E0      		ldi r16,lo8(1)
 9778 3d78 10E0      		ldi r17,hi8(1)
 9779 3d7a 20E0      		ldi r18,hlo8(1)
 9780 3d7c 30E0      		ldi r19,hhi8(1)
 9781 3d7e 0E94 0000 		call fat_append_clusters
 9782 3d82 6F83      		std Y+7,r22
 9783 3d84 7887      		std Y+8,r23
 9784 3d86 8987      		std Y+9,r24
 9785 3d88 9A87      		std Y+10,r25
 9786               	.LVL669:
 9787 3d8a ED89      		ldd r30,Y+21
 9788 3d8c FE89      		ldd r31,Y+22
 9789 3d8e 63A3      		std Z+35,r22
 9790 3d90 74A3      		std Z+36,r23
 9791 3d92 85A3      		std Z+37,r24
 9792 3d94 96A3      		std Z+38,r25
 9793               	.LM472:
 9794 3d96 6115      		cp r22,__zero_reg__
 9795 3d98 7105      		cpc r23,__zero_reg__
 9796 3d9a 8105      		cpc r24,__zero_reg__
 9797 3d9c 9105      		cpc r25,__zero_reg__
 9798 3d9e 01F4      		brne .+2
 9799 3da0 00C0      		rjmp .L711
 9800               	.LVL670:
 9801               	.L714:
 9802               	.LM473:
 9803 3da2 AD89      		ldd r26,Y+21
 9804 3da4 BE89      		ldd r27,Y+22
 9805 3da6 D396      		adiw r26,51
 9806 3da8 6C91      		ld r22,X
 9807 3daa D397      		sbiw r26,51
 9808 3dac D496      		adiw r26,52
 9809 3dae 7C91      		ld r23,X
 9810 3db0 D497      		sbiw r26,52
 9811 3db2 D596      		adiw r26,53
 9812 3db4 EC91      		ld r30,X
 9813 3db6 D597      		sbiw r26,53
 9814 3db8 D696      		adiw r26,54
 9815 3dba FC91      		ld r31,X
 9816 3dbc D697      		sbiw r26,54
 9817 3dbe D796      		adiw r26,55
 9818 3dc0 9C91      		ld r25,X
 9819 3dc2 D797      		sbiw r26,55
 9820 3dc4 D896      		adiw r26,56
 9821 3dc6 2C91      		ld r18,X
 9822 3dc8 D897      		sbiw r26,56
 9823 3dca D996      		adiw r26,57
 9824 3dcc 3C91      		ld r19,X
 9825 3dce D997      		sbiw r26,57
 9826 3dd0 DA96      		adiw r26,58
 9827 3dd2 4C91      		ld r20,X
 9828 3dd4 862F      		mov r24,r22
 9829 3dd6 872B      		or r24,r23
 9830 3dd8 8E2B      		or r24,r30
 9831 3dda 8F2B      		or r24,r31
 9832 3ddc 892B      		or r24,r25
 9833 3dde 822B      		or r24,r18
 9834 3de0 832B      		or r24,r19
 9835 3de2 842B      		or r24,r20
 9836 3de4 01F4      		brne .+2
 9837 3de6 00C0      		rjmp .L713
 9838               	.LBB99:
 9839               	.LM474:
 9840 3de8 9B01      		movw r18,r22
 9841 3dea AF01      		movw r20,r30
 9842 3dec C901      		movw r24,r18
 9843 3dee DA01      		movw r26,r20
 9844 3df0 2C01      		movw r4,r24
 9845 3df2 3D01      		movw r6,r26
 9846               	.LVL671:
 9847               	.LM475:
 9848 3df4 4B85      		ldd r20,Y+11
 9849 3df6 5C85      		ldd r21,Y+12
 9850 3df8 9A01      		movw r18,r20
 9851 3dfa 40E0      		ldi r20,lo8(0)
 9852 3dfc 50E0      		ldi r21,hi8(0)
 9853 3dfe 298B      		std Y+17,r18
 9854 3e00 3A8B      		std Y+18,r19
 9855 3e02 4B8B      		std Y+19,r20
 9856 3e04 5C8B      		std Y+20,r21
 9857 3e06 00C0      		rjmp .L772
 9858               	.LVL672:
 9859               	.L717:
 9860               	.LM476:
 9861 3e08 8989      		ldd r24,Y+17
 9862 3e0a 9A89      		ldd r25,Y+18
 9863 3e0c AB89      		ldd r26,Y+19
 9864 3e0e BC89      		ldd r27,Y+20
 9865 3e10 481A      		sub r4,r24
 9866 3e12 590A      		sbc r5,r25
 9867 3e14 6A0A      		sbc r6,r26
 9868 3e16 7B0A      		sbc r7,r27
 9869               	.LM477:
 9870 3e18 AD89      		ldd r26,Y+21
 9871 3e1a BE89      		ldd r27,Y+22
 9872 3e1c 8D91      		ld r24,X+
 9873 3e1e 9C91      		ld r25,X
 9874 3e20 4F81      		ldd r20,Y+7
 9875 3e22 5885      		ldd r21,Y+8
 9876 3e24 6985      		ldd r22,Y+9
 9877 3e26 7A85      		ldd r23,Y+10
 9878               	.LVL673:
 9879 3e28 0E94 0000 		call fat_get_next_cluster
 9880               	.LVL674:
 9881               	.LM478:
 9882 3e2c 6115      		cp r22,__zero_reg__
 9883 3e2e 7105      		cpc r23,__zero_reg__
 9884 3e30 8105      		cpc r24,__zero_reg__
 9885 3e32 9105      		cpc r25,__zero_reg__
 9886               	.LVL675:
 9887 3e34 01F0      		breq .L716
 9888 3e36 6F83      		std Y+7,r22
 9889 3e38 7887      		std Y+8,r23
 9890 3e3a 8987      		std Y+9,r24
 9891 3e3c 9A87      		std Y+10,r25
 9892               	.LVL676:
 9893 3e3e 00C0      		rjmp .L772
 9894               	.L716:
 9895 3e40 4114      		cp r4,__zero_reg__
 9896 3e42 5104      		cpc r5,__zero_reg__
 9897 3e44 6104      		cpc r6,__zero_reg__
 9898 3e46 7104      		cpc r7,__zero_reg__
 9899 3e48 01F0      		breq .+2
 9900 3e4a 00C0      		rjmp .L711
 9901               	.LM479:
 9902 3e4c ED89      		ldd r30,Y+21
 9903 3e4e FE89      		ldd r31,Y+22
 9904 3e50 8081      		ld r24,Z
 9905 3e52 9181      		ldd r25,Z+1
 9906 3e54 4F81      		ldd r20,Y+7
 9907 3e56 5885      		ldd r21,Y+8
 9908 3e58 6985      		ldd r22,Y+9
 9909 3e5a 7A85      		ldd r23,Y+10
 9910 3e5c 01E0      		ldi r16,lo8(1)
 9911 3e5e 10E0      		ldi r17,hi8(1)
 9912 3e60 20E0      		ldi r18,hlo8(1)
 9913 3e62 30E0      		ldi r19,hhi8(1)
 9914 3e64 0E94 0000 		call fat_append_clusters
 9915               	.LVL677:
 9916 3e68 AB01      		movw r20,r22
 9917 3e6a BC01      		movw r22,r24
 9918               	.LVL678:
 9919               	.LM480:
 9920 3e6c 4115      		cp r20,__zero_reg__
 9921 3e6e 5105      		cpc r21,__zero_reg__
 9922 3e70 6105      		cpc r22,__zero_reg__
 9923 3e72 7105      		cpc r23,__zero_reg__
 9924 3e74 01F4      		brne .+2
 9925 3e76 00C0      		rjmp .L711
 9926 3e78 4F83      		std Y+7,r20
 9927 3e7a 5887      		std Y+8,r21
 9928 3e7c 6987      		std Y+9,r22
 9929 3e7e 7A87      		std Y+10,r23
 9930               	.LVL679:
 9931               	.L772:
 9932               	.LM481:
 9933 3e80 2989      		ldd r18,Y+17
 9934 3e82 3A89      		ldd r19,Y+18
 9935 3e84 4B89      		ldd r20,Y+19
 9936 3e86 5C89      		ldd r21,Y+20
 9937 3e88 4216      		cp r4,r18
 9938 3e8a 5306      		cpc r5,r19
 9939 3e8c 6406      		cpc r6,r20
 9940 3e8e 7506      		cpc r7,r21
 9941 3e90 00F0      		brlo .+2
 9942 3e92 00C0      		rjmp .L717
 9943               	.LVL680:
 9944               	.L713:
 9945               	.LBE99:
 9946               	.LM482:
 9947 3e94 4B85      		ldd r20,Y+11
 9948 3e96 5C85      		ldd r21,Y+12
 9949               	.LVL681:
 9950 3e98 4150      		subi r20,lo8(-(-1))
 9951 3e9a 5040      		sbci r21,hi8(-(-1))
 9952 3e9c 5C87      		std Y+12,r21
 9953 3e9e 4B87      		std Y+11,r20
 9954               	.LVL682:
 9955 3ea0 4821      		and r20,r8
 9956 3ea2 5921      		and r21,r9
 9957 3ea4 5C83      		std Y+4,r21
 9958 3ea6 4B83      		std Y+3,r20
 9959               	.LVL683:
 9960 3ea8 8B85      		ldd r24,Y+11
 9961 3eaa 9C85      		ldd r25,Y+12
 9962 3eac 0196      		adiw r24,1
 9963 3eae 9C87      		std Y+12,r25
 9964 3eb0 8B87      		std Y+11,r24
 9965               	.LVL684:
 9966 3eb2 AF85      		ldd r26,Y+15
 9967 3eb4 B889      		ldd r27,Y+16
 9968 3eb6 BE83      		std Y+6,r27
 9969 3eb8 AD83      		std Y+5,r26
 9970               	.LVL685:
 9971               	.L765:
 9972               	.LBB100:
 9973               	.LM483:
 9974 3eba ED89      		ldd r30,Y+21
 9975 3ebc FE89      		ldd r31,Y+22
 9976 3ebe 0190      		ld __tmp_reg__,Z+
 9977 3ec0 F081      		ld r31,Z
 9978 3ec2 E02D      		mov r30,__tmp_reg__
 9979 3ec4 FA83      		std Y+2,r31
 9980 3ec6 E983      		std Y+1,r30
 9981               	.LBB102:
 9982               	.LBB103:
 9983               	.LM484:
 9984 3ec8 3097      		sbiw r30,0
 9985 3eca 01F4      		brne .+2
 9986 3ecc 00C0      		rjmp .L718
 9987 3ece 2F81      		ldd r18,Y+7
 9988 3ed0 3885      		ldd r19,Y+8
 9989 3ed2 4985      		ldd r20,Y+9
 9990 3ed4 5A85      		ldd r21,Y+10
 9991 3ed6 2230      		cpi r18,lo8(2)
 9992 3ed8 3105      		cpc r19,__zero_reg__
 9993 3eda 4105      		cpc r20,__zero_reg__
 9994 3edc 5105      		cpc r21,__zero_reg__
 9995 3ede 00F4      		brsh .+2
 9996 3ee0 00C0      		rjmp .L718
 9997               	.LM485:
 9998 3ee2 2250      		subi r18,lo8(-(-2))
 9999 3ee4 3040      		sbci r19,hi8(-(-2))
 10000 3ee6 4040      		sbci r20,hlo8(-(-2))
 10001 3ee8 5040      		sbci r21,hhi8(-(-2))
 10002 3eea 5901      		movw r10,r18
 10003 3eec 6A01      		movw r12,r20
 10004 3eee 2E5F      		subi r18,lo8(-(2))
 10005 3ef0 3F4F      		sbci r19,hi8(-(2))
 10006 3ef2 4F4F      		sbci r20,hlo8(-(2))
 10007 3ef4 5F4F      		sbci r21,hhi8(-(2))
 10008 3ef6 2F83      		std Y+7,r18
 10009 3ef8 3887      		std Y+8,r19
 10010 3efa 4987      		std Y+9,r20
 10011 3efc 5A87      		std Y+10,r21
 10012               	.LVL686:
 10013 3efe 208C      		ldd r2,Z+24
 10014 3f00 318C      		ldd r3,Z+25
 10015 3f02 9501      		movw r18,r10
 10016 3f04 A601      		movw r20,r12
 10017               	.LVL687:
 10018 3f06 60E0      		ldi r22,lo8(0)
 10019               	.LVL688:
 10020 3f08 70E0      		ldi r23,lo8(0)
 10021               	.LVL689:
 10022 3f0a 80E0      		ldi r24,lo8(0)
 10023 3f0c 90E0      		ldi r25,lo8(0)
 10024               	.LVL690:
 10025 3f0e 5101      		movw r10,r2
 10026 3f10 CC24      		clr r12
 10027 3f12 DD24      		clr r13
 10028 3f14 EE24      		clr r14
 10029 3f16 FF24      		clr r15
 10030 3f18 00E0      		ldi r16,lo8(0)
 10031 3f1a 10E0      		ldi r17,lo8(0)
 10032 3f1c 0E94 0000 		call __muldi3
 10033               	.LVL691:
 10034 3f20 E981      		ldd r30,Y+1
 10035 3f22 FA81      		ldd r31,Y+2
 10036 3f24 B28D      		ldd r27,Z+26
 10037 3f26 F38C      		ldd r15,Z+27
 10038 3f28 A48D      		ldd r26,Z+28
 10039 3f2a 058D      		ldd r16,Z+29
 10040 3f2c D68C      		ldd r13,Z+30
 10041 3f2e C78C      		ldd r12,Z+31
 10042 3f30 B0A0      		ldd r11,Z+32
 10043 3f32 11A1      		ldd r17,Z+33
 10044 3f34 B20F      		add r27,r18
 10045 3f36 F1E0      		ldi r31,lo8(1)
 10046 3f38 B217      		cp r27,r18
 10047 3f3a 00F0      		brlo .L719
 10048 3f3c F0E0      		ldi r31,lo8(0)
 10049               	.L719:
 10050 3f3e 232F      		mov r18,r19
 10051 3f40 2F0D      		add r18,r15
 10052 3f42 E1E0      		ldi r30,lo8(1)
 10053 3f44 2317      		cp r18,r19
 10054 3f46 00F0      		brlo .L720
 10055 3f48 E0E0      		ldi r30,lo8(0)
 10056               	.L720:
 10057 3f4a EF2E      		mov r14,r31
 10058 3f4c E20E      		add r14,r18
 10059 3f4e 31E0      		ldi r19,lo8(1)
 10060 3f50 E216      		cp r14,r18
 10061 3f52 00F0      		brlo .L721
 10062 3f54 30E0      		ldi r19,lo8(0)
 10063               	.L721:
 10064 3f56 E32B      		or r30,r19
 10065 3f58 242F      		mov r18,r20
 10066 3f5a 2A0F      		add r18,r26
 10067 3f5c F1E0      		ldi r31,lo8(1)
 10068 3f5e 2417      		cp r18,r20
 10069 3f60 00F0      		brlo .L722
 10070 3f62 F0E0      		ldi r31,lo8(0)
 10071               	.L722:
 10072 3f64 FE2E      		mov r15,r30
 10073 3f66 F20E      		add r15,r18
 10074 3f68 31E0      		ldi r19,lo8(1)
 10075 3f6a F216      		cp r15,r18
 10076 3f6c 00F0      		brlo .L723
 10077 3f6e 30E0      		ldi r19,lo8(0)
 10078               	.L723:
 10079 3f70 F32B      		or r31,r19
 10080 3f72 252F      		mov r18,r21
 10081 3f74 200F      		add r18,r16
 10082 3f76 41E0      		ldi r20,lo8(1)
 10083 3f78 2517      		cp r18,r21
 10084 3f7a 00F0      		brlo .L724
 10085 3f7c 40E0      		ldi r20,lo8(0)
 10086               	.L724:
 10087 3f7e F20F      		add r31,r18
 10088 3f80 31E0      		ldi r19,lo8(1)
 10089 3f82 F217      		cp r31,r18
 10090 3f84 00F0      		brlo .L725
 10091 3f86 30E0      		ldi r19,lo8(0)
 10092               	.L725:
 10093 3f88 432B      		or r20,r19
 10094 3f8a 262F      		mov r18,r22
 10095 3f8c 2D0D      		add r18,r13
 10096 3f8e 51E0      		ldi r21,lo8(1)
 10097 3f90 2617      		cp r18,r22
 10098 3f92 00F0      		brlo .L726
 10099 3f94 50E0      		ldi r21,lo8(0)
 10100               	.L726:
 10101 3f96 E42F      		mov r30,r20
 10102 3f98 E20F      		add r30,r18
 10103 3f9a 31E0      		ldi r19,lo8(1)
 10104 3f9c E217      		cp r30,r18
 10105 3f9e 00F0      		brlo .L727
 10106 3fa0 30E0      		ldi r19,lo8(0)
 10107               	.L727:
 10108 3fa2 532B      		or r21,r19
 10109 3fa4 272F      		mov r18,r23
 10110 3fa6 2C0D      		add r18,r12
 10111 3fa8 41E0      		ldi r20,lo8(1)
 10112 3faa 2717      		cp r18,r23
 10113 3fac 00F0      		brlo .L728
 10114 3fae 40E0      		ldi r20,lo8(0)
 10115               	.L728:
 10116 3fb0 520F      		add r21,r18
 10117 3fb2 31E0      		ldi r19,lo8(1)
 10118 3fb4 5217      		cp r21,r18
 10119 3fb6 00F0      		brlo .L729
 10120 3fb8 30E0      		ldi r19,lo8(0)
 10121               	.L729:
 10122 3fba 432B      		or r20,r19
 10123 3fbc 282F      		mov r18,r24
 10124 3fbe 2B0D      		add r18,r11
 10125 3fc0 31E0      		ldi r19,lo8(1)
 10126 3fc2 2817      		cp r18,r24
 10127 3fc4 00F0      		brlo .L730
 10128 3fc6 30E0      		ldi r19,lo8(0)
 10129               	.L730:
 10130 3fc8 420F      		add r20,r18
 10131 3fca 81E0      		ldi r24,lo8(1)
 10132 3fcc 4217      		cp r20,r18
 10133 3fce 00F0      		brlo .L731
 10134 3fd0 80E0      		ldi r24,lo8(0)
 10135               	.L731:
 10136 3fd2 A32F      		mov r26,r19
 10137 3fd4 A82B      		or r26,r24
 10138 3fd6 190F      		add r17,r25
 10139 3fd8 2B2F      		mov r18,r27
 10140 3fda 9E2D      		mov r25,r14
 10141 3fdc 6F2D      		mov r22,r15
 10142 3fde 7F2F      		mov r23,r31
 10143 3fe0 4E2E      		mov r4,r30
 10144               	.LVL692:
 10145 3fe2 252E      		mov r2,r21
 10146 3fe4 B42F      		mov r27,r20
 10147 3fe6 A10F      		add r26,r17
 10148 3fe8 00C0      		rjmp .L732
 10149               	.LVL693:
 10150               	.L718:
 10151 3fea 20E0      		ldi r18,lo8(0)
 10152 3fec 90E0      		ldi r25,lo8(0)
 10153               	.LVL694:
 10154 3fee 60E0      		ldi r22,lo8(0)
 10155               	.LVL695:
 10156 3ff0 70E0      		ldi r23,lo8(0)
 10157               	.LVL696:
 10158 3ff2 4424      		clr r4
 10159               	.LVL697:
 10160 3ff4 2224      		clr r2
 10161 3ff6 B0E0      		ldi r27,lo8(0)
 10162 3ff8 A0E0      		ldi r26,lo8(0)
 10163               	.L732:
 10164               	.LBE103:
 10165               	.LBE102:
 10166               	.LM486:
 10167 3ffa 8B84      		ldd r8,Y+11
 10168 3ffc 9C84      		ldd r9,Y+12
 10169               	.LVL698:
 10170 3ffe 4B81      		ldd r20,Y+3
 10171 4000 5C81      		ldd r21,Y+4
 10172               	.LVL699:
 10173 4002 841A      		sub r8,r20
 10174 4004 950A      		sbc r9,r21
 10175 4006 ED81      		ldd r30,Y+5
 10176 4008 FE81      		ldd r31,Y+6
 10177 400a E815      		cp r30,r8
 10178 400c F905      		cpc r31,r9
 10179 400e 00F4      		brsh .L733
 10180 4010 4F01      		movw r8,r30
 10181               	.L733:
 10182               	.LM487:
 10183 4012 E981      		ldd r30,Y+1
 10184 4014 FA81      		ldd r31,Y+2
 10185 4016 6080      		ld r6,Z
 10186 4018 7180      		ldd r7,Z+1
 10187 401a 4B81      		ldd r20,Y+3
 10188 401c 5C81      		ldd r21,Y+4
 10189 401e 5A01      		movw r10,r20
 10190               	.LVL700:
 10191 4020 CC24      		clr r12
 10192 4022 DD24      		clr r13
 10193               	.LVL701:
 10194 4024 EE24      		clr r14
 10195 4026 FF24      		clr r15
 10196 4028 8701      		movw r16,r14
 10197               	.LVL702:
 10198 402a 522E      		mov r5,r18
 10199 402c 540E      		add r5,r20
 10200 402e 31E0      		ldi r19,lo8(1)
 10201               	.LVL703:
 10202 4030 5216      		cp r5,r18
 10203 4032 00F0      		brlo .L734
 10204               	.LVL704:
 10205 4034 30E0      		ldi r19,lo8(0)
 10206               	.L734:
 10207 4036 892F      		mov r24,r25
 10208 4038 8B0D      		add r24,r11
 10209               	.LVL705:
 10210 403a 41E0      		ldi r20,lo8(1)
 10211               	.LVL706:
 10212 403c 8917      		cp r24,r25
 10213 403e 00F0      		brlo .L735
 10214 4040 40E0      		ldi r20,lo8(0)
 10215               	.L735:
 10216 4042 380F      		add r19,r24
 10217 4044 91E0      		ldi r25,lo8(1)
 10218 4046 3817      		cp r19,r24
 10219 4048 00F0      		brlo .L736
 10220 404a 90E0      		ldi r25,lo8(0)
 10221               	.L736:
 10222 404c 492B      		or r20,r25
 10223 404e 862F      		mov r24,r22
 10224 4050 8C0D      		add r24,r12
 10225 4052 51E0      		ldi r21,lo8(1)
 10226               	.LVL707:
 10227 4054 8617      		cp r24,r22
 10228 4056 00F0      		brlo .L737
 10229 4058 50E0      		ldi r21,lo8(0)
 10230               	.L737:
 10231 405a 480F      		add r20,r24
 10232 405c 91E0      		ldi r25,lo8(1)
 10233 405e 4817      		cp r20,r24
 10234 4060 00F0      		brlo .L738
 10235 4062 90E0      		ldi r25,lo8(0)
 10236               	.L738:
 10237 4064 592B      		or r21,r25
 10238 4066 872F      		mov r24,r23
 10239 4068 8D0D      		add r24,r13
 10240               	.LVL708:
 10241 406a 61E0      		ldi r22,lo8(1)
 10242 406c 8717      		cp r24,r23
 10243 406e 00F0      		brlo .L739
 10244 4070 60E0      		ldi r22,lo8(0)
 10245               	.L739:
 10246 4072 580F      		add r21,r24
 10247 4074 91E0      		ldi r25,lo8(1)
 10248 4076 5817      		cp r21,r24
 10249 4078 00F0      		brlo .L740
 10250 407a 90E0      		ldi r25,lo8(0)
 10251               	.L740:
 10252 407c 692B      		or r22,r25
 10253 407e 842D      		mov r24,r4
 10254 4080 8E0D      		add r24,r14
 10255 4082 71E0      		ldi r23,lo8(1)
 10256 4084 8415      		cp r24,r4
 10257 4086 00F0      		brlo .L741
 10258 4088 70E0      		ldi r23,lo8(0)
 10259               	.L741:
 10260 408a 680F      		add r22,r24
 10261 408c 91E0      		ldi r25,lo8(1)
 10262 408e 6817      		cp r22,r24
 10263 4090 00F0      		brlo .L742
 10264 4092 90E0      		ldi r25,lo8(0)
 10265               	.L742:
 10266 4094 792B      		or r23,r25
 10267 4096 922D      		mov r25,r2
 10268 4098 9F0D      		add r25,r15
 10269               	.LVL709:
 10270 409a 81E0      		ldi r24,lo8(1)
 10271 409c 9215      		cp r25,r2
 10272 409e 00F0      		brlo .L743
 10273 40a0 80E0      		ldi r24,lo8(0)
 10274               	.L743:
 10275 40a2 790F      		add r23,r25
 10276 40a4 E1E0      		ldi r30,lo8(1)
 10277 40a6 7917      		cp r23,r25
 10278 40a8 00F0      		brlo .L744
 10279 40aa E0E0      		ldi r30,lo8(0)
 10280               	.L744:
 10281 40ac 8E2B      		or r24,r30
 10282 40ae EB2F      		mov r30,r27
 10283 40b0 E00F      		add r30,r16
 10284               	.LVL710:
 10285 40b2 91E0      		ldi r25,lo8(1)
 10286 40b4 EB17      		cp r30,r27
 10287 40b6 00F0      		brlo .L745
 10288 40b8 90E0      		ldi r25,lo8(0)
 10289               	.L745:
 10290 40ba 8E0F      		add r24,r30
 10291 40bc F1E0      		ldi r31,lo8(1)
 10292 40be 8E17      		cp r24,r30
 10293 40c0 00F0      		brlo .L746
 10294 40c2 F0E0      		ldi r31,lo8(0)
 10295               	.L746:
 10296 40c4 9F2B      		or r25,r31
 10297 40c6 A10F      		add r26,r17
 10298               	.LVL711:
 10299 40c8 F301      		movw r30,r6
 10300 40ca C480      		ldd r12,Z+4
 10301 40cc D580      		ldd r13,Z+5
 10302               	.LVL712:
 10303 40ce 252D      		mov r18,r5
 10304 40d0 9A0F      		add r25,r26
 10305 40d2 0D85      		ldd r16,Y+13
 10306 40d4 1E85      		ldd r17,Y+14
 10307               	.LVL713:
 10308 40d6 7401      		movw r14,r8
 10309               	.LVL714:
 10310 40d8 F601      		movw r30,r12
 10311 40da 0995      		icall
 10312 40dc 8823      		tst r24
 10313 40de 01F4      		brne .+2
 10314 40e0 00C0      		rjmp .L747
 10315               	.LM488:
 10316 40e2 2D81      		ldd r18,Y+5
 10317 40e4 3E81      		ldd r19,Y+6
 10318 40e6 2819      		sub r18,r8
 10319 40e8 3909      		sbc r19,r9
 10320 40ea 3E83      		std Y+6,r19
 10321 40ec 2D83      		std Y+5,r18
 10322               	.LVL715:
 10323               	.LM489:
 10324 40ee 9401      		movw r18,r8
 10325 40f0 40E0      		ldi r20,lo8(0)
 10326 40f2 50E0      		ldi r21,hi8(0)
 10327               	.LVL716:
 10328 40f4 60E0      		ldi r22,lo8(0)
 10329 40f6 70E0      		ldi r23,hi8(0)
 10330 40f8 80E0      		ldi r24,hlo8(0)
 10331 40fa 90E0      		ldi r25,hhi8(0)
 10332               	.LVL717:
 10333 40fc AD89      		ldd r26,Y+21
 10334 40fe BE89      		ldd r27,Y+22
 10335 4100 D396      		adiw r26,51
 10336 4102 1C91      		ld r17,X
 10337 4104 D397      		sbiw r26,51
 10338               	.LVL718:
 10339 4106 D496      		adiw r26,52
 10340 4108 DC90      		ld r13,X
 10341 410a D497      		sbiw r26,52
 10342               	.LVL719:
 10343 410c D596      		adiw r26,53
 10344 410e BC91      		ld r27,X
 10345 4110 ED89      		ldd r30,Y+21
 10346 4112 FE89      		ldd r31,Y+22
 10347 4114 06A9      		ldd r16,Z+54
 10348 4116 E7A8      		ldd r14,Z+55
 10349 4118 A0AC      		ldd r10,Z+56
 10350               	.LVL720:
 10351 411a 71AC      		ldd r7,Z+57
 10352 411c F2AC      		ldd r15,Z+58
 10353               	.LVL721:
 10354 411e 180D      		add r17,r8
 10355 4120 F1E0      		ldi r31,lo8(1)
 10356 4122 1815      		cp r17,r8
 10357 4124 00F0      		brlo .L748
 10358 4126 F0E0      		ldi r31,lo8(0)
 10359               	.L748:
 10360 4128 ED2D      		mov r30,r13
 10361 412a E30F      		add r30,r19
 10362               	.LVL722:
 10363 412c A1E0      		ldi r26,lo8(1)
 10364 412e E317      		cp r30,r19
 10365 4130 00F0      		brlo .L749
 10366 4132 A0E0      		ldi r26,lo8(0)
 10367               	.L749:
 10368 4134 BF2E      		mov r11,r31
 10369               	.LVL723:
 10370 4136 BE0E      		add r11,r30
 10371 4138 F1E0      		ldi r31,lo8(1)
 10372 413a BE16      		cp r11,r30
 10373 413c 00F0      		brlo .L750
 10374 413e F0E0      		ldi r31,lo8(0)
 10375               	.L750:
 10376 4140 AF2B      		or r26,r31
 10377 4142 E42F      		mov r30,r20
 10378               	.LVL724:
 10379 4144 EB0F      		add r30,r27
 10380 4146 B1E0      		ldi r27,lo8(1)
 10381 4148 E417      		cp r30,r20
 10382               	.LVL725:
 10383 414a 00F0      		brlo .L751
 10384 414c B0E0      		ldi r27,lo8(0)
 10385               	.L751:
 10386 414e CA2E      		mov r12,r26
 10387 4150 CE0E      		add r12,r30
 10388 4152 F1E0      		ldi r31,lo8(1)
 10389 4154 CE16      		cp r12,r30
 10390 4156 00F0      		brlo .L752
 10391 4158 F0E0      		ldi r31,lo8(0)
 10392               	.L752:
 10393 415a BF2B      		or r27,r31
 10394 415c E52F      		mov r30,r21
 10395 415e E00F      		add r30,r16
 10396 4160 A1E0      		ldi r26,lo8(1)
 10397 4162 E517      		cp r30,r21
 10398               	.LVL726:
 10399 4164 00F0      		brlo .L753
 10400 4166 A0E0      		ldi r26,lo8(0)
 10401               	.L753:
 10402 4168 DB2E      		mov r13,r27
 10403 416a DE0E      		add r13,r30
 10404 416c F1E0      		ldi r31,lo8(1)
 10405 416e DE16      		cp r13,r30
 10406 4170 00F0      		brlo .L754
 10407 4172 F0E0      		ldi r31,lo8(0)
 10408               	.L754:
 10409 4174 AF2B      		or r26,r31
 10410 4176 E62F      		mov r30,r22
 10411               	.LVL727:
 10412 4178 EE0D      		add r30,r14
 10413 417a B1E0      		ldi r27,lo8(1)
 10414 417c E617      		cp r30,r22
 10415               	.LVL728:
 10416 417e 00F0      		brlo .L755
 10417 4180 B0E0      		ldi r27,lo8(0)
 10418               	.L755:
 10419 4182 EA2E      		mov r14,r26
 10420 4184 EE0E      		add r14,r30
 10421 4186 F1E0      		ldi r31,lo8(1)
 10422 4188 EE16      		cp r14,r30
 10423 418a 00F0      		brlo .L756
 10424 418c F0E0      		ldi r31,lo8(0)
 10425               	.L756:
 10426 418e BF2B      		or r27,r31
 10427 4190 E72F      		mov r30,r23
 10428 4192 EA0D      		add r30,r10
 10429 4194 A1E0      		ldi r26,lo8(1)
 10430 4196 E717      		cp r30,r23
 10431               	.LVL729:
 10432 4198 00F0      		brlo .L757
 10433 419a A0E0      		ldi r26,lo8(0)
 10434               	.L757:
 10435 419c 0B2F      		mov r16,r27
 10436 419e 0E0F      		add r16,r30
 10437 41a0 F1E0      		ldi r31,lo8(1)
 10438 41a2 0E17      		cp r16,r30
 10439 41a4 00F0      		brlo .L758
 10440 41a6 F0E0      		ldi r31,lo8(0)
 10441               	.L758:
 10442 41a8 AF2B      		or r26,r31
 10443 41aa E82F      		mov r30,r24
 10444 41ac E70D      		add r30,r7
 10445 41ae F1E0      		ldi r31,lo8(1)
 10446 41b0 E817      		cp r30,r24
 10447               	.LVL730:
 10448 41b2 00F0      		brlo .L759
 10449 41b4 F0E0      		ldi r31,lo8(0)
 10450               	.L759:
 10451 41b6 AA2E      		mov r10,r26
 10452 41b8 AE0E      		add r10,r30
 10453 41ba A1E0      		ldi r26,lo8(1)
 10454 41bc AE16      		cp r10,r30
 10455 41be 00F0      		brlo .L760
 10456 41c0 A0E0      		ldi r26,lo8(0)
 10457               	.L760:
 10458 41c2 FA2B      		or r31,r26
 10459 41c4 F90E      		add r15,r25
 10460               	.LVL731:
 10461 41c6 FF0D      		add r31,r15
 10462 41c8 AD89      		ldd r26,Y+21
 10463 41ca BE89      		ldd r27,Y+22
 10464 41cc D396      		adiw r26,51
 10465 41ce 1C93      		st X,r17
 10466 41d0 D397      		sbiw r26,51
 10467 41d2 D496      		adiw r26,52
 10468 41d4 BC92      		st X,r11
 10469 41d6 D497      		sbiw r26,52
 10470 41d8 D596      		adiw r26,53
 10471 41da CC92      		st X,r12
 10472 41dc D597      		sbiw r26,53
 10473 41de D696      		adiw r26,54
 10474 41e0 DC92      		st X,r13
 10475 41e2 D697      		sbiw r26,54
 10476 41e4 D796      		adiw r26,55
 10477 41e6 EC92      		st X,r14
 10478 41e8 D797      		sbiw r26,55
 10479 41ea D896      		adiw r26,56
 10480 41ec 0C93      		st X,r16
 10481 41ee D897      		sbiw r26,56
 10482 41f0 D996      		adiw r26,57
 10483 41f2 AC92      		st X,r10
 10484 41f4 D997      		sbiw r26,57
 10485 41f6 DA96      		adiw r26,58
 10486 41f8 FC93      		st X,r31
 10487 41fa DA97      		sbiw r26,58
 10488               	.LM490:
 10489 41fc 8B81      		ldd r24,Y+3
 10490 41fe 9C81      		ldd r25,Y+4
 10491               	.LVL732:
 10492 4200 880D      		add r24,r8
 10493 4202 991D      		adc r25,r9
 10494 4204 EB85      		ldd r30,Y+11
 10495 4206 FC85      		ldd r31,Y+12
 10496 4208 8E17      		cp r24,r30
 10497 420a 9F07      		cpc r25,r31
 10498 420c 00F0      		brlo .L761
 10499               	.LBB101:
 10500               	.LM491:
 10501 420e 8D91      		ld r24,X+
 10502 4210 9C91      		ld r25,X
 10503 4212 4F81      		ldd r20,Y+7
 10504 4214 5885      		ldd r21,Y+8
 10505 4216 6985      		ldd r22,Y+9
 10506 4218 7A85      		ldd r23,Y+10
 10507               	.LVL733:
 10508 421a 0E94 0000 		call fat_get_next_cluster
 10509               	.LVL734:
 10510               	.LM492:
 10511 421e 6115      		cp r22,__zero_reg__
 10512 4220 7105      		cpc r23,__zero_reg__
 10513 4222 8105      		cpc r24,__zero_reg__
 10514 4224 9105      		cpc r25,__zero_reg__
 10515               	.LVL735:
 10516 4226 01F0      		breq .L762
 10517 4228 6F83      		std Y+7,r22
 10518 422a 7887      		std Y+8,r23
 10519 422c 8987      		std Y+9,r24
 10520 422e 9A87      		std Y+10,r25
 10521               	.LVL736:
 10522 4230 00C0      		rjmp .L773
 10523               	.L762:
 10524 4232 2D81      		ldd r18,Y+5
 10525 4234 3E81      		ldd r19,Y+6
 10526 4236 232B      		or r18,r19
 10527 4238 01F0      		breq .L763
 10528               	.LM493:
 10529 423a AD89      		ldd r26,Y+21
 10530 423c BE89      		ldd r27,Y+22
 10531 423e 8D91      		ld r24,X+
 10532 4240 9C91      		ld r25,X
 10533 4242 4F81      		ldd r20,Y+7
 10534 4244 5885      		ldd r21,Y+8
 10535 4246 6985      		ldd r22,Y+9
 10536 4248 7A85      		ldd r23,Y+10
 10537 424a 01E0      		ldi r16,lo8(1)
 10538 424c 10E0      		ldi r17,hi8(1)
 10539 424e 20E0      		ldi r18,hlo8(1)
 10540 4250 30E0      		ldi r19,hhi8(1)
 10541 4252 0E94 0000 		call fat_append_clusters
 10542               	.LVL737:
 10543 4256 AB01      		movw r20,r22
 10544 4258 BC01      		movw r22,r24
 10545               	.LVL738:
 10546               	.LM494:
 10547 425a 4115      		cp r20,__zero_reg__
 10548 425c 5105      		cpc r21,__zero_reg__
 10549 425e 6105      		cpc r22,__zero_reg__
 10550 4260 7105      		cpc r23,__zero_reg__
 10551 4262 01F4      		brne .L764
 10552               	.LVL739:
 10553               	.L763:
 10554               	.LM495:
 10555 4264 ED89      		ldd r30,Y+21
 10556 4266 FE89      		ldd r31,Y+22
 10557 4268 13AE      		std Z+59,__zero_reg__
 10558 426a 14AE      		std Z+60,__zero_reg__
 10559 426c 15AE      		std Z+61,__zero_reg__
 10560 426e 16AE      		std Z+62,__zero_reg__
 10561 4270 00C0      		rjmp .L747
 10562               	.LVL740:
 10563               	.L764:
 10564               	.LM496:
 10565 4272 4F83      		std Y+7,r20
 10566 4274 5887      		std Y+8,r21
 10567 4276 6987      		std Y+9,r22
 10568 4278 7A87      		std Y+10,r23
 10569               	.LVL741:
 10570               	.L773:
 10571 427a 1C82      		std Y+4,__zero_reg__
 10572 427c 1B82      		std Y+3,__zero_reg__
 10573               	.LVL742:
 10574               	.L761:
 10575               	.LBE101:
 10576               	.LM497:
 10577 427e 2F81      		ldd r18,Y+7
 10578 4280 3885      		ldd r19,Y+8
 10579 4282 4985      		ldd r20,Y+9
 10580 4284 5A85      		ldd r21,Y+10
 10581 4286 AD89      		ldd r26,Y+21
 10582 4288 BE89      		ldd r27,Y+22
 10583 428a DB96      		adiw r26,59
 10584 428c 2D93      		st X+,r18
 10585 428e 3D93      		st X+,r19
 10586 4290 4D93      		st X+,r20
 10587 4292 5C93      		st X,r21
 10588 4294 DE97      		sbiw r26,59+3
 10589               	.LBE100:
 10590               	.LM498:
 10591 4296 ED81      		ldd r30,Y+5
 10592 4298 FE81      		ldd r31,Y+6
 10593 429a EF2B      		or r30,r31
 10594 429c 01F0      		breq .L747
 10595               	.LBB104:
 10596               	.LM499:
 10597 429e 2D85      		ldd r18,Y+13
 10598 42a0 3E85      		ldd r19,Y+14
 10599 42a2 280D      		add r18,r8
 10600 42a4 391D      		adc r19,r9
 10601 42a6 3E87      		std Y+14,r19
 10602 42a8 2D87      		std Y+13,r18
 10603               	.LVL743:
 10604 42aa 00C0      		rjmp .L765
 10605               	.LVL744:
 10606               	.L747:
 10607               	.LBE104:
 10608               	.LM500:
 10609 42ac AD89      		ldd r26,Y+21
 10610 42ae BE89      		ldd r27,Y+22
 10611 42b0 D396      		adiw r26,51
 10612 42b2 7C91      		ld r23,X
 10613 42b4 D397      		sbiw r26,51
 10614               	.LVL745:
 10615 42b6 D496      		adiw r26,52
 10616 42b8 4C91      		ld r20,X
 10617 42ba D497      		sbiw r26,52
 10618               	.LVL746:
 10619 42bc D596      		adiw r26,53
 10620 42be 5C91      		ld r21,X
 10621 42c0 D597      		sbiw r26,53
 10622               	.LVL747:
 10623 42c2 D696      		adiw r26,54
 10624 42c4 6C91      		ld r22,X
 10625 42c6 D697      		sbiw r26,54
 10626               	.LVL748:
 10627 42c8 D796      		adiw r26,55
 10628 42ca 3C91      		ld r19,X
 10629 42cc D797      		sbiw r26,55
 10630               	.LVL749:
 10631 42ce D896      		adiw r26,56
 10632 42d0 2C91      		ld r18,X
 10633 42d2 D897      		sbiw r26,56
 10634 42d4 D996      		adiw r26,57
 10635 42d6 9C91      		ld r25,X
 10636 42d8 D997      		sbiw r26,57
 10637               	.LVL750:
 10638 42da DA96      		adiw r26,58
 10639 42dc 8C91      		ld r24,X
 10640 42de DA97      		sbiw r26,58
 10641 42e0 9796      		adiw r26,39
 10642 42e2 6D90      		ld r6,X+
 10643 42e4 7D90      		ld r7,X+
 10644 42e6 8D90      		ld r8,X+
 10645 42e8 9C90      		ld r9,X
 10646 42ea 9A97      		sbiw r26,39+3
 10647 42ec 6401      		movw r12,r8
 10648 42ee 5301      		movw r10,r6
 10649 42f0 EE24      		clr r14
 10650 42f2 FF24      		clr r15
 10651 42f4 8701      		movw r16,r14
 10652 42f6 1817      		cp r17,r24
 10653               	.LVL751:
 10654 42f8 00F0      		brlo .L771
 10655 42fa 8117      		cp r24,r17
 10656 42fc 01F4      		brne .L766
 10657 42fe 0917      		cp r16,r25
 10658 4300 00F0      		brlo .L771
 10659 4302 9017      		cp r25,r16
 10660 4304 01F4      		brne .L766
 10661 4306 F216      		cp r15,r18
 10662               	.LVL752:
 10663 4308 00F0      		brlo .L771
 10664 430a 2F15      		cp r18,r15
 10665 430c 01F4      		brne .L766
 10666 430e E316      		cp r14,r19
 10667 4310 00F0      		brlo .L771
 10668 4312 3E15      		cp r19,r14
 10669 4314 01F4      		brne .L766
 10670 4316 D616      		cp r13,r22
 10671               	.LVL753:
 10672 4318 00F0      		brlo .L771
 10673 431a 6D15      		cp r22,r13
 10674 431c 01F4      		brne .L766
 10675 431e C516      		cp r12,r21
 10676 4320 00F0      		brlo .L771
 10677 4322 5C15      		cp r21,r12
 10678 4324 01F4      		brne .L766
 10679 4326 B416      		cp r11,r20
 10680               	.LVL754:
 10681 4328 00F0      		brlo .L771
 10682 432a 4B15      		cp r20,r11
 10683 432c 01F4      		brne .L766
 10684 432e 6716      		cp r6,r23
 10685 4330 00F4      		brsh .L766
 10686               	.LVL755:
 10687               	.L771:
 10688               	.LBB105:
 10689               	.LM501:
 10690 4332 ED89      		ldd r30,Y+21
 10691 4334 FE89      		ldd r31,Y+22
 10692 4336 77A3      		std Z+39,r23
 10693 4338 40A7      		std Z+40,r20
 10694 433a 51A7      		std Z+41,r21
 10695 433c 62A7      		std Z+42,r22
 10696               	.LM502:
 10697 433e 8191      		ld r24,Z+
 10698 4340 9191      		ld r25,Z+
 10699 4342 BF01      		movw r22,r30
 10700 4344 0E94 0000 		call fat_write_dir_entry
 10701 4348 8823      		tst r24
 10702 434a 01F4      		brne .L766
 10703               	.LM503:
 10704 434c AD89      		ldd r26,Y+21
 10705 434e BE89      		ldd r27,Y+22
 10706 4350 D396      		adiw r26,51
 10707 4352 0D90      		ld __tmp_reg__,X+
 10708 4354 BC91      		ld r27,X
 10709 4356 A02D      		mov r26,__tmp_reg__
 10710 4358 A619      		sub r26,r6
 10711 435a B709      		sbc r27,r7
 10712 435c BE83      		std Y+6,r27
 10713 435e AD83      		std Y+5,r26
 10714               	.LVL756:
 10715               	.LM504:
 10716 4360 ED89      		ldd r30,Y+21
 10717 4362 FE89      		ldd r31,Y+22
 10718 4364 A3AA      		std Z+51,r10
 10719 4366 B4AA      		std Z+52,r11
 10720               	.LVL757:
 10721 4368 C5AA      		std Z+53,r12
 10722 436a D6AA      		std Z+54,r13
 10723               	.LVL758:
 10724 436c 17AA      		std Z+55,__zero_reg__
 10725 436e 10AE      		std Z+56,__zero_reg__
 10726 4370 11AE      		std Z+57,__zero_reg__
 10727 4372 12AE      		std Z+58,__zero_reg__
 10728               	.LVL759:
 10729               	.L766:
 10730               	.LBE105:
 10731               	.LM505:
 10732 4374 4F85      		ldd r20,Y+15
 10733 4376 5889      		ldd r21,Y+16
 10734 4378 2D81      		ldd r18,Y+5
 10735 437a 3E81      		ldd r19,Y+6
 10736 437c 421B      		sub r20,r18
 10737 437e 530B      		sbc r21,r19
 10738 4380 00C0      		rjmp .L768
 10739               	.LVL760:
 10740               	.L711:
 10741 4382 4FEF      		ldi r20,lo8(-1)
 10742 4384 5FEF      		ldi r21,hi8(-1)
 10743               	.LVL761:
 10744               	.L768:
 10745               	.LM506:
 10746 4386 CA01      		movw r24,r20
 10747               	/* epilogue start */
 10748 4388 6696      		adiw r28,22
 10749 438a 0FB6      		in __tmp_reg__,__SREG__
 10750 438c F894      		cli
 10751 438e DEBF      		out __SP_H__,r29
 10752 4390 0FBE      		out __SREG__,__tmp_reg__
 10753 4392 CDBF      		out __SP_L__,r28
 10754 4394 CF91      		pop r28
 10755 4396 DF91      		pop r29
 10756 4398 1F91      		pop r17
 10757 439a 0F91      		pop r16
 10758 439c FF90      		pop r15
 10759               	.LVL762:
 10760 439e EF90      		pop r14
 10761 43a0 DF90      		pop r13
 10762               	.LVL763:
 10763 43a2 CF90      		pop r12
 10764 43a4 BF90      		pop r11
 10765               	.LVL764:
 10766 43a6 AF90      		pop r10
 10767 43a8 9F90      		pop r9
 10768 43aa 8F90      		pop r8
 10769               	.LVL765:
 10770 43ac 7F90      		pop r7
 10771 43ae 6F90      		pop r6
 10772 43b0 5F90      		pop r5
 10773 43b2 4F90      		pop r4
 10774               	.LVL766:
 10775 43b4 3F90      		pop r3
 10776 43b6 2F90      		pop r2
 10777 43b8 0895      		ret
 10778               	.LFE16:
 10780               	.global	fat_open_dir
 10782               	fat_open_dir:
 10783               	.LFB19:
 10784               	.LM507:
 10785               	.LVL767:
 10786 43ba CF93      		push r28
 10787 43bc DF93      		push r29
 10788               	/* prologue: function */
 10789               	/* frame size = 0 */
 10790 43be AC01      		movw r20,r24
 10791 43c0 DB01      		movw r26,r22
 10792               	.LM508:
 10793 43c2 0097      		sbiw r24,0
 10794 43c4 01F0      		breq .L775
 10795               	.LVL768:
 10796 43c6 6115      		cp r22,__zero_reg__
 10797 43c8 7105      		cpc r23,__zero_reg__
 10798 43ca 01F0      		breq .L775
 10799               	.LVL769:
 10800 43cc 9096      		adiw r26,32
 10801 43ce 8C91      		ld r24,X
 10802 43d0 9097      		sbiw r26,32
 10803               	.LVL770:
 10804 43d2 84FF      		sbrs r24,4
 10805 43d4 00C0      		rjmp .L775
 10806               	.LVL771:
 10807               	.LM509:
 10808 43d6 8091 0000 		lds r24,fat_dir_handles
 10809 43da 9091 0000 		lds r25,(fat_dir_handles)+1
 10810 43de 892B      		or r24,r25
 10811 43e0 01F4      		brne .L776
 10812 43e2 E0E0      		ldi r30,lo8(fat_dir_handles)
 10813 43e4 F0E0      		ldi r31,hi8(fat_dir_handles)
 10814               	.LVL772:
 10815 43e6 00C0      		rjmp .L777
 10816               	.LVL773:
 10817               	.L776:
 10818 43e8 8091 0000 		lds r24,fat_dir_handles+57
 10819 43ec 9091 0000 		lds r25,(fat_dir_handles+57)+1
 10820 43f0 892B      		or r24,r25
 10821 43f2 01F4      		brne .L775
 10822 43f4 E0E0      		ldi r30,lo8(fat_dir_handles+57)
 10823 43f6 F0E0      		ldi r31,hi8(fat_dir_handles+57)
 10824               	.LVL774:
 10825               	.L777:
 10826               	.LM510:
 10827 43f8 9F01      		movw r18,r30
 10828 43fa 2E5F      		subi r18,lo8(-(2))
 10829 43fc 3F4F      		sbci r19,hi8(-(2))
 10830 43fe BD01      		movw r22,r26
 10831 4400 81E3      		ldi r24,lo8(49)
 10832               	.LVL775:
 10833               	.L778:
 10834 4402 EB01      		movw r28,r22
 10835 4404 0990      		ld r0,Y+
 10836 4406 BE01      		movw r22,r28
 10837 4408 E901      		movw r28,r18
 10838 440a 0992      		st Y+,r0
 10839 440c 9E01      		movw r18,r28
 10840 440e 8150      		subi r24,lo8(-(-1))
 10841 4410 01F4      		brne .L778
 10842               	.LM511:
 10843 4412 5183      		std Z+1,r21
 10844 4414 4083      		st Z,r20
 10845               	.LM512:
 10846 4416 9196      		adiw r26,33
 10847 4418 8D91      		ld r24,X+
 10848 441a 9D91      		ld r25,X+
 10849 441c 0D90      		ld __tmp_reg__,X+
 10850 441e BC91      		ld r27,X
 10851 4420 A02D      		mov r26,__tmp_reg__
 10852 4422 83AB      		std Z+51,r24
 10853 4424 94AB      		std Z+52,r25
 10854 4426 A5AB      		std Z+53,r26
 10855 4428 B6AB      		std Z+54,r27
 10856               	.LM513:
 10857 442a 10AE      		std Z+56,__zero_reg__
 10858 442c 17AA      		std Z+55,__zero_reg__
 10859 442e 00C0      		rjmp .L779
 10860               	.LVL776:
 10861               	.L775:
 10862               	.LM514:
 10863 4430 E0E0      		ldi r30,lo8(0)
 10864 4432 F0E0      		ldi r31,hi8(0)
 10865               	.LVL777:
 10866               	.L779:
 10867               	.LM515:
 10868 4434 CF01      		movw r24,r30
 10869               	.LVL778:
 10870               	/* epilogue start */
 10871 4436 DF91      		pop r29
 10872 4438 CF91      		pop r28
 10873 443a 0895      		ret
 10874               	.LFE19:
 10876               	.global	fat_open_file
 10878               	fat_open_file:
 10879               	.LFB13:
 10880               	.LM516:
 10881               	.LVL779:
 10882 443c CF93      		push r28
 10883 443e DF93      		push r29
 10884               	/* prologue: function */
 10885               	/* frame size = 0 */
 10886 4440 9C01      		movw r18,r24
 10887 4442 DB01      		movw r26,r22
 10888               	.LM517:
 10889 4444 0097      		sbiw r24,0
 10890 4446 01F0      		breq .L783
 10891               	.LVL780:
 10892 4448 6115      		cp r22,__zero_reg__
 10893 444a 7105      		cpc r23,__zero_reg__
 10894 444c 01F0      		breq .L783
 10895               	.LVL781:
 10896 444e 9096      		adiw r26,32
 10897 4450 8C91      		ld r24,X
 10898 4452 9097      		sbiw r26,32
 10899               	.LVL782:
 10900 4454 84FF      		sbrs r24,4
 10901 4456 00C0      		rjmp .L784
 10902               	.LVL783:
 10903               	.L783:
 10904 4458 20E0      		ldi r18,lo8(0)
 10905 445a 30E0      		ldi r19,hi8(0)
 10906               	.LVL784:
 10907               	.L786:
 10908               	.LM518:
 10909 445c C901      		movw r24,r18
 10910               	.LVL785:
 10911               	/* epilogue start */
 10912 445e DF91      		pop r29
 10913 4460 CF91      		pop r28
 10914 4462 0895      		ret
 10915               	.LVL786:
 10916               	.L790:
 10917               	.LM519:
 10918 4464 C0E0      		ldi r28,lo8(fat_file_handles+2)
 10919 4466 D0E0      		ldi r29,hi8(fat_file_handles+2)
 10920 4468 FD01      		movw r30,r26
 10921 446a 81E3      		ldi r24,lo8(49)
 10922               	.LVL787:
 10923               	.L785:
 10924 446c 0190      		ld r0,Z+
 10925 446e 0992      		st Y+,r0
 10926 4470 8150      		subi r24,lo8(-(-1))
 10927 4472 01F4      		brne .L785
 10928               	.LM520:
 10929 4474 3093 0000 		sts (fat_file_handles)+1,r19
 10930 4478 2093 0000 		sts fat_file_handles,r18
 10931               	.LM521:
 10932 447c 1092 0000 		sts fat_file_handles+51,__zero_reg__
 10933 4480 1092 0000 		sts fat_file_handles+52,__zero_reg__
 10934 4484 1092 0000 		sts fat_file_handles+53,__zero_reg__
 10935 4488 1092 0000 		sts fat_file_handles+54,__zero_reg__
 10936 448c 1092 0000 		sts fat_file_handles+55,__zero_reg__
 10937 4490 1092 0000 		sts fat_file_handles+56,__zero_reg__
 10938 4494 1092 0000 		sts fat_file_handles+57,__zero_reg__
 10939 4498 1092 0000 		sts fat_file_handles+58,__zero_reg__
 10940               	.LM522:
 10941 449c 9196      		adiw r26,33
 10942 449e 8D91      		ld r24,X+
 10943 44a0 9D91      		ld r25,X+
 10944 44a2 0D90      		ld __tmp_reg__,X+
 10945 44a4 BC91      		ld r27,X
 10946 44a6 A02D      		mov r26,__tmp_reg__
 10947 44a8 8093 0000 		sts fat_file_handles+59,r24
 10948 44ac 9093 0000 		sts (fat_file_handles+59)+1,r25
 10949 44b0 A093 0000 		sts (fat_file_handles+59)+2,r26
 10950 44b4 B093 0000 		sts (fat_file_handles+59)+3,r27
 10951 44b8 20E0      		ldi r18,lo8(fat_file_handles)
 10952 44ba 30E0      		ldi r19,hi8(fat_file_handles)
 10953               	.LVL788:
 10954 44bc 00C0      		rjmp .L786
 10955               	.LVL789:
 10956               	.L784:
 10957               	.LM523:
 10958 44be 8091 0000 		lds r24,fat_file_handles
 10959 44c2 9091 0000 		lds r25,(fat_file_handles)+1
 10960 44c6 892B      		or r24,r25
 10961 44c8 01F4      		brne .L783
 10962 44ca 00C0      		rjmp .L790
 10963               	.LFE13:
 10965               	.global	fat_get_dir_entry_of_path
 10967               	fat_get_dir_entry_of_path:
 10968               	.LFB12:
 10969               	.LM524:
 10970               	.LVL790:
 10971 44cc 6F92      		push r6
 10972 44ce 7F92      		push r7
 10973 44d0 8F92      		push r8
 10974 44d2 9F92      		push r9
 10975 44d4 AF92      		push r10
 10976 44d6 BF92      		push r11
 10977 44d8 CF92      		push r12
 10978 44da DF92      		push r13
 10979 44dc EF92      		push r14
 10980 44de FF92      		push r15
 10981 44e0 0F93      		push r16
 10982 44e2 1F93      		push r17
 10983 44e4 CF93      		push r28
 10984 44e6 DF93      		push r29
 10985               	/* prologue: function */
 10986               	/* frame size = 0 */
 10987 44e8 4C01      		movw r8,r24
 10988 44ea EB01      		movw r28,r22
 10989 44ec 7A01      		movw r14,r20
 10990               	.LM525:
 10991 44ee 0097      		sbiw r24,0
 10992 44f0 01F4      		brne .+2
 10993 44f2 00C0      		rjmp .L792
 10994               	.LVL791:
 10995 44f4 6115      		cp r22,__zero_reg__
 10996 44f6 7105      		cpc r23,__zero_reg__
 10997 44f8 01F4      		brne .+2
 10998 44fa 00C0      		rjmp .L792
 10999               	.LVL792:
 11000 44fc 8881      		ld r24,Y
 11001               	.LVL793:
 11002 44fe 8823      		tst r24
 11003 4500 01F4      		brne .+2
 11004 4502 00C0      		rjmp .L792
 11005               	.LVL794:
 11006 4504 4115      		cp r20,__zero_reg__
 11007 4506 5105      		cpc r21,__zero_reg__
 11008 4508 01F4      		brne .+2
 11009 450a 00C0      		rjmp .L792
 11010               	.LVL795:
 11011               	.LM526:
 11012 450c 8F32      		cpi r24,lo8(47)
 11013 450e 01F4      		brne .L793
 11014               	.LM527:
 11015 4510 2196      		adiw r28,1
 11016               	.LVL796:
 11017               	.L793:
 11018               	.LM528:
 11019 4512 81E3      		ldi r24,lo8(49)
 11020 4514 F701      		movw r30,r14
 11021 4516 1192      		st Z+,__zero_reg__
 11022 4518 8A95      	        dec r24
 11023 451a 01F4      		brne .-6
 11024               	.LM529:
 11025 451c 80E1      		ldi r24,lo8(16)
 11026 451e F701      		movw r30,r14
 11027 4520 80A3      		std Z+32,r24
 11028               	.LBB106:
 11029               	.LM530:
 11030 4522 3701      		movw r6,r14
 11031 4524 00C0      		rjmp .L806
 11032               	.LVL797:
 11033               	.L798:
 11034 4526 E501      		movw r28,r10
 11035               	.LVL798:
 11036               	.L806:
 11037               	.LM531:
 11038 4528 8881      		ld r24,Y
 11039 452a 8823      		tst r24
 11040 452c 01F4      		brne .+2
 11041 452e 00C0      		rjmp .L795
 11042               	.LM532:
 11043 4530 C401      		movw r24,r8
 11044 4532 B701      		movw r22,r14
 11045 4534 0E94 0000 		call fat_open_dir
 11046 4538 6C01      		movw r12,r24
 11047               	.LM533:
 11048 453a 0097      		sbiw r24,0
 11049 453c 01F4      		brne .+2
 11050 453e 00C0      		rjmp .L792
 11051               	.LVL799:
 11052               	.LM534:
 11053 4540 CE01      		movw r24,r28
 11054               	.LVL800:
 11055 4542 6FE2      		ldi r22,lo8(47)
 11056 4544 70E0      		ldi r23,hi8(47)
 11057 4546 0E94 0000 		call strchr
 11058               	.LM535:
 11059 454a 0097      		sbiw r24,0
 11060 454c 01F0      		breq .L796
 11061               	.LVL801:
 11062               	.LM536:
 11063 454e 482F      		mov r20,r24
 11064               	.LVL802:
 11065 4550 4C1B      		sub r20,r28
 11066               	.LM537:
 11067 4552 5C01      		movw r10,r24
 11068 4554 0894      		sec
 11069 4556 A11C      		adc r10,__zero_reg__
 11070 4558 B11C      		adc r11,__zero_reg__
 11071 455a 00C0      		rjmp .L807
 11072               	.LVL803:
 11073               	.L796:
 11074               	.LM538:
 11075 455c FE01      		movw r30,r28
 11076 455e 0190      		ld __tmp_reg__,Z+
 11077 4560 0020      		tst __tmp_reg__
 11078 4562 01F4      		brne .-6
 11079 4564 3197      		sbiw r30,1
 11080 4566 4E2F      		mov r20,r30
 11081               	.LVL804:
 11082 4568 4C1B      		sub r20,r28
 11083               	.LM539:
 11084 456a 5E01      		movw r10,r28
 11085               	.LVL805:
 11086 456c A40E      		add r10,r20
 11087 456e B11C      		adc r11,__zero_reg__
 11088 4570 00C0      		rjmp .L807
 11089               	.LVL806:
 11090               	.L799:
 11091               	.LM540:
 11092 4572 F301      		movw r30,r6
 11093 4574 0190      		ld __tmp_reg__,Z+
 11094 4576 0020      		tst __tmp_reg__
 11095 4578 01F4      		brne .-6
 11096 457a 3197      		sbiw r30,1
 11097 457c E619      		sub r30,r6
 11098 457e F709      		sbc r31,r7
 11099 4580 E017      		cp r30,r16
 11100 4582 F107      		cpc r31,r17
 11101 4584 01F4      		brne .L805
 11102 4586 CE01      		movw r24,r28
 11103 4588 B301      		movw r22,r6
 11104 458a A801      		movw r20,r16
 11105               	.LVL807:
 11106 458c 0E94 0000 		call strncmp
 11107 4590 0097      		sbiw r24,0
 11108 4592 01F4      		brne .L805
 11109               	.LBB107:
 11110               	.LBB108:
 11111               	.LM541:
 11112 4594 F601      		movw r30,r12
 11113 4596 1182      		std Z+1,__zero_reg__
 11114 4598 1082      		st Z,__zero_reg__
 11115               	.LBE108:
 11116               	.LBE107:
 11117               	.LM542:
 11118 459a 0C0F      		add r16,r28
 11119 459c 1D1F      		adc r17,r29
 11120               	.LVL808:
 11121 459e F801      		movw r30,r16
 11122 45a0 8081      		ld r24,Z
 11123 45a2 8823      		tst r24
 11124 45a4 01F0      		breq .L795
 11125               	.LM543:
 11126 45a6 F701      		movw r30,r14
 11127 45a8 80A1      		ldd r24,Z+32
 11128 45aa 84FD      		sbrc r24,4
 11129 45ac 00C0      		rjmp .L798
 11130 45ae 00C0      		rjmp .L792
 11131               	.LVL809:
 11132               	.L807:
 11133               	.LM544:
 11134 45b0 042F      		mov r16,r20
 11135 45b2 10E0      		ldi r17,lo8(0)
 11136               	.LVL810:
 11137               	.L805:
 11138               	.LM545:
 11139 45b4 C601      		movw r24,r12
 11140 45b6 B701      		movw r22,r14
 11141 45b8 0E94 0000 		call fat_read_dir
 11142 45bc 8823      		tst r24
 11143 45be 01F4      		brne .L799
 11144 45c0 00C0      		rjmp .L809
 11145               	.LVL811:
 11146               	.L792:
 11147 45c2 80E0      		ldi r24,lo8(0)
 11148 45c4 00C0      		rjmp .L801
 11149               	.L795:
 11150 45c6 81E0      		ldi r24,lo8(1)
 11151               	.L801:
 11152               	/* epilogue start */
 11153               	.LBE106:
 11154               	.LM546:
 11155 45c8 DF91      		pop r29
 11156 45ca CF91      		pop r28
 11157               	.LVL812:
 11158 45cc 1F91      		pop r17
 11159               	.LVL813:
 11160 45ce 0F91      		pop r16
 11161               	.LVL814:
 11162 45d0 FF90      		pop r15
 11163 45d2 EF90      		pop r14
 11164               	.LVL815:
 11165 45d4 DF90      		pop r13
 11166 45d6 CF90      		pop r12
 11167               	.LVL816:
 11168 45d8 BF90      		pop r11
 11169 45da AF90      		pop r10
 11170               	.LVL817:
 11171 45dc 9F90      		pop r9
 11172 45de 8F90      		pop r8
 11173               	.LVL818:
 11174 45e0 7F90      		pop r7
 11175 45e2 6F90      		pop r6
 11176 45e4 0895      		ret
 11177               	.LVL819:
 11178               	.L809:
 11179               	.LBB111:
 11180               	.LBB109:
 11181               	.LBB110:
 11182               	.LM547:
 11183 45e6 F601      		movw r30,r12
 11184 45e8 1182      		std Z+1,__zero_reg__
 11185 45ea 1082      		st Z,__zero_reg__
 11186 45ec 00C0      		rjmp .L806
 11187               	.LBE110:
 11188               	.LBE109:
 11189               	.LBE111:
 11190               	.LFE12:
 11192               		.data
 11195               	char_mapping.2084:
 11196 0000 01        		.byte	1
 11197 0001 03        		.byte	3
 11198 0002 05        		.byte	5
 11199 0003 07        		.byte	7
 11200 0004 09        		.byte	9
 11201 0005 0E        		.byte	14
 11202 0006 10        		.byte	16
 11203 0007 12        		.byte	18
 11204 0008 14        		.byte	20
 11205 0009 16        		.byte	22
 11206 000a 18        		.byte	24
 11207 000b 1C        		.byte	28
 11208 000c 1E        		.byte	30
 11209               		.lcomm fat_fs_handles,46
 11210               		.lcomm fat_file_handles,63
 11211               		.lcomm fat_dir_handles,114
 11460               	.Letext0:
DEFINED SYMBOLS
                            *ABS*:00000000 fat.c
C:/DOCUME~1/Magnus/LOCALS~1/Temp/ccpX9vkL.s:2      *ABS*:0000003f __SREG__
C:/DOCUME~1/Magnus/LOCALS~1/Temp/ccpX9vkL.s:3      *ABS*:0000003e __SP_H__
C:/DOCUME~1/Magnus/LOCALS~1/Temp/ccpX9vkL.s:4      *ABS*:0000003d __SP_L__
C:/DOCUME~1/Magnus/LOCALS~1/Temp/ccpX9vkL.s:5      *ABS*:00000034 __CCP__
C:/DOCUME~1/Magnus/LOCALS~1/Temp/ccpX9vkL.s:6      *ABS*:00000000 __tmp_reg__
C:/DOCUME~1/Magnus/LOCALS~1/Temp/ccpX9vkL.s:7      *ABS*:00000001 __zero_reg__
C:/DOCUME~1/Magnus/LOCALS~1/Temp/ccpX9vkL.s:18     .text:00000000 fat_close
C:/DOCUME~1/Magnus/LOCALS~1/Temp/ccpX9vkL.s:37     .text:0000000c fat_get_next_cluster
C:/DOCUME~1/Magnus/LOCALS~1/Temp/ccpX9vkL.s:383    .text:00000248 fat_free_clusters
C:/DOCUME~1/Magnus/LOCALS~1/Temp/ccpX9vkL.s:918    .text:000005c0 fat_append_clusters
C:/DOCUME~1/Magnus/LOCALS~1/Temp/ccpX9vkL.s:1884   .text:00000c1a fat_clear_cluster_callback
C:/DOCUME~1/Magnus/LOCALS~1/Temp/ccpX9vkL.s:1900   .text:00000c20 fat_close_file
C:/DOCUME~1/Magnus/LOCALS~1/Temp/ccpX9vkL.s:1920   .text:00000c2c fat_read_file
C:/DOCUME~1/Magnus/LOCALS~1/Temp/ccpX9vkL.s:3009   .text:000012ec fat_close_dir
C:/DOCUME~1/Magnus/LOCALS~1/Temp/ccpX9vkL.s:3029   .text:000012f8 fat_reset_dir
C:/DOCUME~1/Magnus/LOCALS~1/Temp/ccpX9vkL.s:3063   .text:0000131a fat_dir_entry_read_callback
C:/DOCUME~1/Magnus/LOCALS~1/Temp/ccpX9vkL.s:11195  .data:00000000 char_mapping.2084
C:/DOCUME~1/Magnus/LOCALS~1/Temp/ccpX9vkL.s:3412   .text:000014f2 fat_delete_file
C:/DOCUME~1/Magnus/LOCALS~1/Temp/ccpX9vkL.s:3688   .text:0000169c fat_get_fs_size
C:/DOCUME~1/Magnus/LOCALS~1/Temp/ccpX9vkL.s:3805   .text:00001756 fat_get_fs_free
C:/DOCUME~1/Magnus/LOCALS~1/Temp/ccpX9vkL.s:4257   .text:00001a10 fat_get_fs_free_32_callback
C:/DOCUME~1/Magnus/LOCALS~1/Temp/ccpX9vkL.s:4190   .text:000019c4 fat_get_fs_free_16_callback
C:/DOCUME~1/Magnus/LOCALS~1/Temp/ccpX9vkL.s:4329   .text:00001a64 fat_clear_handles
                             .bss:00000000 fat_fs_handles
C:/DOCUME~1/Magnus/LOCALS~1/Temp/ccpX9vkL.s:11209  .bss:0000002e fat_file_handles
C:/DOCUME~1/Magnus/LOCALS~1/Temp/ccpX9vkL.s:11210  .bss:0000006d fat_dir_handles
C:/DOCUME~1/Magnus/LOCALS~1/Temp/ccpX9vkL.s:4364   .text:00001a90 fat_clear_cluster
C:/DOCUME~1/Magnus/LOCALS~1/Temp/ccpX9vkL.s:4642   .text:00001c4c fat_read_dir
C:/DOCUME~1/Magnus/LOCALS~1/Temp/ccpX9vkL.s:5137   .text:00001f7e fat_open
C:/DOCUME~1/Magnus/LOCALS~1/Temp/ccpX9vkL.s:6297   .text:000027c0 fat_find_offset_for_dir_entry
C:/DOCUME~1/Magnus/LOCALS~1/Temp/ccpX9vkL.s:7293   .text:00002e16 fat_write_dir_entry
C:/DOCUME~1/Magnus/LOCALS~1/Temp/ccpX9vkL.s:7969   .text:000031ee fat_create_dir
C:/DOCUME~1/Magnus/LOCALS~1/Temp/ccpX9vkL.s:8531   .text:000035c0 fat_create_file
C:/DOCUME~1/Magnus/LOCALS~1/Temp/ccpX9vkL.s:8681   .text:000036a0 fat_resize_file
C:/DOCUME~1/Magnus/LOCALS~1/Temp/ccpX9vkL.s:9423   .text:00003b50 fat_seek_file
C:/DOCUME~1/Magnus/LOCALS~1/Temp/ccpX9vkL.s:9580   .text:00003c20 fat_write_file
C:/DOCUME~1/Magnus/LOCALS~1/Temp/ccpX9vkL.s:10782  .text:000043ba fat_open_dir
C:/DOCUME~1/Magnus/LOCALS~1/Temp/ccpX9vkL.s:10878  .text:0000443c fat_open_file
C:/DOCUME~1/Magnus/LOCALS~1/Temp/ccpX9vkL.s:10967  .text:000044cc fat_get_dir_entry_of_path

UNDEFINED SYMBOLS
__muldi3
__ashldi3
__mulsi3
__udivmodhi4
__udivmodsi4
__divmodhi4
memset
strrchr
memcpy
strcmp
strncpy
strchr
strncmp
__do_copy_data
__do_clear_bss
