   1               		.file	"main.c"
   2               	__SREG__ = 0x3f
   3               	__SP_H__ = 0x3e
   4               	__SP_L__ = 0x3d
   5               	__CCP__  = 0x34
   6               	__tmp_reg__ = 0
   7               	__zero_reg__ = 1
  15               	.Ltext0:
  16               	.global	__vector_20
  18               	__vector_20:
  19               	.LFB3:
  20               	.LM1:
  21 0000 1F92      		push __zero_reg__
  22 0002 0F92      		push r0
  23 0004 0FB6      		in r0,__SREG__
  24 0006 0F92      		push r0
  25 0008 1124      		clr __zero_reg__
  26 000a 2F93      		push r18
  27 000c 8F93      		push r24
  28 000e 9F93      		push r25
  29 0010 EF93      		push r30
  30 0012 FF93      		push r31
  31               	/* prologue: Signal */
  32               	/* frame size = 0 */
  33               	.LM2:
  34 0014 E091 0000 		lds r30,read_spot
  35 0018 F091 0000 		lds r31,(read_spot)+1
  36 001c 8091 C600 		lds r24,198
  37 0020 E050      		subi r30,lo8(-(input_buffer))
  38 0022 F040      		sbci r31,hi8(-(input_buffer))
  39 0024 8083      		st Z,r24
  40               	.LM3:
  41 0026 8091 0000 		lds r24,read_spot
  42 002a 9091 0000 		lds r25,(read_spot)+1
  43 002e 0196      		adiw r24,1
  44 0030 9093 0000 		sts (read_spot)+1,r25
  45 0034 8093 0000 		sts read_spot,r24
  46               	.LM4:
  47 0038 85B1      		in r24,37-32
  48 003a 91E0      		ldi r25,lo8(1)
  49 003c 8927      		eor r24,r25
  50 003e 85B9      		out 37-32,r24
  51               	.LM5:
  52 0040 8091 0000 		lds r24,read_spot
  53 0044 9091 0000 		lds r25,(read_spot)+1
  54 0048 8050      		subi r24,lo8(2048)
  55 004a 9840      		sbci r25,hi8(2048)
  56 004c 01F4      		brne .L3
  57 004e 1092 0000 		sts (read_spot)+1,__zero_reg__
  58 0052 1092 0000 		sts read_spot,__zero_reg__
  59               	.L3:
  60               	/* epilogue start */
  61               	.LM6:
  62 0056 FF91      		pop r31
  63 0058 EF91      		pop r30
  64 005a 9F91      		pop r25
  65 005c 8F91      		pop r24
  66 005e 2F91      		pop r18
  67 0060 0F90      		pop r0
  68 0062 0FBE      		out __SREG__,r0
  69 0064 0F90      		pop r0
  70 0066 1F90      		pop __zero_reg__
  71 0068 1895      		reti
  72               	.LFE3:
  74               	.global	set_default_settings
  76               	set_default_settings:
  77               	.LFB8:
  78               	.LM7:
  79               	/* prologue: function */
  80               	/* frame size = 0 */
  81               	.L5:
  82               	.LBB246:
  83               	.LBB247:
  84               	.LM8:
  85 006a F999      		sbic 63-32,1
  86 006c 00C0      		rjmp .L5
  87               	.LM9:
  88 006e 12BC      		out 66-32,__zero_reg__
  89               	.LM10:
  90 0070 81E0      		ldi r24,lo8(1)
  91 0072 81BD      		out 65-32,r24
  92               	.LM11:
  93 0074 80BD      		out 64-32,r24
  94               	.LM12:
  95 0076 FA9A      		sbi 63-32,2
  96               	.LM13:
  97 0078 F99A      		sbi 63-32,1
  98               	.L6:
  99               	.LBE247:
 100               	.LBE246:
 101               	.LBB248:
 102               	.LBB249:
 103               	.LM14:
 104 007a F999      		sbic 63-32,1
 105 007c 00C0      		rjmp .L6
 106               	.LM15:
 107 007e 12BC      		out 66-32,__zero_reg__
 108               	.LM16:
 109 0080 82E0      		ldi r24,lo8(2)
 110 0082 81BD      		out 65-32,r24
 111               	.LM17:
 112 0084 10BC      		out 64-32,__zero_reg__
 113               	.LM18:
 114 0086 FA9A      		sbi 63-32,2
 115               	.LM19:
 116 0088 F99A      		sbi 63-32,1
 117               	.L7:
 118               	.LBE249:
 119               	.LBE248:
 120               	.LBB250:
 121               	.LBB251:
 122               	.LM20:
 123 008a F999      		sbic 63-32,1
 124 008c 00C0      		rjmp .L7
 125               	.LM21:
 126 008e 12BC      		out 66-32,__zero_reg__
 127               	.LM22:
 128 0090 85E0      		ldi r24,lo8(5)
 129 0092 81BD      		out 65-32,r24
 130               	.LM23:
 131 0094 8AE1      		ldi r24,lo8(26)
 132 0096 80BD      		out 64-32,r24
 133               	.LM24:
 134 0098 FA9A      		sbi 63-32,2
 135               	.LM25:
 136 009a F99A      		sbi 63-32,1
 137               	.L8:
 138               	.LBE251:
 139               	.LBE250:
 140               	.LBB252:
 141               	.LBB253:
 142               	.LM26:
 143 009c F999      		sbic 63-32,1
 144 009e 00C0      		rjmp .L8
 145               	.LM27:
 146 00a0 12BC      		out 66-32,__zero_reg__
 147               	.LM28:
 148 00a2 86E0      		ldi r24,lo8(6)
 149 00a4 81BD      		out 65-32,r24
 150               	.LM29:
 151 00a6 83E0      		ldi r24,lo8(3)
 152 00a8 80BD      		out 64-32,r24
 153               	.LM30:
 154 00aa FA9A      		sbi 63-32,2
 155               	.LM31:
 156 00ac F99A      		sbi 63-32,1
 157               	/* epilogue start */
 158               	.LBE253:
 159               	.LBE252:
 160               	.LM32:
 161 00ae 0895      		ret
 162               	.LFE8:
 164               	.global	read_system_settings
 166               	read_system_settings:
 167               	.LFB9:
 168               	.LM33:
 169               	/* prologue: function */
 170               	/* frame size = 0 */
 171               	.L15:
 172               	.LBB254:
 173               	.LBB255:
 174               	.LM34:
 175 00b0 F999      		sbic 63-32,1
 176 00b2 00C0      		rjmp .L15
 177               	.LM35:
 178 00b4 12BC      		out 66-32,__zero_reg__
 179               	.LM36:
 180 00b6 91E0      		ldi r25,lo8(1)
 181 00b8 91BD      		out 65-32,r25
 182               	.LM37:
 183 00ba F89A      		sbi 63-32,0
 184               	.LM38:
 185 00bc 80B5      		in r24,64-32
 186               	.LBE255:
 187               	.LBE254:
 188               	.LM39:
 189 00be 8093 0000 		sts setting_uart_speed,r24
 190               	.LM40:
 191 00c2 8B30      		cpi r24,lo8(11)
 192 00c4 00F0      		brlo .L27
 193               	.LM41:
 194 00c6 9093 0000 		sts setting_uart_speed,r25
 195               	.L17:
 196               	.LBB256:
 197               	.LBB257:
 198               	.LM42:
 199 00ca F999      		sbic 63-32,1
 200 00cc 00C0      		rjmp .L17
 201               	.LM43:
 202 00ce 12BC      		out 66-32,__zero_reg__
 203               	.LM44:
 204 00d0 81E0      		ldi r24,lo8(1)
 205 00d2 81BD      		out 65-32,r24
 206               	.LM45:
 207 00d4 80BD      		out 64-32,r24
 208               	.LM46:
 209 00d6 FA9A      		sbi 63-32,2
 210               	.LM47:
 211 00d8 F99A      		sbi 63-32,1
 212               	.L27:
 213               	.LBE257:
 214               	.LBE256:
 215               	.LBB258:
 216               	.LBB259:
 217               	.LM48:
 218 00da F999      		sbic 63-32,1
 219 00dc 00C0      		rjmp .L27
 220               	.LM49:
 221 00de 12BC      		out 66-32,__zero_reg__
 222               	.LM50:
 223 00e0 82E0      		ldi r24,lo8(2)
 224 00e2 81BD      		out 65-32,r24
 225               	.LM51:
 226 00e4 F89A      		sbi 63-32,0
 227               	.LM52:
 228 00e6 80B5      		in r24,64-32
 229               	.LBE259:
 230               	.LBE258:
 231               	.LM53:
 232 00e8 8093 0000 		sts setting_system_mode,r24
 233               	.LM54:
 234 00ec 8630      		cpi r24,lo8(6)
 235 00ee 00F0      		brlo .L26
 236               	.LM55:
 237 00f0 1092 0000 		sts setting_system_mode,__zero_reg__
 238               	.L19:
 239               	.LBB260:
 240               	.LBB261:
 241               	.LM56:
 242 00f4 F999      		sbic 63-32,1
 243 00f6 00C0      		rjmp .L19
 244               	.LM57:
 245 00f8 12BC      		out 66-32,__zero_reg__
 246               	.LM58:
 247 00fa 82E0      		ldi r24,lo8(2)
 248 00fc 81BD      		out 65-32,r24
 249               	.LM59:
 250 00fe 10BC      		out 64-32,__zero_reg__
 251               	.LM60:
 252 0100 FA9A      		sbi 63-32,2
 253               	.LM61:
 254 0102 F99A      		sbi 63-32,1
 255               	.L26:
 256               	.LBE261:
 257               	.LBE260:
 258               	.LBB262:
 259               	.LBB263:
 260               	.LM62:
 261 0104 F999      		sbic 63-32,1
 262 0106 00C0      		rjmp .L26
 263               	.LM63:
 264 0108 12BC      		out 66-32,__zero_reg__
 265               	.LM64:
 266 010a 85E0      		ldi r24,lo8(5)
 267 010c 81BD      		out 65-32,r24
 268               	.LM65:
 269 010e F89A      		sbi 63-32,0
 270               	.LM66:
 271 0110 80B5      		in r24,64-32
 272               	.LBE263:
 273               	.LBE262:
 274               	.LM67:
 275 0112 8093 0000 		sts setting_escape_character,r24
 276               	.LM68:
 277 0116 8150      		subi r24,lo8(-(-1))
 278 0118 8E3F      		cpi r24,lo8(-2)
 279 011a 00F0      		brlo .L25
 280               	.LM69:
 281 011c 8AE1      		ldi r24,lo8(26)
 282 011e 8093 0000 		sts setting_escape_character,r24
 283               	.L21:
 284               	.LBB264:
 285               	.LBB265:
 286               	.LM70:
 287 0122 F999      		sbic 63-32,1
 288 0124 00C0      		rjmp .L21
 289               	.LM71:
 290 0126 12BC      		out 66-32,__zero_reg__
 291               	.LM72:
 292 0128 85E0      		ldi r24,lo8(5)
 293 012a 81BD      		out 65-32,r24
 294               	.LM73:
 295 012c 8AE1      		ldi r24,lo8(26)
 296 012e 80BD      		out 64-32,r24
 297               	.LM74:
 298 0130 FA9A      		sbi 63-32,2
 299               	.LM75:
 300 0132 F99A      		sbi 63-32,1
 301               	.L25:
 302               	.LBE265:
 303               	.LBE264:
 304               	.LBB266:
 305               	.LBB267:
 306               	.LM76:
 307 0134 F999      		sbic 63-32,1
 308 0136 00C0      		rjmp .L25
 309               	.LM77:
 310 0138 12BC      		out 66-32,__zero_reg__
 311               	.LM78:
 312 013a 86E0      		ldi r24,lo8(6)
 313 013c 81BD      		out 65-32,r24
 314               	.LM79:
 315 013e F89A      		sbi 63-32,0
 316               	.LM80:
 317 0140 80B5      		in r24,64-32
 318               	.LBE267:
 319               	.LBE266:
 320               	.LM81:
 321 0142 8093 0000 		sts setting_max_escape_character,r24
 322               	.LM82:
 323 0146 8150      		subi r24,lo8(-(-1))
 324 0148 8E3F      		cpi r24,lo8(-2)
 325 014a 00F0      		brlo .L24
 326               	.LM83:
 327 014c 83E0      		ldi r24,lo8(3)
 328 014e 8093 0000 		sts setting_max_escape_character,r24
 329               	.L23:
 330               	.LBB268:
 331               	.LBB269:
 332               	.LM84:
 333 0152 F999      		sbic 63-32,1
 334 0154 00C0      		rjmp .L23
 335               	.LM85:
 336 0156 12BC      		out 66-32,__zero_reg__
 337               	.LM86:
 338 0158 86E0      		ldi r24,lo8(6)
 339 015a 81BD      		out 65-32,r24
 340               	.LM87:
 341 015c 83E0      		ldi r24,lo8(3)
 342 015e 80BD      		out 64-32,r24
 343               	.LM88:
 344 0160 FA9A      		sbi 63-32,2
 345               	.LM89:
 346 0162 F99A      		sbi 63-32,1
 347               	.L24:
 348 0164 0895      		ret
 349               	.LBE269:
 350               	.LBE268:
 351               	.LFE9:
 353               	.global	EEPROM_write
 355               	EEPROM_write:
 356               	.LFB17:
 357               	.LM90:
 358               	/* prologue: function */
 359               	/* frame size = 0 */
 360               	.LVL0:
 361               	.L37:
 362               	.LM91:
 363 0166 F999      		sbic 63-32,1
 364 0168 00C0      		rjmp .L37
 365               	.LM92:
 366 016a 92BD      		out 66-32,r25
 367               	.LVL1:
 368               	.LM93:
 369 016c 81BD      		out 65-32,r24
 370               	.LM94:
 371 016e 60BD      		out 64-32,r22
 372               	.LM95:
 373 0170 FA9A      		sbi 63-32,2
 374               	.LM96:
 375 0172 F99A      		sbi 63-32,1
 376               	/* epilogue start */
 377               	.LM97:
 378 0174 0895      		ret
 379               	.LFE17:
 381               	.global	EEPROM_read
 383               	EEPROM_read:
 384               	.LFB18:
 385               	.LM98:
 386               	/* prologue: function */
 387               	/* frame size = 0 */
 388               	.LVL2:
 389               	.L41:
 390               	.LM99:
 391 0176 F999      		sbic 63-32,1
 392 0178 00C0      		rjmp .L41
 393               	.LM100:
 394 017a 92BD      		out 66-32,r25
 395               	.LVL3:
 396               	.LM101:
 397 017c 81BD      		out 65-32,r24
 398               	.LM102:
 399 017e F89A      		sbi 63-32,0
 400               	.LM103:
 401 0180 80B5      		in r24,64-32
 402               	.LVL4:
 403               	/* epilogue start */
 404               	.LM104:
 405 0182 0895      		ret
 406               	.LFE18:
 408               	.global	delay_us
 410               	delay_us:
 411               	.LFB20:
 412               	.LM105:
 413               	.LVL5:
 414               	/* prologue: function */
 415               	/* frame size = 0 */
 416               	.LM106:
 417 0184 9C01      		movw r18,r24
 418 0186 220F      		lsl r18
 419 0188 331F      		rol r19
 420               	.LVL6:
 421               	.LM107:
 422 018a 91E0      		ldi r25,lo8(1)
 423               	.LM108:
 424 018c 84E1      		ldi r24,lo8(20)
 425 018e 00C0      		rjmp .L45
 426               	.L47:
 427               	.LM109:
 428 0190 95BB      		out 53-32,r25
 429               	.LM110:
 430 0192 86BD      		out 70-32,r24
 431               	.L46:
 432               	.LM111:
 433 0194 A89B      		sbis 53-32,0
 434 0196 00C0      		rjmp .L46
 435               	.LM112:
 436 0198 2050      		subi r18,lo8(-(-256))
 437 019a 3140      		sbci r19,hi8(-(-256))
 438               	.L45:
 439               	.LM113:
 440 019c 41E0      		ldi r20,hi8(257)
 441 019e 2130      		cpi r18,lo8(257)
 442 01a0 3407      		cpc r19,r20
 443 01a2 00F4      		brsh .L47
 444               	.LM114:
 445 01a4 81E0      		ldi r24,lo8(1)
 446 01a6 85BB      		out 53-32,r24
 447               	.LM115:
 448 01a8 822F      		mov r24,r18
 449               	.LVL7:
 450 01aa 8195      		neg r24
 451 01ac 86BD      		out 70-32,r24
 452               	.L48:
 453               	.LM116:
 454 01ae A89B      		sbis 53-32,0
 455 01b0 00C0      		rjmp .L48
 456               	/* epilogue start */
 457               	.LM117:
 458 01b2 0895      		ret
 459               	.LFE20:
 461               	.global	delay_ms
 463               	delay_ms:
 464               	.LFB21:
 465               	.LM118:
 466               	.LVL8:
 467 01b4 CF93      		push r28
 468 01b6 DF93      		push r29
 469               	/* prologue: function */
 470               	/* frame size = 0 */
 471 01b8 EC01      		movw r28,r24
 472 01ba 00C0      		rjmp .L53
 473               	.LVL9:
 474               	.L54:
 475               	.LM119:
 476 01bc 88EE      		ldi r24,lo8(1000)
 477 01be 93E0      		ldi r25,hi8(1000)
 478 01c0 0E94 0000 		call delay_us
 479               	.LM120:
 480 01c4 2197      		sbiw r28,1
 481               	.LVL10:
 482               	.L53:
 483 01c6 2097      		sbiw r28,0
 484 01c8 01F4      		brne .L54
 485               	/* epilogue start */
 486               	.LM121:
 487 01ca DF91      		pop r29
 488 01cc CF91      		pop r28
 489               	.LVL11:
 490 01ce 0895      		ret
 491               	.LFE21:
 493               	.global	blink_error
 495               	blink_error:
 496               	.LFB19:
 497               	.LM122:
 498               	.LVL12:
 499 01d0 0F93      		push r16
 500 01d2 1F93      		push r17
 501 01d4 CF93      		push r28
 502 01d6 DF93      		push r29
 503               	/* prologue: function */
 504               	/* frame size = 0 */
 505               	.LM123:
 506 01d8 C0E0      		ldi r28,lo8(0)
 507 01da D0E0      		ldi r29,hi8(0)
 508               	.LVL13:
 509               	.LBB270:
 510               	.LM124:
 511 01dc 082F      		mov r16,r24
 512 01de 10E0      		ldi r17,lo8(0)
 513               	.LVL14:
 514 01e0 00C0      		rjmp .L60
 515               	.LVL15:
 516               	.L58:
 517               	.LM125:
 518 01e2 289A      		sbi 37-32,0
 519               	.LM126:
 520 01e4 84E6      		ldi r24,lo8(100)
 521 01e6 90E0      		ldi r25,hi8(100)
 522 01e8 0E94 0000 		call delay_ms
 523               	.LM127:
 524 01ec 2898      		cbi 37-32,0
 525               	.LM128:
 526 01ee 84E6      		ldi r24,lo8(100)
 527 01f0 90E0      		ldi r25,hi8(100)
 528 01f2 0E94 0000 		call delay_ms
 529               	.LM129:
 530 01f6 2196      		adiw r28,1
 531               	.LVL16:
 532               	.L60:
 533 01f8 C017      		cp r28,r16
 534 01fa D107      		cpc r29,r17
 535 01fc 04F0      		brlt .L58
 536               	.LBE270:
 537               	.LM130:
 538 01fe 80ED      		ldi r24,lo8(2000)
 539 0200 97E0      		ldi r25,hi8(2000)
 540 0202 0E94 0000 		call delay_ms
 541 0206 C0E0      		ldi r28,lo8(0)
 542 0208 D0E0      		ldi r29,hi8(0)
 543 020a 00C0      		rjmp .L60
 544               	.LFE19:
 546               	.global	check_emergency_reset
 548               	check_emergency_reset:
 549               	.LFB10:
 550               	.LM131:
 551 020c FF92      		push r15
 552 020e 0F93      		push r16
 553 0210 1F93      		push r17
 554               	/* prologue: function */
 555               	/* frame size = 0 */
 556               	.LM132:
 557 0212 5098      		cbi 42-32,0
 558               	.LM133:
 559 0214 589A      		sbi 43-32,0
 560               	.LM134:
 561 0216 4899      		sbic 41-32,0
 562 0218 00C0      		rjmp .L62
 563               	.LM135:
 564 021a 299A      		sbi 37-32,1
 565 021c 10E0      		ldi r17,lo8(0)
 566               	.LVL17:
 567               	.LBB271:
 568               	.LM136:
 569 021e FF24      		clr r15
 570 0220 F394      		inc r15
 571               	.LM137:
 572 0222 02E0      		ldi r16,lo8(2)
 573               	.L63:
 574               	.LM138:
 575 0224 89E1      		ldi r24,lo8(25)
 576 0226 90E0      		ldi r25,hi8(25)
 577 0228 0E94 0000 		call delay_ms
 578               	.LM139:
 579 022c 85B1      		in r24,37-32
 580 022e 8F25      		eor r24,r15
 581 0230 85B9      		out 37-32,r24
 582               	.LM140:
 583 0232 4899      		sbic 41-32,0
 584 0234 00C0      		rjmp .L62
 585               	.LM141:
 586 0236 89E1      		ldi r24,lo8(25)
 587 0238 90E0      		ldi r25,hi8(25)
 588 023a 0E94 0000 		call delay_ms
 589               	.LM142:
 590 023e 85B1      		in r24,37-32
 591 0240 8027      		eor r24,r16
 592 0242 85B9      		out 37-32,r24
 593               	.LM143:
 594 0244 4899      		sbic 41-32,0
 595 0246 00C0      		rjmp .L62
 596               	.LM144:
 597 0248 1F5F      		subi r17,lo8(-(1))
 598 024a 1832      		cpi r17,lo8(40)
 599 024c 01F4      		brne .L63
 600 024e 81E0      		ldi r24,lo8(1)
 601 0250 00C0      		rjmp .L64
 602               	.L62:
 603 0252 80E0      		ldi r24,lo8(0)
 604               	.L64:
 605               	/* epilogue start */
 606               	.LBE271:
 607               	.LM145:
 608 0254 1F91      		pop r17
 609               	.LVL18:
 610 0256 0F91      		pop r16
 611 0258 FF90      		pop r15
 612 025a 0895      		ret
 613               	.LFE10:
 615               	.global	count_cmd_args
 617               	count_cmd_args:
 618               	.LFB30:
 619               	.LM146:
 620               	/* prologue: function */
 621               	/* frame size = 0 */
 622               	.LM147:
 623 025c E0E0      		ldi r30,lo8(cmd_arg)
 624 025e F0E0      		ldi r31,hi8(cmd_arg)
 625 0260 20E0      		ldi r18,lo8(0)
 626               	.LVL19:
 627               	.L69:
 628               	.LM148:
 629 0262 8081      		ld r24,Z
 630 0264 9181      		ldd r25,Z+1
 631 0266 892B      		or r24,r25
 632 0268 01F0      		breq .L68
 633 026a 8281      		ldd r24,Z+2
 634 026c 8111      		cpse r24,__zero_reg__
 635               	.LM149:
 636 026e 2F5F      		subi r18,lo8(-(1))
 637               	.L68:
 638 0270 3396      		adiw r30,3
 639               	.LM150:
 640 0272 80E0      		ldi r24,hi8(cmd_arg+12)
 641 0274 E030      		cpi r30,lo8(cmd_arg+12)
 642 0276 F807      		cpc r31,r24
 643 0278 01F4      		brne .L69
 644               	.LM151:
 645 027a 822F      		mov r24,r18
 646               	/* epilogue start */
 647 027c 0895      		ret
 648               	.LFE30:
 650               	.global	add_cmd_arg
 652               	add_cmd_arg:
 653               	.LFB32:
 654               	.LM152:
 655               	.LVL20:
 656               	/* prologue: function */
 657               	/* frame size = 0 */
 658 027e AC01      		movw r20,r24
 659               	.LM153:
 660 0280 E0E0      		ldi r30,lo8(cmd_arg)
 661 0282 F0E0      		ldi r31,hi8(cmd_arg)
 662 0284 20E0      		ldi r18,lo8(0)
 663               	.LVL21:
 664               	.L74:
 665               	.LBB272:
 666               	.LBB273:
 667               	.LM154:
 668 0286 8081      		ld r24,Z
 669 0288 9181      		ldd r25,Z+1
 670 028a 892B      		or r24,r25
 671 028c 01F0      		breq .L73
 672 028e 8281      		ldd r24,Z+2
 673 0290 8111      		cpse r24,__zero_reg__
 674               	.LM155:
 675 0292 2F5F      		subi r18,lo8(-(1))
 676               	.L73:
 677 0294 3396      		adiw r30,3
 678               	.LM156:
 679 0296 80E0      		ldi r24,hi8(cmd_arg+12)
 680 0298 E030      		cpi r30,lo8(cmd_arg+12)
 681 029a F807      		cpc r31,r24
 682 029c 01F4      		brne .L74
 683               	.LBE273:
 684               	.LBE272:
 685               	.LM157:
 686 029e 2430      		cpi r18,lo8(4)
 687 02a0 00F4      		brsh .L76
 688               	.LM158:
 689 02a2 822F      		mov r24,r18
 690 02a4 90E0      		ldi r25,lo8(0)
 691 02a6 FC01      		movw r30,r24
 692 02a8 EE0F      		lsl r30
 693 02aa FF1F      		rol r31
 694               	.LVL22:
 695 02ac E80F      		add r30,r24
 696 02ae F91F      		adc r31,r25
 697 02b0 E050      		subi r30,lo8(-(cmd_arg))
 698 02b2 F040      		sbci r31,hi8(-(cmd_arg))
 699 02b4 5183      		std Z+1,r21
 700 02b6 4083      		st Z,r20
 701               	.LM159:
 702 02b8 6283      		std Z+2,r22
 703               	.LVL23:
 704               	.L76:
 705 02ba 0895      		ret
 706               	.LFE32:
 708               	.global	is_number
 710               	is_number:
 711               	.LFB35:
 712               	.LM160:
 713               	.LVL24:
 714               	/* prologue: function */
 715               	/* frame size = 0 */
 716 02bc AC01      		movw r20,r24
 717               	.LM161:
 718 02be 20E0      		ldi r18,lo8(0)
 719 02c0 30E0      		ldi r19,hi8(0)
 720               	.LVL25:
 721               	.LBB274:
 722               	.LM162:
 723 02c2 70E0      		ldi r23,lo8(0)
 724               	.LVL26:
 725 02c4 00C0      		rjmp .L79
 726               	.LVL27:
 727               	.L82:
 728               	.LM163:
 729 02c6 FA01      		movw r30,r20
 730 02c8 E20F      		add r30,r18
 731 02ca F31F      		adc r31,r19
 732 02cc 8081      		ld r24,Z
 733 02ce 90E0      		ldi r25,lo8(0)
 734 02d0 C097      		sbiw r24,48
 735 02d2 0A97      		sbiw r24,10
 736 02d4 00F0      		brlo .L80
 737 02d6 40E0      		ldi r20,lo8(0)
 738 02d8 50E0      		ldi r21,hi8(0)
 739 02da 00C0      		rjmp .L81
 740               	.L80:
 741               	.LM164:
 742 02dc 2F5F      		subi r18,lo8(-(1))
 743 02de 3F4F      		sbci r19,hi8(-(1))
 744               	.LVL28:
 745               	.L79:
 746 02e0 2617      		cp r18,r22
 747 02e2 3707      		cpc r19,r23
 748 02e4 04F0      		brlt .L82
 749               	.L81:
 750               	.LBE274:
 751               	.LM165:
 752 02e6 CA01      		movw r24,r20
 753               	.LVL29:
 754               	/* epilogue start */
 755 02e8 0895      		ret
 756               	.LFE35:
 758               	.global	wildcmp
 760               	wildcmp:
 761               	.LFB36:
 762               	.LM166:
 763               	.LVL30:
 764               	/* prologue: function */
 765               	/* frame size = 0 */
 766 02ea FC01      		movw r30,r24
 767 02ec DB01      		movw r26,r22
 768 02ee 00C0      		rjmp .L85
 769               	.LVL31:
 770               	.L89:
 771               	.LM167:
 772 02f0 8917      		cp r24,r25
 773 02f2 01F0      		breq .L86
 774 02f4 8F33      		cpi r24,lo8(63)
 775 02f6 01F0      		breq .L86
 776 02f8 80E0      		ldi r24,lo8(0)
 777 02fa 0895      		ret
 778               	.L86:
 779               	.LM168:
 780 02fc 3196      		adiw r30,1
 781               	.LM169:
 782 02fe 1196      		adiw r26,1
 783               	.LVL32:
 784               	.L85:
 785               	.LM170:
 786 0300 9C91      		ld r25,X
 787 0302 9923      		tst r25
 788 0304 01F0      		breq .L88
 789 0306 8081      		ld r24,Z
 790 0308 8A32      		cpi r24,lo8(42)
 791 030a 01F4      		brne .L89
 792 030c 00C0      		rjmp .L88
 793               	.LVL33:
 794               	.L95:
 795               	.LM171:
 796 030e 8081      		ld r24,Z
 797 0310 8A32      		cpi r24,lo8(42)
 798 0312 01F4      		brne .L90
 799               	.LM172:
 800 0314 3196      		adiw r30,1
 801 0316 8081      		ld r24,Z
 802 0318 8823      		tst r24
 803 031a 01F4      		brne .L91
 804 031c 81E0      		ldi r24,lo8(1)
 805 031e 0895      		ret
 806               	.L91:
 807               	.LM173:
 808 0320 9D01      		movw r18,r26
 809 0322 2F5F      		subi r18,lo8(-(1))
 810 0324 3F4F      		sbci r19,hi8(-(1))
 811 0326 AF01      		movw r20,r30
 812 0328 00C0      		rjmp .L100
 813               	.L90:
 814               	.LM174:
 815 032a 8917      		cp r24,r25
 816 032c 01F0      		breq .L93
 817 032e 8F33      		cpi r24,lo8(63)
 818 0330 01F4      		brne .L94
 819               	.L93:
 820               	.LM175:
 821 0332 3196      		adiw r30,1
 822               	.LM176:
 823 0334 1196      		adiw r26,1
 824 0336 00C0      		rjmp .L100
 825               	.LVL34:
 826               	.L94:
 827               	.LM177:
 828 0338 FA01      		movw r30,r20
 829 033a D901      		movw r26,r18
 830 033c 2F5F      		subi r18,lo8(-(1))
 831 033e 3F4F      		sbci r19,hi8(-(1))
 832 0340 00C0      		rjmp .L100
 833               	.LVL35:
 834               	.L88:
 835 0342 20E0      		ldi r18,lo8(0)
 836 0344 30E0      		ldi r19,hi8(0)
 837               	.LVL36:
 838 0346 40E0      		ldi r20,lo8(0)
 839 0348 50E0      		ldi r21,hi8(0)
 840               	.LVL37:
 841               	.L100:
 842               	.LM178:
 843 034a 9C91      		ld r25,X
 844 034c 9923      		tst r25
 845 034e 01F4      		brne .L95
 846 0350 00C0      		rjmp .L101
 847               	.L97:
 848               	.LM179:
 849 0352 3196      		adiw r30,1
 850               	.LVL38:
 851               	.L101:
 852               	.LM180:
 853 0354 9081      		ld r25,Z
 854 0356 9A32      		cpi r25,lo8(42)
 855 0358 01F0      		breq .L97
 856               	.LM181:
 857 035a 80E0      		ldi r24,lo8(0)
 858 035c 9923      		tst r25
 859 035e 01F4      		brne .L87
 860 0360 81E0      		ldi r24,lo8(1)
 861               	.L87:
 862               	.LM182:
 863 0362 0895      		ret
 864               	.LFE36:
 866               	.global	print_menu
 868               	print_menu:
 869               	.LFB27:
 870               	.LM183:
 871               	/* prologue: function */
 872               	/* frame size = 0 */
 873               	.LM184:
 874 0364 80E0      		ldi r24,lo8(__c.2836)
 875 0366 90E0      		ldi r25,hi8(__c.2836)
 876 0368 0E94 0000 		call uart_puts_p
 877               	.LM185:
 878 036c 80E0      		ldi r24,lo8(__c.2838)
 879 036e 90E0      		ldi r25,hi8(__c.2838)
 880 0370 0E94 0000 		call uart_puts_p
 881               	.LM186:
 882 0374 80E0      		ldi r24,lo8(__c.2840)
 883 0376 90E0      		ldi r25,hi8(__c.2840)
 884 0378 0E94 0000 		call uart_puts_p
 885               	.LM187:
 886 037c 80E0      		ldi r24,lo8(__c.2842)
 887 037e 90E0      		ldi r25,hi8(__c.2842)
 888 0380 0E94 0000 		call uart_puts_p
 889               	.LM188:
 890 0384 80E0      		ldi r24,lo8(__c.2844)
 891 0386 90E0      		ldi r25,hi8(__c.2844)
 892 0388 0E94 0000 		call uart_puts_p
 893               	.LM189:
 894 038c 80E0      		ldi r24,lo8(__c.2846)
 895 038e 90E0      		ldi r25,hi8(__c.2846)
 896 0390 0E94 0000 		call uart_puts_p
 897               	.LM190:
 898 0394 80E0      		ldi r24,lo8(__c.2848)
 899 0396 90E0      		ldi r25,hi8(__c.2848)
 900 0398 0E94 0000 		call uart_puts_p
 901               	.LM191:
 902 039c 80E0      		ldi r24,lo8(__c.2850)
 903 039e 90E0      		ldi r25,hi8(__c.2850)
 904 03a0 0E94 0000 		call uart_puts_p
 905               	.LM192:
 906 03a4 80E0      		ldi r24,lo8(__c.2852)
 907 03a6 90E0      		ldi r25,hi8(__c.2852)
 908 03a8 0E94 0000 		call uart_puts_p
 909               	.LM193:
 910 03ac 80E0      		ldi r24,lo8(__c.2854)
 911 03ae 90E0      		ldi r25,hi8(__c.2854)
 912 03b0 0E94 0000 		call uart_puts_p
 913               	.LM194:
 914 03b4 80E0      		ldi r24,lo8(__c.2856)
 915 03b6 90E0      		ldi r25,hi8(__c.2856)
 916 03b8 0E94 0000 		call uart_puts_p
 917               	.LM195:
 918 03bc 80E0      		ldi r24,lo8(__c.2858)
 919 03be 90E0      		ldi r25,hi8(__c.2858)
 920 03c0 0E94 0000 		call uart_puts_p
 921               	.LM196:
 922 03c4 80E0      		ldi r24,lo8(__c.2860)
 923 03c6 90E0      		ldi r25,hi8(__c.2860)
 924 03c8 0E94 0000 		call uart_puts_p
 925               	.LM197:
 926 03cc 80E0      		ldi r24,lo8(__c.2862)
 927 03ce 90E0      		ldi r25,hi8(__c.2862)
 928 03d0 0E94 0000 		call uart_puts_p
 929               	.LM198:
 930 03d4 80E0      		ldi r24,lo8(__c.2864)
 931 03d6 90E0      		ldi r25,hi8(__c.2864)
 932 03d8 0E94 0000 		call uart_puts_p
 933               	.LM199:
 934 03dc 80E0      		ldi r24,lo8(__c.2866)
 935 03de 90E0      		ldi r25,hi8(__c.2866)
 936 03e0 0E94 0000 		call uart_puts_p
 937               	.LM200:
 938 03e4 80E0      		ldi r24,lo8(__c.2868)
 939 03e6 90E0      		ldi r25,hi8(__c.2868)
 940 03e8 0E94 0000 		call uart_puts_p
 941               	.LM201:
 942 03ec 80E0      		ldi r24,lo8(__c.2870)
 943 03ee 90E0      		ldi r25,hi8(__c.2870)
 944 03f0 0E94 0000 		call uart_puts_p
 945               	.LM202:
 946 03f4 80E0      		ldi r24,lo8(__c.2872)
 947 03f6 90E0      		ldi r25,hi8(__c.2872)
 948 03f8 0E94 0000 		call uart_puts_p
 949               	/* epilogue start */
 950               	.LM203:
 951 03fc 0895      		ret
 952               	.LFE27:
 954               	.global	too_many_arguments_error
 956               	too_many_arguments_error:
 957               	.LFB34:
 958               	.LM204:
 959               	.LVL39:
 960 03fe 1F93      		push r17
 961 0400 CF93      		push r28
 962 0402 DF93      		push r29
 963               	/* prologue: function */
 964               	/* frame size = 0 */
 965 0404 282F      		mov r18,r24
 966 0406 EB01      		movw r28,r22
 967               	.LM205:
 968 0408 E0E0      		ldi r30,lo8(cmd_arg)
 969 040a F0E0      		ldi r31,hi8(cmd_arg)
 970 040c 10E0      		ldi r17,lo8(0)
 971               	.LVL40:
 972               	.L106:
 973               	.LBB275:
 974               	.LBB276:
 975               	.LM206:
 976 040e 8081      		ld r24,Z
 977 0410 9181      		ldd r25,Z+1
 978 0412 892B      		or r24,r25
 979 0414 01F0      		breq .L105
 980 0416 8281      		ldd r24,Z+2
 981 0418 8111      		cpse r24,__zero_reg__
 982               	.LM207:
 983 041a 1F5F      		subi r17,lo8(-(1))
 984               	.L105:
 985 041c 3396      		adiw r30,3
 986               	.LM208:
 987 041e 80E0      		ldi r24,hi8(cmd_arg+12)
 988 0420 E030      		cpi r30,lo8(cmd_arg+12)
 989 0422 F807      		cpc r31,r24
 990 0424 01F4      		brne .L106
 991               	.LBE276:
 992               	.LBE275:
 993               	.LM209:
 994 0426 2117      		cp r18,r17
 995 0428 00F0      		brlo .L107
 996 042a 80E0      		ldi r24,lo8(0)
 997 042c 00C0      		rjmp .L108
 998               	.L107:
 999               	.LM210:
 1000 042e 80E0      		ldi r24,lo8(__c.3123)
 1001 0430 90E0      		ldi r25,hi8(__c.3123)
 1002 0432 0E94 0000 		call uart_puts_p
 1003               	.LVL41:
 1004               	.LM211:
 1005 0436 812F      		mov r24,r17
 1006 0438 90E0      		ldi r25,lo8(0)
 1007 043a 0E94 0000 		call uart_putw_dec
 1008               	.LM212:
 1009 043e 80E0      		ldi r24,lo8(__c.3125)
 1010 0440 90E0      		ldi r25,hi8(__c.3125)
 1011 0442 0E94 0000 		call uart_puts_p
 1012               	.LM213:
 1013 0446 CE01      		movw r24,r28
 1014 0448 0E94 0000 		call uart_puts
 1015               	.LM214:
 1016 044c 8AE0      		ldi r24,lo8(10)
 1017 044e 0E94 0000 		call uart_putc
 1018 0452 81E0      		ldi r24,lo8(1)
 1019               	.LVL42:
 1020               	.L108:
 1021               	/* epilogue start */
 1022               	.LM215:
 1023 0454 DF91      		pop r29
 1024 0456 CF91      		pop r28
 1025               	.LVL43:
 1026 0458 1F91      		pop r17
 1027               	.LVL44:
 1028 045a 0895      		ret
 1029               	.LFE34:
 1031               	.global	split_cmd_line_args
 1033               	split_cmd_line_args:
 1034               	.LFB33:
 1035               	.LM216:
 1036               	.LVL45:
 1037 045c CF93      		push r28
 1038 045e DF93      		push r29
 1039               	/* prologue: function */
 1040               	/* frame size = 0 */
 1041 0460 EC01      		movw r28,r24
 1042               	.LM217:
 1043 0462 8CE0      		ldi r24,lo8(12)
 1044               	.LVL46:
 1045 0464 E0E0      		ldi r30,lo8(cmd_arg)
 1046 0466 F0E0      		ldi r31,hi8(cmd_arg)
 1047 0468 DF01      		movw r26,r30
 1048 046a 1D92      		st X+,__zero_reg__
 1049 046c 8A95      	        dec r24
 1050 046e 01F4      		brne .-6
 1051 0470 50E0      		ldi r21,lo8(0)
 1052               	.LVL47:
 1053 0472 41E0      		ldi r20,lo8(1)
 1054               	.LVL48:
 1055               	.LM218:
 1056 0474 A62F      		mov r26,r22
 1057 0476 B0E0      		ldi r27,lo8(0)
 1058               	.LVL49:
 1059 0478 00C0      		rjmp .L112
 1060               	.LVL50:
 1061               	.L119:
 1062               	.LM219:
 1063 047a 242F      		mov r18,r20
 1064               	.LVL51:
 1065 047c 30E0      		ldi r19,lo8(0)
 1066 047e FE01      		movw r30,r28
 1067 0480 E20F      		add r30,r18
 1068 0482 F31F      		adc r31,r19
 1069 0484 8081      		ld r24,Z
 1070 0486 8032      		cpi r24,lo8(32)
 1071 0488 01F0      		breq .L113
 1072               	.LVL52:
 1073 048a 2F5F      		subi r18,lo8(-(1))
 1074 048c 3F4F      		sbci r19,hi8(-(1))
 1075               	.LVL53:
 1076 048e 2A17      		cp r18,r26
 1077 0490 3B07      		cpc r19,r27
 1078 0492 01F4      		brne .L114
 1079               	.LVL54:
 1080               	.L113:
 1081               	.LM220:
 1082 0494 842F      		mov r24,r20
 1083 0496 90E0      		ldi r25,lo8(0)
 1084               	.LVL55:
 1085 0498 0196      		adiw r24,1
 1086               	.LVL56:
 1087 049a 8A17      		cp r24,r26
 1088 049c 9B07      		cpc r25,r27
 1089 049e 01F4      		brne .L115
 1090               	.LVL57:
 1091 04a0 462F      		mov r20,r22
 1092               	.LVL58:
 1093               	.L115:
 1094 04a2 E0E0      		ldi r30,lo8(cmd_arg)
 1095 04a4 F0E0      		ldi r31,hi8(cmd_arg)
 1096 04a6 20E0      		ldi r18,lo8(0)
 1097               	.LVL59:
 1098               	.L117:
 1099               	.LBB277:
 1100               	.LBB278:
 1101               	.LBB279:
 1102               	.LBB280:
 1103               	.LM221:
 1104 04a8 8081      		ld r24,Z
 1105 04aa 9181      		ldd r25,Z+1
 1106 04ac 892B      		or r24,r25
 1107 04ae 01F0      		breq .L116
 1108 04b0 8281      		ldd r24,Z+2
 1109 04b2 8111      		cpse r24,__zero_reg__
 1110               	.LM222:
 1111 04b4 2F5F      		subi r18,lo8(-(1))
 1112               	.L116:
 1113 04b6 3396      		adiw r30,3
 1114               	.LM223:
 1115 04b8 80E0      		ldi r24,hi8(cmd_arg+12)
 1116 04ba E030      		cpi r30,lo8(cmd_arg+12)
 1117 04bc F807      		cpc r31,r24
 1118 04be 01F4      		brne .L117
 1119               	.LBE280:
 1120               	.LBE279:
 1121               	.LM224:
 1122 04c0 2430      		cpi r18,lo8(4)
 1123 04c2 00F4      		brsh .L118
 1124               	.LM225:
 1125 04c4 822F      		mov r24,r18
 1126 04c6 90E0      		ldi r25,lo8(0)
 1127               	.LVL60:
 1128 04c8 FC01      		movw r30,r24
 1129 04ca EE0F      		lsl r30
 1130 04cc FF1F      		rol r31
 1131 04ce E80F      		add r30,r24
 1132 04d0 F91F      		adc r31,r25
 1133 04d2 E050      		subi r30,lo8(-(cmd_arg))
 1134 04d4 F040      		sbci r31,hi8(-(cmd_arg))
 1135 04d6 CE01      		movw r24,r28
 1136 04d8 850F      		add r24,r21
 1137 04da 911D      		adc r25,__zero_reg__
 1138 04dc 9183      		std Z+1,r25
 1139 04de 8083      		st Z,r24
 1140               	.LM226:
 1141 04e0 842F      		mov r24,r20
 1142 04e2 851B      		sub r24,r21
 1143 04e4 8283      		std Z+2,r24
 1144               	.LVL61:
 1145               	.L118:
 1146               	.LBE278:
 1147               	.LBE277:
 1148               	.LM227:
 1149 04e6 4F5F      		subi r20,lo8(-(1))
 1150 04e8 542F      		mov r21,r20
 1151               	.LVL62:
 1152               	.L114:
 1153               	.LM228:
 1154 04ea 4F5F      		subi r20,lo8(-(1))
 1155               	.LVL63:
 1156               	.L112:
 1157               	.LM229:
 1158 04ec 4617      		cp r20,r22
 1159 04ee 00F0      		brlo .L119
 1160               	.LVL64:
 1161 04f0 E0E0      		ldi r30,lo8(cmd_arg)
 1162 04f2 F0E0      		ldi r31,hi8(cmd_arg)
 1163 04f4 20E0      		ldi r18,lo8(0)
 1164               	.LVL65:
 1165               	.L121:
 1166               	.LBB281:
 1167               	.LBB282:
 1168               	.LM230:
 1169 04f6 8081      		ld r24,Z
 1170 04f8 9181      		ldd r25,Z+1
 1171 04fa 892B      		or r24,r25
 1172 04fc 01F0      		breq .L120
 1173 04fe 8281      		ldd r24,Z+2
 1174 0500 8111      		cpse r24,__zero_reg__
 1175               	.LM231:
 1176 0502 2F5F      		subi r18,lo8(-(1))
 1177               	.L120:
 1178 0504 3396      		adiw r30,3
 1179               	.LM232:
 1180 0506 A0E0      		ldi r26,hi8(cmd_arg+12)
 1181 0508 E030      		cpi r30,lo8(cmd_arg+12)
 1182 050a FA07      		cpc r31,r26
 1183 050c 01F4      		brne .L121
 1184               	.LBE282:
 1185               	.LBE281:
 1186               	.LM233:
 1187 050e 822F      		mov r24,r18
 1188               	/* epilogue start */
 1189 0510 DF91      		pop r29
 1190 0512 CF91      		pop r28
 1191               	.LVL66:
 1192 0514 0895      		ret
 1193               	.LFE33:
 1195               	.global	get_cmd_arg
 1197               	get_cmd_arg:
 1198               	.LFB31:
 1199               	.LM234:
 1200               	.LVL67:
 1201               	/* prologue: function */
 1202               	/* frame size = 0 */
 1203 0516 982F      		mov r25,r24
 1204               	.LM235:
 1205 0518 89E1      		ldi r24,lo8(25)
 1206               	.LVL68:
 1207 051a E0E0      		ldi r30,lo8(general_buffer)
 1208 051c F0E0      		ldi r31,hi8(general_buffer)
 1209 051e DF01      		movw r26,r30
 1210 0520 1D92      		st X+,__zero_reg__
 1211 0522 8A95      	        dec r24
 1212 0524 01F4      		brne .-6
 1213               	.LM236:
 1214 0526 9430      		cpi r25,lo8(4)
 1215 0528 00F4      		brsh .L126
 1216               	.LM237:
 1217 052a 892F      		mov r24,r25
 1218 052c 90E0      		ldi r25,lo8(0)
 1219               	.LVL69:
 1220 052e FC01      		movw r30,r24
 1221 0530 EE0F      		lsl r30
 1222 0532 FF1F      		rol r31
 1223 0534 E80F      		add r30,r24
 1224 0536 F91F      		adc r31,r25
 1225 0538 E050      		subi r30,lo8(-(cmd_arg))
 1226 053a F040      		sbci r31,hi8(-(cmd_arg))
 1227 053c 6081      		ld r22,Z
 1228 053e 7181      		ldd r23,Z+1
 1229 0540 6115      		cp r22,__zero_reg__
 1230 0542 7105      		cpc r23,__zero_reg__
 1231 0544 01F0      		breq .L126
 1232 0546 4281      		ldd r20,Z+2
 1233 0548 4423      		tst r20
 1234 054a 01F0      		breq .L126
 1235               	.LM238:
 1236 054c 4A31      		cpi r20,lo8(26)
 1237 054e 00F0      		brlo .L127
 1238 0550 49E1      		ldi r20,lo8(25)
 1239 0552 50E0      		ldi r21,hi8(25)
 1240 0554 00C0      		rjmp .L128
 1241               	.L127:
 1242 0556 50E0      		ldi r21,lo8(0)
 1243               	.L128:
 1244 0558 80E0      		ldi r24,lo8(general_buffer)
 1245 055a 90E0      		ldi r25,hi8(general_buffer)
 1246 055c 0E94 0000 		call strncpy
 1247 0560 9C01      		movw r18,r24
 1248 0562 00C0      		rjmp .L129
 1249               	.LVL70:
 1250               	.L126:
 1251 0564 20E0      		ldi r18,lo8(0)
 1252 0566 30E0      		ldi r19,hi8(0)
 1253               	.L129:
 1254               	.LM239:
 1255 0568 C901      		movw r24,r18
 1256               	/* epilogue start */
 1257 056a 0895      		ret
 1258               	.LFE31:
 1261               	read_line:
 1262               	.LFB16:
 1263               	.LM240:
 1264               	.LVL71:
 1265 056c BF92      		push r11
 1266 056e CF92      		push r12
 1267 0570 DF92      		push r13
 1268 0572 EF92      		push r14
 1269 0574 FF92      		push r15
 1270 0576 0F93      		push r16
 1271 0578 1F93      		push r17
 1272 057a CF93      		push r28
 1273 057c DF93      		push r29
 1274               	/* prologue: function */
 1275               	/* frame size = 0 */
 1276 057e EC01      		movw r28,r24
 1277 0580 B62E      		mov r11,r22
 1278               	.LM241:
 1279 0582 60E0      		ldi r22,lo8(0)
 1280 0584 70E0      		ldi r23,hi8(0)
 1281               	.LVL72:
 1282 0586 4B2D      		mov r20,r11
 1283 0588 50E0      		ldi r21,lo8(0)
 1284 058a 0E94 0000 		call memset
 1285               	.LVL73:
 1286 058e 00E0      		ldi r16,lo8(0)
 1287               	.LVL74:
 1288               	.LM242:
 1289 0590 CB2C      		mov r12,r11
 1290 0592 DD24      		clr r13
 1291 0594 0894      		sec
 1292 0596 C108      		sbc r12,__zero_reg__
 1293 0598 D108      		sbc r13,__zero_reg__
 1294 059a 00C0      		rjmp .L141
 1295               	.LVL75:
 1296               	.L137:
 1297               	.LBB283:
 1298               	.LM243:
 1299 059c 0E94 0000 		call uart_getc
 1300 05a0 182F      		mov r17,r24
 1301               	.LM244:
 1302 05a2 8830      		cpi r24,lo8(8)
 1303 05a4 01F0      		breq .L133
 1304               	.LVL76:
 1305 05a6 8F37      		cpi r24,lo8(127)
 1306 05a8 01F4      		brne .L134
 1307               	.L133:
 1308               	.LM245:
 1309 05aa 0023      		tst r16
 1310 05ac 01F0      		breq .L141
 1311               	.LVL77:
 1312               	.LM246:
 1313 05ae 0150      		subi r16,lo8(-(-1))
 1314               	.LM247:
 1315 05b0 FE01      		movw r30,r28
 1316 05b2 E00F      		add r30,r16
 1317 05b4 F11D      		adc r31,__zero_reg__
 1318 05b6 1082      		st Z,__zero_reg__
 1319               	.LM248:
 1320 05b8 88E0      		ldi r24,lo8(8)
 1321               	.LVL78:
 1322 05ba 0E94 0000 		call uart_putc
 1323               	.LM249:
 1324 05be 80E2      		ldi r24,lo8(32)
 1325 05c0 0E94 0000 		call uart_putc
 1326               	.LM250:
 1327 05c4 88E0      		ldi r24,lo8(8)
 1328 05c6 0E94 0000 		call uart_putc
 1329 05ca 00C0      		rjmp .L141
 1330               	.LVL79:
 1331               	.L134:
 1332               	.LM251:
 1333 05cc 0E94 0000 		call uart_putc
 1334               	.LVL80:
 1335 05d0 FE01      		movw r30,r28
 1336 05d2 EE0D      		add r30,r14
 1337 05d4 FF1D      		adc r31,r15
 1338               	.LM252:
 1339 05d6 1A30      		cpi r17,lo8(10)
 1340 05d8 01F4      		brne .L135
 1341               	.LM253:
 1342 05da 1082      		st Z,__zero_reg__
 1343 05dc 00C0      		rjmp .L136
 1344               	.L135:
 1345               	.LM254:
 1346 05de 1083      		st Z,r17
 1347               	.LM255:
 1348 05e0 0F5F      		subi r16,lo8(-(1))
 1349               	.LVL81:
 1350               	.L141:
 1351               	.LBE283:
 1352               	.LM256:
 1353 05e2 E02E      		mov r14,r16
 1354 05e4 FF24      		clr r15
 1355 05e6 EC14      		cp r14,r12
 1356 05e8 FD04      		cpc r15,r13
 1357 05ea 04F0      		brlt .L137
 1358               	.LVL82:
 1359               	.L136:
 1360               	.LM257:
 1361 05ec CE01      		movw r24,r28
 1362 05ee 6B2D      		mov r22,r11
 1363 05f0 0E94 0000 		call split_cmd_line_args
 1364               	.LM258:
 1365 05f4 802F      		mov r24,r16
 1366               	/* epilogue start */
 1367 05f6 DF91      		pop r29
 1368 05f8 CF91      		pop r28
 1369               	.LVL83:
 1370 05fa 1F91      		pop r17
 1371               	.LVL84:
 1372 05fc 0F91      		pop r16
 1373 05fe FF90      		pop r15
 1374               	.LVL85:
 1375 0600 EF90      		pop r14
 1376               	.LVL86:
 1377 0602 DF90      		pop r13
 1378 0604 CF90      		pop r12
 1379 0606 BF90      		pop r11
 1380               	.LVL87:
 1381 0608 0895      		ret
 1382               	.LFE16:
 1384               	.global	read_buffer
 1386               	read_buffer:
 1387               	.LFB22:
 1388               	.LM259:
 1389               	.LVL88:
 1390 060a CF92      		push r12
 1391 060c DF92      		push r13
 1392 060e EF92      		push r14
 1393 0610 FF92      		push r15
 1394 0612 0F93      		push r16
 1395 0614 1F93      		push r17
 1396 0616 CF93      		push r28
 1397 0618 DF93      		push r29
 1398               	/* prologue: function */
 1399               	/* frame size = 0 */
 1400 061a EC01      		movw r28,r24
 1401 061c 162F      		mov r17,r22
 1402               	.LM260:
 1403 061e 60E0      		ldi r22,lo8(0)
 1404 0620 70E0      		ldi r23,hi8(0)
 1405               	.LVL89:
 1406 0622 412F      		mov r20,r17
 1407 0624 50E0      		ldi r21,lo8(0)
 1408 0626 0E94 0000 		call memset
 1409               	.LVL90:
 1410 062a 00E0      		ldi r16,lo8(0)
 1411               	.LVL91:
 1412               	.LM261:
 1413 062c C12E      		mov r12,r17
 1414 062e DD24      		clr r13
 1415 0630 0894      		sec
 1416 0632 C108      		sbc r12,__zero_reg__
 1417 0634 D108      		sbc r13,__zero_reg__
 1418 0636 00C0      		rjmp .L152
 1419               	.LVL92:
 1420               	.L148:
 1421               	.LBB284:
 1422               	.LM262:
 1423 0638 0E94 0000 		call uart_getc
 1424 063c 182F      		mov r17,r24
 1425               	.LVL93:
 1426               	.LM263:
 1427 063e 8830      		cpi r24,lo8(8)
 1428 0640 01F0      		breq .L144
 1429               	.LVL94:
 1430 0642 8F37      		cpi r24,lo8(127)
 1431 0644 01F4      		brne .L145
 1432               	.L144:
 1433               	.LM264:
 1434 0646 0023      		tst r16
 1435 0648 01F0      		breq .L152
 1436               	.LVL95:
 1437               	.LM265:
 1438 064a 0150      		subi r16,lo8(-(-1))
 1439               	.LM266:
 1440 064c FE01      		movw r30,r28
 1441 064e E00F      		add r30,r16
 1442 0650 F11D      		adc r31,__zero_reg__
 1443 0652 1082      		st Z,__zero_reg__
 1444               	.LM267:
 1445 0654 88E0      		ldi r24,lo8(8)
 1446               	.LVL96:
 1447 0656 0E94 0000 		call uart_putc
 1448               	.LM268:
 1449 065a 80E2      		ldi r24,lo8(32)
 1450 065c 0E94 0000 		call uart_putc
 1451               	.LM269:
 1452 0660 88E0      		ldi r24,lo8(8)
 1453 0662 0E94 0000 		call uart_putc
 1454 0666 00C0      		rjmp .L152
 1455               	.LVL97:
 1456               	.L145:
 1457               	.LM270:
 1458 0668 0E94 0000 		call uart_putc
 1459               	.LVL98:
 1460 066c FE01      		movw r30,r28
 1461 066e EE0D      		add r30,r14
 1462 0670 FF1D      		adc r31,r15
 1463               	.LM271:
 1464 0672 1A31      		cpi r17,lo8(26)
 1465 0674 01F4      		brne .L146
 1466               	.LM272:
 1467 0676 1082      		st Z,__zero_reg__
 1468 0678 00C0      		rjmp .L147
 1469               	.L146:
 1470               	.LM273:
 1471 067a 1083      		st Z,r17
 1472               	.LM274:
 1473 067c 0F5F      		subi r16,lo8(-(1))
 1474               	.LVL99:
 1475               	.L152:
 1476               	.LBE284:
 1477               	.LM275:
 1478 067e E02E      		mov r14,r16
 1479 0680 FF24      		clr r15
 1480 0682 EC14      		cp r14,r12
 1481 0684 FD04      		cpc r15,r13
 1482 0686 04F0      		brlt .L148
 1483               	.LVL100:
 1484               	.L147:
 1485               	.LM276:
 1486 0688 802F      		mov r24,r16
 1487               	/* epilogue start */
 1488 068a DF91      		pop r29
 1489 068c CF91      		pop r28
 1490               	.LVL101:
 1491 068e 1F91      		pop r17
 1492               	.LVL102:
 1493 0690 0F91      		pop r16
 1494 0692 FF90      		pop r15
 1495               	.LVL103:
 1496 0694 EF90      		pop r14
 1497               	.LVL104:
 1498 0696 DF90      		pop r13
 1499 0698 CF90      		pop r12
 1500 069a 0895      		ret
 1501               	.LFE22:
 1503               		.data
 1504               	.LC0:
 1505 0000 2F00      		.string	"/"
 1506               		.text
 1507               	.global	init_media
 1509               	init_media:
 1510               	.LFB15:
 1511               	.LM277:
 1512 069c 0F93      		push r16
 1513 069e 1F93      		push r17
 1514 06a0 DF93      		push r29
 1515 06a2 CF93      		push r28
 1516 06a4 CDB7      		in r28,__SP_L__
 1517 06a6 DEB7      		in r29,__SP_H__
 1518 06a8 E197      		sbiw r28,49
 1519 06aa 0FB6      		in __tmp_reg__,__SREG__
 1520 06ac F894      		cli
 1521 06ae DEBF      		out __SP_H__,r29
 1522 06b0 0FBE      		out __SREG__,__tmp_reg__
 1523 06b2 CDBF      		out __SP_L__,r28
 1524               	/* prologue: function */
 1525               	/* frame size = 49 */
 1526               	.LM278:
 1527 06b4 0E94 0000 		call sd_raw_init
 1528 06b8 8823      		tst r24
 1529 06ba 01F4      		brne .L154
 1530               	.LM279:
 1531 06bc 83E0      		ldi r24,lo8(3)
 1532 06be 0E94 0000 		call blink_error
 1533               	.L154:
 1534               	.LM280:
 1535 06c2 0E94 0000 		call fat_clear_handles
 1536               	.LM281:
 1537 06c6 80E0      		ldi r24,lo8(gs(sd_raw_read))
 1538 06c8 90E0      		ldi r25,hi8(gs(sd_raw_read))
 1539 06ca 60E0      		ldi r22,lo8(gs(sd_raw_read_interval))
 1540 06cc 70E0      		ldi r23,hi8(gs(sd_raw_read_interval))
 1541 06ce 40E0      		ldi r20,lo8(gs(sd_raw_write))
 1542 06d0 50E0      		ldi r21,hi8(gs(sd_raw_write))
 1543 06d2 20E0      		ldi r18,lo8(gs(sd_raw_write_interval))
 1544 06d4 30E0      		ldi r19,hi8(gs(sd_raw_write_interval))
 1545 06d6 00E0      		ldi r16,lo8(0)
 1546 06d8 0E94 0000 		call partition_open
 1547 06dc 9093 0000 		sts (partition)+1,r25
 1548 06e0 8093 0000 		sts partition,r24
 1549               	.LM282:
 1550 06e4 892B      		or r24,r25
 1551 06e6 01F4      		brne .L155
 1552               	.LM283:
 1553 06e8 80E0      		ldi r24,lo8(gs(sd_raw_read))
 1554 06ea 90E0      		ldi r25,hi8(gs(sd_raw_read))
 1555 06ec 60E0      		ldi r22,lo8(gs(sd_raw_read_interval))
 1556 06ee 70E0      		ldi r23,hi8(gs(sd_raw_read_interval))
 1557 06f0 40E0      		ldi r20,lo8(gs(sd_raw_write))
 1558 06f2 50E0      		ldi r21,hi8(gs(sd_raw_write))
 1559 06f4 20E0      		ldi r18,lo8(gs(sd_raw_write_interval))
 1560 06f6 30E0      		ldi r19,hi8(gs(sd_raw_write_interval))
 1561 06f8 0FEF      		ldi r16,lo8(-1)
 1562 06fa 0E94 0000 		call partition_open
 1563 06fe 9093 0000 		sts (partition)+1,r25
 1564 0702 8093 0000 		sts partition,r24
 1565               	.L155:
 1566               	.LM284:
 1567 0706 8091 0000 		lds r24,partition
 1568 070a 9091 0000 		lds r25,(partition)+1
 1569 070e 0E94 0000 		call fat_open
 1570 0712 9093 0000 		sts (fs)+1,r25
 1571 0716 8093 0000 		sts fs,r24
 1572               	.LM285:
 1573 071a 60E0      		ldi r22,lo8(.LC0)
 1574 071c 70E0      		ldi r23,hi8(.LC0)
 1575 071e 8E01      		movw r16,r28
 1576 0720 0F5F      		subi r16,lo8(-(1))
 1577 0722 1F4F      		sbci r17,hi8(-(1))
 1578 0724 A801      		movw r20,r16
 1579 0726 0E94 0000 		call fat_get_dir_entry_of_path
 1580               	.LM286:
 1581 072a 8091 0000 		lds r24,fs
 1582 072e 9091 0000 		lds r25,(fs)+1
 1583 0732 B801      		movw r22,r16
 1584 0734 0E94 0000 		call fat_open_dir
 1585 0738 9093 0000 		sts (dd)+1,r25
 1586 073c 8093 0000 		sts dd,r24
 1587               	/* epilogue start */
 1588               	.LM287:
 1589 0740 E196      		adiw r28,49
 1590 0742 0FB6      		in __tmp_reg__,__SREG__
 1591 0744 F894      		cli
 1592 0746 DEBF      		out __SP_H__,r29
 1593 0748 0FBE      		out __SREG__,__tmp_reg__
 1594 074a CDBF      		out __SP_L__,r28
 1595 074c CF91      		pop r28
 1596 074e DF91      		pop r29
 1597 0750 1F91      		pop r17
 1598 0752 0F91      		pop r16
 1599 0754 0895      		ret
 1600               	.LFE15:
 1603               	find_file_in_dir:
 1604               	.LFB24:
 1605               	.LM288:
 1606               	.LVL105:
 1607 0756 CF92      		push r12
 1608 0758 DF92      		push r13
 1609 075a FF92      		push r15
 1610 075c 0F93      		push r16
 1611               	.LVL106:
 1612 075e 1F93      		push r17
 1613 0760 CF93      		push r28
 1614 0762 DF93      		push r29
 1615               	/* prologue: function */
 1616               	/* frame size = 0 */
 1617 0764 6B01      		movw r12,r22
 1618 0766 EA01      		movw r28,r20
 1619 0768 F22E      		mov r15,r18
 1620 076a 132F      		mov r17,r19
 1621               	.LVL107:
 1622 076c 00C0      		rjmp .L165
 1623               	.LVL108:
 1624               	.L161:
 1625               	.LM289:
 1626 076e 8F2D      		mov r24,r15
 1627 0770 912F      		mov r25,r17
 1628 0772 BE01      		movw r22,r28
 1629 0774 0E94 0000 		call strcmp
 1630               	.LM290:
 1631 0778 0097      		sbiw r24,0
 1632 077a 01F0      		breq .L159
 1633 077c 0130      		cpi r16,lo8(1)
 1634 077e 01F4      		brne .L165
 1635 0780 CE01      		movw r24,r28
 1636 0782 6F2D      		mov r22,r15
 1637 0784 712F      		mov r23,r17
 1638 0786 0E94 0000 		call wildcmp
 1639 078a 8130      		cpi r24,lo8(1)
 1640 078c 01F4      		brne .L165
 1641               	.L159:
 1642               	.LM291:
 1643 078e C601      		movw r24,r12
 1644 0790 0E94 0000 		call fat_reset_dir
 1645 0794 81E0      		ldi r24,lo8(1)
 1646 0796 00C0      		rjmp .L160
 1647               	.LVL109:
 1648               	.L165:
 1649               	.LM292:
 1650 0798 C601      		movw r24,r12
 1651               	.LVL110:
 1652 079a 6F2D      		mov r22,r15
 1653 079c 712F      		mov r23,r17
 1654 079e 0E94 0000 		call fat_read_dir
 1655 07a2 8823      		tst r24
 1656 07a4 01F4      		brne .L161
 1657               	.L160:
 1658               	/* epilogue start */
 1659               	.LM293:
 1660 07a6 DF91      		pop r29
 1661 07a8 CF91      		pop r28
 1662               	.LVL111:
 1663 07aa 1F91      		pop r17
 1664               	.LVL112:
 1665 07ac 0F91      		pop r16
 1666               	.LVL113:
 1667 07ae FF90      		pop r15
 1668               	.LVL114:
 1669 07b0 DF90      		pop r13
 1670 07b2 CF90      		pop r12
 1671               	.LVL115:
 1672 07b4 0895      		ret
 1673               	.LFE24:
 1676               	open_file_in_dir:
 1677               	.LFB25:
 1678               	.LM294:
 1679               	.LVL116:
 1680 07b6 CF92      		push r12
 1681 07b8 DF92      		push r13
 1682 07ba EF92      		push r14
 1683 07bc FF92      		push r15
 1684 07be 0F93      		push r16
 1685 07c0 DF93      		push r29
 1686 07c2 CF93      		push r28
 1687 07c4 CDB7      		in r28,__SP_L__
 1688 07c6 DEB7      		in r29,__SP_H__
 1689 07c8 E197      		sbiw r28,49
 1690 07ca 0FB6      		in __tmp_reg__,__SREG__
 1691 07cc F894      		cli
 1692 07ce DEBF      		out __SP_H__,r29
 1693 07d0 0FBE      		out __SREG__,__tmp_reg__
 1694 07d2 CDBF      		out __SP_L__,r28
 1695               	/* prologue: function */
 1696               	/* frame size = 49 */
 1697 07d4 7C01      		movw r14,r24
 1698               	.LM295:
 1699 07d6 6E01      		movw r12,r28
 1700 07d8 0894      		sec
 1701 07da C11C      		adc r12,__zero_reg__
 1702 07dc D11C      		adc r13,__zero_reg__
 1703 07de 9601      		movw r18,r12
 1704 07e0 00E0      		ldi r16,lo8(0)
 1705 07e2 0E94 0000 		call find_file_in_dir
 1706               	.LVL117:
 1707 07e6 8823      		tst r24
 1708 07e8 01F4      		brne .L167
 1709 07ea 20E0      		ldi r18,lo8(0)
 1710 07ec 30E0      		ldi r19,hi8(0)
 1711 07ee 00C0      		rjmp .L168
 1712               	.L167:
 1713               	.LM296:
 1714 07f0 C701      		movw r24,r14
 1715 07f2 B601      		movw r22,r12
 1716 07f4 0E94 0000 		call fat_open_file
 1717 07f8 9C01      		movw r18,r24
 1718               	.L168:
 1719               	.LM297:
 1720 07fa C901      		movw r24,r18
 1721               	/* epilogue start */
 1722 07fc E196      		adiw r28,49
 1723 07fe 0FB6      		in __tmp_reg__,__SREG__
 1724 0800 F894      		cli
 1725 0802 DEBF      		out __SP_H__,r29
 1726 0804 0FBE      		out __SREG__,__tmp_reg__
 1727 0806 CDBF      		out __SP_L__,r28
 1728 0808 CF91      		pop r28
 1729 080a DF91      		pop r29
 1730 080c 0F91      		pop r16
 1731 080e FF90      		pop r15
 1732 0810 EF90      		pop r14
 1733               	.LVL118:
 1734 0812 DF90      		pop r13
 1735 0814 CF90      		pop r12
 1736 0816 0895      		ret
 1737               	.LFE25:
 1739               	.global	append_file
 1741               	append_file:
 1742               	.LFB14:
 1743               	.LM298:
 1744               	.LVL119:
 1745 0818 DF92      		push r13
 1746 081a EF92      		push r14
 1747 081c FF92      		push r15
 1748 081e 0F93      		push r16
 1749 0820 1F93      		push r17
 1750 0822 DF93      		push r29
 1751 0824 CF93      		push r28
 1752 0826 00D0      		rcall .
 1753 0828 00D0      		rcall .
 1754 082a CDB7      		in r28,__SP_L__
 1755 082c DEB7      		in r29,__SP_H__
 1756               	/* prologue: function */
 1757               	/* frame size = 4 */
 1758 082e 8C01      		movw r16,r24
 1759               	.LM299:
 1760 0830 6091 0000 		lds r22,dd
 1761 0834 7091 0000 		lds r23,(dd)+1
 1762 0838 8091 0000 		lds r24,fs
 1763 083c 9091 0000 		lds r25,(fs)+1
 1764               	.LVL120:
 1765 0840 A801      		movw r20,r16
 1766 0842 0E94 0000 		call open_file_in_dir
 1767 0846 7C01      		movw r14,r24
 1768               	.LVL121:
 1769               	.LM300:
 1770 0848 0097      		sbiw r24,0
 1771 084a 01F4      		brne .L171
 1772               	.LVL122:
 1773               	.LM301:
 1774 084c 80E0      		ldi r24,lo8(__c.2455)
 1775 084e 90E0      		ldi r25,hi8(__c.2455)
 1776               	.LVL123:
 1777 0850 0E94 0000 		call uart_puts_p
 1778               	.LM302:
 1779 0854 C801      		movw r24,r16
 1780 0856 0E94 0000 		call uart_puts
 1781               	.LM303:
 1782 085a 8AE0      		ldi r24,lo8(10)
 1783 085c 0E94 0000 		call uart_putc
 1784 0860 00C0      		rjmp .L214
 1785               	.LVL124:
 1786               	.L171:
 1787               	.LM304:
 1788 0862 1982      		std Y+1,__zero_reg__
 1789 0864 1A82      		std Y+2,__zero_reg__
 1790 0866 1B82      		std Y+3,__zero_reg__
 1791 0868 1C82      		std Y+4,__zero_reg__
 1792               	.LVL125:
 1793               	.LM305:
 1794 086a BE01      		movw r22,r28
 1795 086c 6F5F      		subi r22,lo8(-(1))
 1796 086e 7F4F      		sbci r23,hi8(-(1))
 1797 0870 42E0      		ldi r20,lo8(2)
 1798 0872 0E94 0000 		call fat_seek_file
 1799               	.LVL126:
 1800 0876 8823      		tst r24
 1801 0878 01F4      		brne .L173
 1802               	.LM306:
 1803 087a 80E0      		ldi r24,lo8(__c.2458)
 1804 087c 90E0      		ldi r25,hi8(__c.2458)
 1805 087e 0E94 0000 		call uart_puts_p
 1806               	.LM307:
 1807 0882 C801      		movw r24,r16
 1808 0884 0E94 0000 		call uart_puts
 1809               	.LM308:
 1810 0888 8AE0      		ldi r24,lo8(10)
 1811 088a 0E94 0000 		call uart_putc
 1812               	.LM309:
 1813 088e C701      		movw r24,r14
 1814 0890 0E94 0000 		call fat_close_file
 1815               	.L214:
 1816 0894 80E0      		ldi r24,lo8(0)
 1817 0896 00C0      		rjmp .L172
 1818               	.L173:
 1819               	.LM310:
 1820 0898 8CE3      		ldi r24,lo8(60)
 1821 089a 0E94 0000 		call uart_putc
 1822               	.LM311:
 1823 089e 289A      		sbi 37-32,0
 1824               	.LM312:
 1825 08a0 1092 0000 		sts (read_spot)+1,__zero_reg__
 1826 08a4 1092 0000 		sts read_spot,__zero_reg__
 1827               	.LM313:
 1828 08a8 1092 0000 		sts (checked_spot)+1,__zero_reg__
 1829 08ac 1092 0000 		sts checked_spot,__zero_reg__
 1830 08b0 80E0      		ldi r24,lo8(0)
 1831 08b2 90E0      		ldi r25,hi8(0)
 1832               	.LVL127:
 1833               	.L174:
 1834               	.LBB285:
 1835               	.LM314:
 1836 08b4 FC01      		movw r30,r24
 1837 08b6 E050      		subi r30,lo8(-(input_buffer))
 1838 08b8 F040      		sbci r31,hi8(-(input_buffer))
 1839 08ba 1082      		st Z,__zero_reg__
 1840               	.LM315:
 1841 08bc 0196      		adiw r24,1
 1842 08be 28E0      		ldi r18,hi8(2048)
 1843 08c0 8030      		cpi r24,lo8(2048)
 1844 08c2 9207      		cpc r25,r18
 1845 08c4 01F4      		brne .L174
 1846               	.LBE285:
 1847               	.LM316:
 1848 08c6 8091 C100 		lds r24,193
 1849               	.LVL128:
 1850 08ca 8068      		ori r24,lo8(-128)
 1851 08cc 8093 C100 		sts 193,r24
 1852               	.LM317:
 1853               	/* #APP */
 1854               	 ;  1660 "main.c" 1
 1855 08d0 7894      		sei
 1856               	 ;  0 "" 2
 1857               	/* #NOAPP */
 1858 08d2 DD24      		clr r13
 1859               	.LVL129:
 1860               	.L207:
 1861 08d4 00E0      		ldi r16,lo8(0)
 1862 08d6 10E0      		ldi r17,hi8(0)
 1863               	.LVL130:
 1864 08d8 00C0      		rjmp .L175
 1865               	.L191:
 1866               	.LBB286:
 1867               	.LM318:
 1868 08da 0F5F      		subi r16,lo8(-(1))
 1869 08dc 1F4F      		sbci r17,hi8(-(1))
 1870 08de 83E1      		ldi r24,hi8(5001)
 1871 08e0 0938      		cpi r16,lo8(5001)
 1872 08e2 1807      		cpc r17,r24
 1873 08e4 00F4      		brsh .+2
 1874 08e6 00C0      		rjmp .L176
 1875               	.LM319:
 1876 08e8 8091 0000 		lds r24,checked_spot
 1877 08ec 9091 0000 		lds r25,(checked_spot)+1
 1878 08f0 892B      		or r24,r25
 1879 08f2 01F4      		brne .+2
 1880 08f4 00C0      		rjmp .L177
 1881 08f6 8091 0000 		lds r24,checked_spot
 1882 08fa 9091 0000 		lds r25,(checked_spot)+1
 1883 08fe 8050      		subi r24,lo8(512)
 1884 0900 9240      		sbci r25,hi8(512)
 1885 0902 01F4      		brne .+2
 1886 0904 00C0      		rjmp .L177
 1887 0906 8091 0000 		lds r24,checked_spot
 1888 090a 9091 0000 		lds r25,(checked_spot)+1
 1889 090e 8050      		subi r24,lo8(1024)
 1890 0910 9440      		sbci r25,hi8(1024)
 1891 0912 01F4      		brne .+2
 1892 0914 00C0      		rjmp .L177
 1893 0916 8091 0000 		lds r24,checked_spot
 1894 091a 9091 0000 		lds r25,(checked_spot)+1
 1895 091e 8050      		subi r24,lo8(1536)
 1896 0920 9640      		sbci r25,hi8(1536)
 1897 0922 01F4      		brne .+2
 1898 0924 00C0      		rjmp .L177
 1899               	.LM320:
 1900 0926 8091 0000 		lds r24,checked_spot
 1901 092a 9091 0000 		lds r25,(checked_spot)+1
 1902 092e 8050      		subi r24,lo8(512)
 1903 0930 9240      		sbci r25,hi8(512)
 1904 0932 00F4      		brsh .L178
 1905               	.LM321:
 1906 0934 4091 0000 		lds r20,checked_spot
 1907 0938 5091 0000 		lds r21,(checked_spot)+1
 1908 093c C701      		movw r24,r14
 1909 093e 60E0      		ldi r22,lo8(input_buffer)
 1910 0940 70E0      		ldi r23,hi8(input_buffer)
 1911 0942 0E94 0000 		call fat_write_file
 1912 0946 2091 0000 		lds r18,checked_spot
 1913 094a 3091 0000 		lds r19,(checked_spot)+1
 1914 094e 8217      		cp r24,r18
 1915 0950 9307      		cpc r25,r19
 1916 0952 01F0      		breq .L208
 1917               	.L179:
 1918               	.LM322:
 1919 0954 80E0      		ldi r24,lo8(__c.2466)
 1920 0956 90E0      		ldi r25,hi8(__c.2466)
 1921 0958 0E94 0000 		call uart_puts_p
 1922               	.L208:
 1923 095c 40E0      		ldi r20,lo8(0)
 1924 095e 50E0      		ldi r21,hi8(0)
 1925               	.LVL131:
 1926 0960 00C0      		rjmp .L180
 1927               	.LVL132:
 1928               	.L178:
 1929               	.LM323:
 1930 0962 8091 0000 		lds r24,checked_spot
 1931 0966 9091 0000 		lds r25,(checked_spot)+1
 1932 096a 8050      		subi r24,lo8(1024)
 1933 096c 9440      		sbci r25,hi8(1024)
 1934 096e 00F4      		brsh .L181
 1935               	.LM324:
 1936 0970 4091 0000 		lds r20,checked_spot
 1937 0974 5091 0000 		lds r21,(checked_spot)+1
 1938 0978 4050      		subi r20,lo8(-(-512))
 1939 097a 5240      		sbci r21,hi8(-(-512))
 1940 097c C701      		movw r24,r14
 1941 097e 60E0      		ldi r22,lo8(input_buffer+512)
 1942 0980 70E0      		ldi r23,hi8(input_buffer+512)
 1943 0982 0E94 0000 		call fat_write_file
 1944 0986 2091 0000 		lds r18,checked_spot
 1945 098a 3091 0000 		lds r19,(checked_spot)+1
 1946 098e 2050      		subi r18,lo8(-(-512))
 1947 0990 3240      		sbci r19,hi8(-(-512))
 1948 0992 8217      		cp r24,r18
 1949 0994 9307      		cpc r25,r19
 1950 0996 01F0      		breq .L210
 1951               	.L182:
 1952               	.LM325:
 1953 0998 80E0      		ldi r24,lo8(__c.2468)
 1954 099a 90E0      		ldi r25,hi8(__c.2468)
 1955 099c 0E94 0000 		call uart_puts_p
 1956               	.L210:
 1957 09a0 40E0      		ldi r20,lo8(512)
 1958 09a2 52E0      		ldi r21,hi8(512)
 1959               	.LVL133:
 1960 09a4 00C0      		rjmp .L180
 1961               	.LVL134:
 1962               	.L181:
 1963               	.LM326:
 1964 09a6 8091 0000 		lds r24,checked_spot
 1965 09aa 9091 0000 		lds r25,(checked_spot)+1
 1966 09ae 8050      		subi r24,lo8(1536)
 1967 09b0 9640      		sbci r25,hi8(1536)
 1968 09b2 00F4      		brsh .L183
 1969               	.LM327:
 1970 09b4 4091 0000 		lds r20,checked_spot
 1971 09b8 5091 0000 		lds r21,(checked_spot)+1
 1972 09bc 4050      		subi r20,lo8(-(-1024))
 1973 09be 5440      		sbci r21,hi8(-(-1024))
 1974 09c0 C701      		movw r24,r14
 1975 09c2 60E0      		ldi r22,lo8(input_buffer+1024)
 1976 09c4 70E0      		ldi r23,hi8(input_buffer+1024)
 1977 09c6 0E94 0000 		call fat_write_file
 1978 09ca 2091 0000 		lds r18,checked_spot
 1979 09ce 3091 0000 		lds r19,(checked_spot)+1
 1980 09d2 2050      		subi r18,lo8(-(-1024))
 1981 09d4 3440      		sbci r19,hi8(-(-1024))
 1982 09d6 8217      		cp r24,r18
 1983 09d8 9307      		cpc r25,r19
 1984 09da 01F0      		breq .L211
 1985               	.L184:
 1986               	.LM328:
 1987 09dc 80E0      		ldi r24,lo8(__c.2470)
 1988 09de 90E0      		ldi r25,hi8(__c.2470)
 1989 09e0 0E94 0000 		call uart_puts_p
 1990               	.L211:
 1991 09e4 40E0      		ldi r20,lo8(1024)
 1992 09e6 54E0      		ldi r21,hi8(1024)
 1993               	.LVL135:
 1994 09e8 00C0      		rjmp .L180
 1995               	.LVL136:
 1996               	.L183:
 1997               	.LM329:
 1998 09ea 4091 0000 		lds r20,checked_spot
 1999 09ee 5091 0000 		lds r21,(checked_spot)+1
 2000 09f2 4050      		subi r20,lo8(-(-1536))
 2001 09f4 5640      		sbci r21,hi8(-(-1536))
 2002 09f6 C701      		movw r24,r14
 2003 09f8 60E0      		ldi r22,lo8(input_buffer+1536)
 2004 09fa 70E0      		ldi r23,hi8(input_buffer+1536)
 2005 09fc 0E94 0000 		call fat_write_file
 2006 0a00 2091 0000 		lds r18,checked_spot
 2007 0a04 3091 0000 		lds r19,(checked_spot)+1
 2008 0a08 2050      		subi r18,lo8(-(-1536))
 2009 0a0a 3640      		sbci r19,hi8(-(-1536))
 2010 0a0c 8217      		cp r24,r18
 2011 0a0e 9307      		cpc r25,r19
 2012 0a10 01F0      		breq .L209
 2013               	.L185:
 2014               	.LM330:
 2015 0a12 80E0      		ldi r24,lo8(__c.2472)
 2016 0a14 90E0      		ldi r25,hi8(__c.2472)
 2017 0a16 0E94 0000 		call uart_puts_p
 2018               	.L209:
 2019 0a1a 40E0      		ldi r20,lo8(1536)
 2020 0a1c 56E0      		ldi r21,hi8(1536)
 2021               	.LVL137:
 2022               	.L180:
 2023               	.LM331:
 2024               	/* #APP */
 2025               	 ;  1710 "main.c" 1
 2026 0a1e F894      		cli
 2027               	 ;  0 "" 2
 2028               	/* #NOAPP */
 2029 0a20 BA01      		movw r22,r20
 2030 0a22 00C0      		rjmp .L186
 2031               	.LVL138:
 2032               	.L188:
 2033               	.LM332:
 2034 0a24 8091 0000 		lds r24,checked_spot
 2035 0a28 9091 0000 		lds r25,(checked_spot)+1
 2036 0a2c FC01      		movw r30,r24
 2037 0a2e E050      		subi r30,lo8(-(input_buffer))
 2038 0a30 F040      		sbci r31,hi8(-(input_buffer))
 2039 0a32 2081      		ld r18,Z
 2040 0a34 FB01      		movw r30,r22
 2041 0a36 E050      		subi r30,lo8(-(input_buffer))
 2042 0a38 F040      		sbci r31,hi8(-(input_buffer))
 2043 0a3a 2083      		st Z,r18
 2044 0a3c 0196      		adiw r24,1
 2045 0a3e 9093 0000 		sts (checked_spot)+1,r25
 2046 0a42 8093 0000 		sts checked_spot,r24
 2047               	.LM333:
 2048 0a46 8091 0000 		lds r24,checked_spot
 2049 0a4a 9091 0000 		lds r25,(checked_spot)+1
 2050 0a4e 8050      		subi r24,lo8(2048)
 2051 0a50 9840      		sbci r25,hi8(2048)
 2052 0a52 00F0      		brlo .L187
 2053               	.LM334:
 2054 0a54 1092 0000 		sts (checked_spot)+1,__zero_reg__
 2055 0a58 1092 0000 		sts checked_spot,__zero_reg__
 2056               	.L187:
 2057               	.LM335:
 2058 0a5c 6F5F      		subi r22,lo8(-(1))
 2059 0a5e 7F4F      		sbci r23,hi8(-(1))
 2060               	.LVL139:
 2061               	.L186:
 2062               	.LM336:
 2063 0a60 2091 0000 		lds r18,checked_spot
 2064 0a64 3091 0000 		lds r19,(checked_spot)+1
 2065 0a68 8091 0000 		lds r24,read_spot
 2066 0a6c 9091 0000 		lds r25,(read_spot)+1
 2067 0a70 2817      		cp r18,r24
 2068 0a72 3907      		cpc r19,r25
 2069 0a74 01F4      		brne .L188
 2070               	.LM337:
 2071 0a76 7093 0000 		sts (read_spot)+1,r23
 2072 0a7a 6093 0000 		sts read_spot,r22
 2073               	.LM338:
 2074 0a7e 5093 0000 		sts (checked_spot)+1,r21
 2075 0a82 4093 0000 		sts checked_spot,r20
 2076               	.LM339:
 2077               	/* #APP */
 2078               	 ;  1722 "main.c" 1
 2079 0a86 7894      		sei
 2080               	 ;  0 "" 2
 2081               	.LVL140:
 2082               	/* #NOAPP */
 2083               	.L177:
 2084               	.LM340:
 2085 0a88 0E94 0000 		call sd_raw_sync
 2086               	.LVL141:
 2087 0a8c 00C0      		rjmp .L189
 2088               	.L190:
 2089               	.LM341:
 2090 0a8e 2898      		cbi 37-32,0
 2091               	.LM342:
 2092 0a90 83B7      		in r24,83-32
 2093 0a92 8160      		ori r24,lo8(1)
 2094 0a94 83BF      		out 83-32,r24
 2095               	/* #APP */
 2096               	 ;  1732 "main.c" 1
 2097 0a96 8895      		sleep
 2098               		
 2099               	 ;  0 "" 2
 2100               	/* #NOAPP */
 2101 0a98 83B7      		in r24,83-32
 2102 0a9a 8E7F      		andi r24,lo8(-2)
 2103 0a9c 83BF      		out 83-32,r24
 2104               	.L189:
 2105               	.LM343:
 2106 0a9e 2091 0000 		lds r18,checked_spot
 2107 0aa2 3091 0000 		lds r19,(checked_spot)+1
 2108 0aa6 8091 0000 		lds r24,read_spot
 2109 0aaa 9091 0000 		lds r25,(read_spot)+1
 2110 0aae 2817      		cp r18,r24
 2111 0ab0 3907      		cpc r19,r25
 2112 0ab2 01F0      		breq .L190
 2113 0ab4 00E0      		ldi r16,lo8(0)
 2114 0ab6 10E0      		ldi r17,hi8(0)
 2115               	.L176:
 2116               	.LM344:
 2117 0ab8 81E0      		ldi r24,lo8(1)
 2118 0aba 90E0      		ldi r25,hi8(1)
 2119 0abc 0E94 0000 		call delay_ms
 2120               	.L175:
 2121               	.LM345:
 2122 0ac0 2091 0000 		lds r18,checked_spot
 2123 0ac4 3091 0000 		lds r19,(checked_spot)+1
 2124 0ac8 8091 0000 		lds r24,read_spot
 2125 0acc 9091 0000 		lds r25,(read_spot)+1
 2126 0ad0 2817      		cp r18,r24
 2127 0ad2 3907      		cpc r19,r25
 2128 0ad4 01F4      		brne .+2
 2129 0ad6 00C0      		rjmp .L191
 2130               	.LM346:
 2131 0ad8 E091 0000 		lds r30,checked_spot
 2132 0adc F091 0000 		lds r31,(checked_spot)+1
 2133 0ae0 E050      		subi r30,lo8(-(input_buffer))
 2134 0ae2 F040      		sbci r31,hi8(-(input_buffer))
 2135 0ae4 9081      		ld r25,Z
 2136 0ae6 8091 0000 		lds r24,setting_escape_character
 2137 0aea 9817      		cp r25,r24
 2138 0aec 01F4      		brne .L192
 2139               	.LM347:
 2140 0aee D394      		inc r13
 2141               	.LM348:
 2142 0af0 8091 0000 		lds r24,setting_max_escape_character
 2143 0af4 D816      		cp r13,r24
 2144 0af6 01F4      		brne .L193
 2145               	.LM349:
 2146               	/* #APP */
 2147               	 ;  1747 "main.c" 1
 2148 0af8 F894      		cli
 2149               	 ;  0 "" 2
 2150               	.LM350:
 2151               	/* #NOAPP */
 2152 0afa 8091 C100 		lds r24,193
 2153 0afe 8F77      		andi r24,lo8(127)
 2154 0b00 8093 C100 		sts 193,r24
 2155 0b04 00C0      		rjmp .L194
 2156               	.L192:
 2157               	.LM351:
 2158 0b06 DD24      		clr r13
 2159               	.L193:
 2160               	.LM352:
 2161 0b08 8091 0000 		lds r24,checked_spot
 2162 0b0c 9091 0000 		lds r25,(checked_spot)+1
 2163 0b10 0196      		adiw r24,1
 2164 0b12 9093 0000 		sts (checked_spot)+1,r25
 2165 0b16 8093 0000 		sts checked_spot,r24
 2166               	.LM353:
 2167 0b1a 8091 0000 		lds r24,checked_spot
 2168 0b1e 9091 0000 		lds r25,(checked_spot)+1
 2169 0b22 8050      		subi r24,lo8(512)
 2170 0b24 9240      		sbci r25,hi8(512)
 2171 0b26 01F4      		brne .L195
 2172               	.LM354:
 2173 0b28 C701      		movw r24,r14
 2174 0b2a 60E0      		ldi r22,lo8(input_buffer)
 2175 0b2c 70E0      		ldi r23,hi8(input_buffer)
 2176 0b2e 40E0      		ldi r20,lo8(512)
 2177 0b30 52E0      		ldi r21,hi8(512)
 2178 0b32 0E94 0000 		call fat_write_file
 2179 0b36 8050      		subi r24,lo8(512)
 2180 0b38 9240      		sbci r25,hi8(512)
 2181 0b3a 01F0      		breq .L195
 2182               	.LM355:
 2183 0b3c 80E0      		ldi r24,lo8(__c.2484)
 2184 0b3e 90E0      		ldi r25,hi8(__c.2484)
 2185 0b40 00C0      		rjmp .L212
 2186               	.L195:
 2187               	.LM356:
 2188 0b42 8091 0000 		lds r24,checked_spot
 2189 0b46 9091 0000 		lds r25,(checked_spot)+1
 2190 0b4a 8050      		subi r24,lo8(1024)
 2191 0b4c 9440      		sbci r25,hi8(1024)
 2192 0b4e 01F4      		brne .L196
 2193               	.LM357:
 2194 0b50 C701      		movw r24,r14
 2195 0b52 60E0      		ldi r22,lo8(input_buffer+512)
 2196 0b54 70E0      		ldi r23,hi8(input_buffer+512)
 2197 0b56 40E0      		ldi r20,lo8(512)
 2198 0b58 52E0      		ldi r21,hi8(512)
 2199 0b5a 0E94 0000 		call fat_write_file
 2200 0b5e 8050      		subi r24,lo8(512)
 2201 0b60 9240      		sbci r25,hi8(512)
 2202 0b62 01F0      		breq .L196
 2203               	.LM358:
 2204 0b64 80E0      		ldi r24,lo8(__c.2486)
 2205 0b66 90E0      		ldi r25,hi8(__c.2486)
 2206 0b68 00C0      		rjmp .L212
 2207               	.L196:
 2208               	.LM359:
 2209 0b6a 8091 0000 		lds r24,checked_spot
 2210 0b6e 9091 0000 		lds r25,(checked_spot)+1
 2211 0b72 8050      		subi r24,lo8(1536)
 2212 0b74 9640      		sbci r25,hi8(1536)
 2213 0b76 01F4      		brne .L197
 2214               	.LM360:
 2215 0b78 C701      		movw r24,r14
 2216 0b7a 60E0      		ldi r22,lo8(input_buffer+1024)
 2217 0b7c 70E0      		ldi r23,hi8(input_buffer+1024)
 2218 0b7e 40E0      		ldi r20,lo8(512)
 2219 0b80 52E0      		ldi r21,hi8(512)
 2220 0b82 0E94 0000 		call fat_write_file
 2221 0b86 8050      		subi r24,lo8(512)
 2222 0b88 9240      		sbci r25,hi8(512)
 2223 0b8a 01F0      		breq .L197
 2224               	.LM361:
 2225 0b8c 80E0      		ldi r24,lo8(__c.2488)
 2226 0b8e 90E0      		ldi r25,hi8(__c.2488)
 2227 0b90 00C0      		rjmp .L212
 2228               	.L197:
 2229               	.LM362:
 2230 0b92 8091 0000 		lds r24,checked_spot
 2231 0b96 9091 0000 		lds r25,(checked_spot)+1
 2232 0b9a 8050      		subi r24,lo8(2048)
 2233 0b9c 9840      		sbci r25,hi8(2048)
 2234 0b9e 01F0      		breq .+2
 2235 0ba0 00C0      		rjmp .L207
 2236               	.LM363:
 2237 0ba2 1092 0000 		sts (checked_spot)+1,__zero_reg__
 2238 0ba6 1092 0000 		sts checked_spot,__zero_reg__
 2239               	.LM364:
 2240 0baa C701      		movw r24,r14
 2241 0bac 60E0      		ldi r22,lo8(input_buffer+1536)
 2242 0bae 70E0      		ldi r23,hi8(input_buffer+1536)
 2243 0bb0 40E0      		ldi r20,lo8(512)
 2244 0bb2 52E0      		ldi r21,hi8(512)
 2245 0bb4 0E94 0000 		call fat_write_file
 2246 0bb8 8050      		subi r24,lo8(512)
 2247 0bba 9240      		sbci r25,hi8(512)
 2248 0bbc 01F4      		brne .+2
 2249 0bbe 00C0      		rjmp .L207
 2250               	.LM365:
 2251 0bc0 80E0      		ldi r24,lo8(__c.2490)
 2252 0bc2 90E0      		ldi r25,hi8(__c.2490)
 2253               	.L212:
 2254 0bc4 0E94 0000 		call uart_puts_p
 2255               	.L194:
 2256               	.LBE286:
 2257               	.LM366:
 2258 0bc8 8091 0000 		lds r24,checked_spot
 2259 0bcc 9091 0000 		lds r25,(checked_spot)+1
 2260 0bd0 892B      		or r24,r25
 2261 0bd2 01F4      		brne .+2
 2262 0bd4 00C0      		rjmp .L199
 2263 0bd6 8091 0000 		lds r24,checked_spot
 2264 0bda 9091 0000 		lds r25,(checked_spot)+1
 2265 0bde 8050      		subi r24,lo8(512)
 2266 0be0 9240      		sbci r25,hi8(512)
 2267 0be2 01F4      		brne .+2
 2268 0be4 00C0      		rjmp .L199
 2269 0be6 8091 0000 		lds r24,checked_spot
 2270 0bea 9091 0000 		lds r25,(checked_spot)+1
 2271 0bee 8050      		subi r24,lo8(1024)
 2272 0bf0 9440      		sbci r25,hi8(1024)
 2273 0bf2 01F4      		brne .+2
 2274 0bf4 00C0      		rjmp .L199
 2275 0bf6 8091 0000 		lds r24,checked_spot
 2276 0bfa 9091 0000 		lds r25,(checked_spot)+1
 2277 0bfe 8050      		subi r24,lo8(1536)
 2278 0c00 9640      		sbci r25,hi8(1536)
 2279 0c02 01F4      		brne .+2
 2280 0c04 00C0      		rjmp .L199
 2281               	.LM367:
 2282 0c06 8091 0000 		lds r24,checked_spot
 2283 0c0a 9091 0000 		lds r25,(checked_spot)+1
 2284 0c0e 8050      		subi r24,lo8(512)
 2285 0c10 9240      		sbci r25,hi8(512)
 2286 0c12 00F4      		brsh .L200
 2287               	.LM368:
 2288 0c14 4091 0000 		lds r20,checked_spot
 2289 0c18 5091 0000 		lds r21,(checked_spot)+1
 2290 0c1c C701      		movw r24,r14
 2291 0c1e 60E0      		ldi r22,lo8(input_buffer)
 2292 0c20 70E0      		ldi r23,hi8(input_buffer)
 2293 0c22 0E94 0000 		call fat_write_file
 2294 0c26 2091 0000 		lds r18,checked_spot
 2295 0c2a 3091 0000 		lds r19,(checked_spot)+1
 2296 0c2e 8217      		cp r24,r18
 2297 0c30 9307      		cpc r25,r19
 2298 0c32 01F4      		brne .+2
 2299 0c34 00C0      		rjmp .L199
 2300               	.LM369:
 2301 0c36 80E0      		ldi r24,lo8(__c.2493)
 2302 0c38 90E0      		ldi r25,hi8(__c.2493)
 2303 0c3a 00C0      		rjmp .L213
 2304               	.L200:
 2305               	.LM370:
 2306 0c3c 8091 0000 		lds r24,checked_spot
 2307 0c40 9091 0000 		lds r25,(checked_spot)+1
 2308 0c44 8050      		subi r24,lo8(1024)
 2309 0c46 9440      		sbci r25,hi8(1024)
 2310 0c48 00F4      		brsh .L201
 2311               	.LM371:
 2312 0c4a 4091 0000 		lds r20,checked_spot
 2313 0c4e 5091 0000 		lds r21,(checked_spot)+1
 2314 0c52 4050      		subi r20,lo8(-(-512))
 2315 0c54 5240      		sbci r21,hi8(-(-512))
 2316 0c56 C701      		movw r24,r14
 2317 0c58 60E0      		ldi r22,lo8(input_buffer+512)
 2318 0c5a 70E0      		ldi r23,hi8(input_buffer+512)
 2319 0c5c 0E94 0000 		call fat_write_file
 2320 0c60 2091 0000 		lds r18,checked_spot
 2321 0c64 3091 0000 		lds r19,(checked_spot)+1
 2322 0c68 2050      		subi r18,lo8(-(-512))
 2323 0c6a 3240      		sbci r19,hi8(-(-512))
 2324 0c6c 8217      		cp r24,r18
 2325 0c6e 9307      		cpc r25,r19
 2326 0c70 01F0      		breq .L199
 2327               	.LM372:
 2328 0c72 80E0      		ldi r24,lo8(__c.2495)
 2329 0c74 90E0      		ldi r25,hi8(__c.2495)
 2330 0c76 00C0      		rjmp .L213
 2331               	.L201:
 2332               	.LM373:
 2333 0c78 8091 0000 		lds r24,checked_spot
 2334 0c7c 9091 0000 		lds r25,(checked_spot)+1
 2335 0c80 8050      		subi r24,lo8(1536)
 2336 0c82 9640      		sbci r25,hi8(1536)
 2337 0c84 00F4      		brsh .L202
 2338               	.LM374:
 2339 0c86 4091 0000 		lds r20,checked_spot
 2340 0c8a 5091 0000 		lds r21,(checked_spot)+1
 2341 0c8e 4050      		subi r20,lo8(-(-1024))
 2342 0c90 5440      		sbci r21,hi8(-(-1024))
 2343 0c92 C701      		movw r24,r14
 2344 0c94 60E0      		ldi r22,lo8(input_buffer+1024)
 2345 0c96 70E0      		ldi r23,hi8(input_buffer+1024)
 2346 0c98 0E94 0000 		call fat_write_file
 2347 0c9c 2091 0000 		lds r18,checked_spot
 2348 0ca0 3091 0000 		lds r19,(checked_spot)+1
 2349 0ca4 2050      		subi r18,lo8(-(-1024))
 2350 0ca6 3440      		sbci r19,hi8(-(-1024))
 2351 0ca8 8217      		cp r24,r18
 2352 0caa 9307      		cpc r25,r19
 2353 0cac 01F0      		breq .L199
 2354               	.LM375:
 2355 0cae 80E0      		ldi r24,lo8(__c.2497)
 2356 0cb0 90E0      		ldi r25,hi8(__c.2497)
 2357 0cb2 00C0      		rjmp .L213
 2358               	.L202:
 2359               	.LM376:
 2360 0cb4 4091 0000 		lds r20,checked_spot
 2361 0cb8 5091 0000 		lds r21,(checked_spot)+1
 2362 0cbc 4050      		subi r20,lo8(-(-1536))
 2363 0cbe 5640      		sbci r21,hi8(-(-1536))
 2364 0cc0 C701      		movw r24,r14
 2365 0cc2 60E0      		ldi r22,lo8(input_buffer+1536)
 2366 0cc4 70E0      		ldi r23,hi8(input_buffer+1536)
 2367 0cc6 0E94 0000 		call fat_write_file
 2368 0cca 2091 0000 		lds r18,checked_spot
 2369 0cce 3091 0000 		lds r19,(checked_spot)+1
 2370 0cd2 2050      		subi r18,lo8(-(-1536))
 2371 0cd4 3640      		sbci r19,hi8(-(-1536))
 2372 0cd6 8217      		cp r24,r18
 2373 0cd8 9307      		cpc r25,r19
 2374 0cda 01F0      		breq .L199
 2375               	.LM377:
 2376 0cdc 80E0      		ldi r24,lo8(__c.2499)
 2377 0cde 90E0      		ldi r25,hi8(__c.2499)
 2378               	.L213:
 2379 0ce0 0E94 0000 		call uart_puts_p
 2380               	.L199:
 2381               	.LM378:
 2382 0ce4 C701      		movw r24,r14
 2383 0ce6 0E94 0000 		call fat_close_file
 2384               	.LM379:
 2385 0cea 2898      		cbi 37-32,0
 2386               	.LM380:
 2387 0cec 80E0      		ldi r24,lo8(__c.2501)
 2388 0cee 90E0      		ldi r25,hi8(__c.2501)
 2389 0cf0 0E94 0000 		call uart_puts_p
 2390 0cf4 81E0      		ldi r24,lo8(1)
 2391               	.LVL142:
 2392               	.L172:
 2393               	/* epilogue start */
 2394               	.LM381:
 2395 0cf6 0F90      		pop __tmp_reg__
 2396 0cf8 0F90      		pop __tmp_reg__
 2397 0cfa 0F90      		pop __tmp_reg__
 2398 0cfc 0F90      		pop __tmp_reg__
 2399 0cfe CF91      		pop r28
 2400 0d00 DF91      		pop r29
 2401 0d02 1F91      		pop r17
 2402 0d04 0F91      		pop r16
 2403               	.LVL143:
 2404 0d06 FF90      		pop r15
 2405 0d08 EF90      		pop r14
 2406               	.LVL144:
 2407 0d0a DF90      		pop r13
 2408               	.LVL145:
 2409 0d0c 0895      		ret
 2410               	.LFE14:
 2412               		.data
 2413               	.LC1:
 2414 0002 4C4F 4725 		.string	"LOG%05u.txt"
 2414      3035 752E 
 2414      7478 7400 
 2415               		.text
 2416               	.global	newlog
 2418               	newlog:
 2419               	.LFB12:
 2420               	.LM382:
 2421 0d0e 9F92      		push r9
 2422 0d10 AF92      		push r10
 2423 0d12 BF92      		push r11
 2424 0d14 CF92      		push r12
 2425 0d16 DF92      		push r13
 2426 0d18 EF92      		push r14
 2427 0d1a FF92      		push r15
 2428 0d1c 0F93      		push r16
 2429 0d1e 1F93      		push r17
 2430 0d20 DF93      		push r29
 2431 0d22 CF93      		push r28
 2432 0d24 CDB7      		in r28,__SP_L__
 2433 0d26 DEB7      		in r29,__SP_H__
 2434 0d28 E197      		sbiw r28,49
 2435 0d2a 0FB6      		in __tmp_reg__,__SREG__
 2436 0d2c F894      		cli
 2437 0d2e DEBF      		out __SP_H__,r29
 2438 0d30 0FBE      		out __SREG__,__tmp_reg__
 2439 0d32 CDBF      		out __SP_L__,r28
 2440               	/* prologue: function */
 2441               	/* frame size = 49 */
 2442               	.L216:
 2443               	.LBB287:
 2444               	.LBB288:
 2445               	.LM383:
 2446 0d34 F999      		sbic 63-32,1
 2447 0d36 00C0      		rjmp .L216
 2448               	.LM384:
 2449 0d38 12BC      		out 66-32,__zero_reg__
 2450               	.LM385:
 2451 0d3a 83E0      		ldi r24,lo8(3)
 2452 0d3c 81BD      		out 65-32,r24
 2453               	.LM386:
 2454 0d3e F89A      		sbi 63-32,0
 2455               	.LM387:
 2456 0d40 30B5      		in r19,64-32
 2457               	.LVL146:
 2458               	.L217:
 2459               	.LBE288:
 2460               	.LBE287:
 2461               	.LBB289:
 2462               	.LBB290:
 2463               	.LM388:
 2464 0d42 F999      		sbic 63-32,1
 2465 0d44 00C0      		rjmp .L217
 2466               	.LM389:
 2467 0d46 12BC      		out 66-32,__zero_reg__
 2468               	.LM390:
 2469 0d48 84E0      		ldi r24,lo8(4)
 2470 0d4a 81BD      		out 65-32,r24
 2471               	.LM391:
 2472 0d4c F89A      		sbi 63-32,0
 2473               	.LM392:
 2474 0d4e 20B5      		in r18,64-32
 2475               	.LVL147:
 2476               	.LBE290:
 2477               	.LBE289:
 2478               	.LM393:
 2479 0d50 3F3F      		cpi r19,lo8(-1)
 2480 0d52 01F4      		brne .L218
 2481 0d54 2F3F      		cpi r18,lo8(-1)
 2482 0d56 01F4      		brne .L218
 2483               	.L231:
 2484               	.LBB291:
 2485               	.LBB292:
 2486               	.LM394:
 2487 0d58 F999      		sbic 63-32,1
 2488 0d5a 00C0      		rjmp .L231
 2489               	.LM395:
 2490 0d5c 12BC      		out 66-32,__zero_reg__
 2491               	.LM396:
 2492 0d5e 83E0      		ldi r24,lo8(3)
 2493 0d60 81BD      		out 65-32,r24
 2494               	.LM397:
 2495 0d62 10BC      		out 64-32,__zero_reg__
 2496               	.LM398:
 2497 0d64 FA9A      		sbi 63-32,2
 2498               	.LM399:
 2499 0d66 F99A      		sbi 63-32,1
 2500               	.L220:
 2501               	.LBE292:
 2502               	.LBE291:
 2503               	.LBB293:
 2504               	.LBB294:
 2505               	.LM400:
 2506 0d68 F999      		sbic 63-32,1
 2507 0d6a 00C0      		rjmp .L220
 2508               	.LM401:
 2509 0d6c 12BC      		out 66-32,__zero_reg__
 2510               	.LM402:
 2511 0d6e 84E0      		ldi r24,lo8(4)
 2512 0d70 81BD      		out 65-32,r24
 2513               	.LM403:
 2514 0d72 10BC      		out 64-32,__zero_reg__
 2515               	.LM404:
 2516 0d74 FA9A      		sbi 63-32,2
 2517               	.LM405:
 2518 0d76 F99A      		sbi 63-32,1
 2519 0d78 CC24      		clr r12
 2520 0d7a DD24      		clr r13
 2521               	.LVL148:
 2522 0d7c 00C0      		rjmp .L221
 2523               	.LVL149:
 2524               	.L218:
 2525               	.LBE294:
 2526               	.LBE293:
 2527               	.LM406:
 2528 0d7e 922F      		mov r25,r18
 2529               	.LVL150:
 2530 0d80 80E0      		ldi r24,lo8(0)
 2531               	.LVL151:
 2532               	.LM407:
 2533 0d82 C32E      		mov r12,r19
 2534               	.LVL152:
 2535 0d84 DD24      		clr r13
 2536               	.LVL153:
 2537 0d86 C82A      		or r12,r24
 2538 0d88 D92A      		or r13,r25
 2539               	.LVL154:
 2540               	.LM408:
 2541 0d8a 8EEF      		ldi r24,lo8(-2)
 2542 0d8c C816      		cp r12,r24
 2543 0d8e 8FEF      		ldi r24,hi8(-2)
 2544 0d90 D806      		cpc r13,r24
 2545 0d92 01F4      		brne .L221
 2546               	.LM409:
 2547 0d94 80E0      		ldi r24,lo8(__c.2227)
 2548 0d96 90E0      		ldi r25,hi8(__c.2227)
 2549 0d98 00C0      		rjmp .L240
 2550               	.L221:
 2551               	.LM410:
 2552 0d9a 00D0      		rcall .
 2553 0d9c 00D0      		rcall .
 2554 0d9e 00D0      		rcall .
 2555 0da0 EDB7      		in r30,__SP_L__
 2556 0da2 FEB7      		in r31,__SP_H__
 2557 0da4 3196      		adiw r30,1
 2558 0da6 00E0      		ldi r16,lo8(general_buffer)
 2559 0da8 10E0      		ldi r17,hi8(general_buffer)
 2560 0daa ADB7      		in r26,__SP_L__
 2561 0dac BEB7      		in r27,__SP_H__
 2562 0dae 1296      		adiw r26,1+1
 2563 0db0 1C93      		st X,r17
 2564 0db2 0E93      		st -X,r16
 2565 0db4 1197      		sbiw r26,1
 2566 0db6 50E0      		ldi r21,lo8(.LC1)
 2567 0db8 E52E      		mov r14,r21
 2568 0dba 50E0      		ldi r21,hi8(.LC1)
 2569 0dbc F52E      		mov r15,r21
 2570 0dbe F382      		std Z+3,r15
 2571 0dc0 E282      		std Z+2,r14
 2572 0dc2 D582      		std Z+5,r13
 2573 0dc4 C482      		std Z+4,r12
 2574 0dc6 0E94 0000 		call sprintf
 2575               	.LVL155:
 2576 0dca 8DB7      		in r24,__SP_L__
 2577 0dcc 9EB7      		in r25,__SP_H__
 2578 0dce 0696      		adiw r24,6
 2579 0dd0 0FB6      		in __tmp_reg__,__SREG__
 2580 0dd2 F894      		cli
 2581 0dd4 9EBF      		out __SP_H__,r25
 2582 0dd6 0FBE      		out __SREG__,__tmp_reg__
 2583 0dd8 8DBF      		out __SP_L__,r24
 2584               	.LM411:
 2585 0dda 902E      		mov r9,r16
 2586 0ddc 012F      		mov r16,r17
 2587 0dde 5E01      		movw r10,r28
 2588 0de0 0894      		sec
 2589 0de2 A11C      		adc r10,__zero_reg__
 2590 0de4 B11C      		adc r11,__zero_reg__
 2591               	.LM412:
 2592 0de6 1E2D      		mov r17,r14
 2593 0de8 EF2C      		mov r14,r15
 2594 0dea 00C0      		rjmp .L223
 2595               	.LVL156:
 2596               	.L224:
 2597               	.LM413:
 2598 0dec 6901      		movw r12,r18
 2599               	.LM414:
 2600 0dee 00D0      		rcall .
 2601 0df0 00D0      		rcall .
 2602 0df2 00D0      		rcall .
 2603 0df4 EDB7      		in r30,__SP_L__
 2604 0df6 FEB7      		in r31,__SP_H__
 2605 0df8 3196      		adiw r30,1
 2606 0dfa ADB7      		in r26,__SP_L__
 2607 0dfc BEB7      		in r27,__SP_H__
 2608 0dfe 1196      		adiw r26,1
 2609 0e00 9C92      		st X,r9
 2610 0e02 1197      		sbiw r26,1
 2611 0e04 1296      		adiw r26,2
 2612 0e06 0C93      		st X,r16
 2613 0e08 1283      		std Z+2,r17
 2614 0e0a E382      		std Z+3,r14
 2615 0e0c 3583      		std Z+5,r19
 2616 0e0e 2483      		std Z+4,r18
 2617 0e10 0E94 0000 		call sprintf
 2618               	.LVL157:
 2619               	.LM415:
 2620 0e14 8DB7      		in r24,__SP_L__
 2621 0e16 9EB7      		in r25,__SP_H__
 2622 0e18 0696      		adiw r24,6
 2623 0e1a 0FB6      		in __tmp_reg__,__SREG__
 2624 0e1c F894      		cli
 2625 0e1e 9EBF      		out __SP_H__,r25
 2626 0e20 0FBE      		out __SREG__,__tmp_reg__
 2627 0e22 8DBF      		out __SP_L__,r24
 2628 0e24 9EEF      		ldi r25,lo8(-2)
 2629 0e26 C916      		cp r12,r25
 2630 0e28 9FEF      		ldi r25,hi8(-2)
 2631 0e2a D906      		cpc r13,r25
 2632 0e2c 00F0      		brlo .L223
 2633               	.LM416:
 2634 0e2e 80E0      		ldi r24,lo8(__c.2231)
 2635 0e30 90E0      		ldi r25,hi8(__c.2231)
 2636               	.LVL158:
 2637               	.L240:
 2638 0e32 0E94 0000 		call uart_puts_p
 2639               	.LVL159:
 2640 0e36 00C0      		rjmp .L229
 2641               	.L223:
 2642               	.LM417:
 2643 0e38 8091 0000 		lds r24,dd
 2644 0e3c 9091 0000 		lds r25,(dd)+1
 2645 0e40 60E0      		ldi r22,lo8(general_buffer)
 2646 0e42 70E0      		ldi r23,hi8(general_buffer)
 2647 0e44 A501      		movw r20,r10
 2648 0e46 0E94 0000 		call fat_create_file
 2649 0e4a 9601      		movw r18,r12
 2650 0e4c 2F5F      		subi r18,lo8(-(1))
 2651 0e4e 3F4F      		sbci r19,hi8(-(1))
 2652               	.LVL160:
 2653 0e50 8823      		tst r24
 2654 0e52 01F0      		breq .L224
 2655               	.LM418:
 2656 0e54 932F      		mov r25,r19
 2657               	.LVL161:
 2658               	.L225:
 2659               	.LBB295:
 2660               	.LBB296:
 2661               	.LM419:
 2662 0e56 F999      		sbic 63-32,1
 2663 0e58 00C0      		rjmp .L225
 2664               	.LM420:
 2665 0e5a 12BC      		out 66-32,__zero_reg__
 2666               	.LM421:
 2667 0e5c 83E0      		ldi r24,lo8(3)
 2668 0e5e 81BD      		out 65-32,r24
 2669               	.LM422:
 2670 0e60 20BD      		out 64-32,r18
 2671               	.LM423:
 2672 0e62 FA9A      		sbi 63-32,2
 2673               	.LM424:
 2674 0e64 F99A      		sbi 63-32,1
 2675               	.L226:
 2676               	.LBE296:
 2677               	.LBE295:
 2678               	.LBB297:
 2679               	.LBB298:
 2680               	.LM425:
 2681 0e66 F999      		sbic 63-32,1
 2682 0e68 00C0      		rjmp .L226
 2683               	.LM426:
 2684 0e6a 12BC      		out 66-32,__zero_reg__
 2685               	.LM427:
 2686 0e6c 84E0      		ldi r24,lo8(4)
 2687 0e6e 81BD      		out 65-32,r24
 2688               	.LM428:
 2689 0e70 F89A      		sbi 63-32,0
 2690               	.LM429:
 2691 0e72 80B5      		in r24,64-32
 2692               	.LBE298:
 2693               	.LBE297:
 2694               	.LM430:
 2695 0e74 8917      		cp r24,r25
 2696 0e76 01F0      		breq .L227
 2697               	.L230:
 2698               	.LBB299:
 2699               	.LBB300:
 2700               	.LM431:
 2701 0e78 F999      		sbic 63-32,1
 2702 0e7a 00C0      		rjmp .L230
 2703               	.LM432:
 2704 0e7c 12BC      		out 66-32,__zero_reg__
 2705               	.LM433:
 2706 0e7e 84E0      		ldi r24,lo8(4)
 2707 0e80 81BD      		out 65-32,r24
 2708               	.LM434:
 2709 0e82 90BD      		out 64-32,r25
 2710               	.LM435:
 2711 0e84 FA9A      		sbi 63-32,2
 2712               	.LM436:
 2713 0e86 F99A      		sbi 63-32,1
 2714               	.L227:
 2715               	.LBE300:
 2716               	.LBE299:
 2717               	.LM437:
 2718 0e88 80E0      		ldi r24,lo8(general_buffer)
 2719 0e8a 90E0      		ldi r25,hi8(general_buffer)
 2720 0e8c 0E94 0000 		call append_file
 2721               	.LVL162:
 2722               	.L229:
 2723               	/* epilogue start */
 2724               	.LM438:
 2725 0e90 E196      		adiw r28,49
 2726 0e92 0FB6      		in __tmp_reg__,__SREG__
 2727 0e94 F894      		cli
 2728 0e96 DEBF      		out __SP_H__,r29
 2729 0e98 0FBE      		out __SREG__,__tmp_reg__
 2730 0e9a CDBF      		out __SP_L__,r28
 2731 0e9c CF91      		pop r28
 2732 0e9e DF91      		pop r29
 2733 0ea0 1F91      		pop r17
 2734 0ea2 0F91      		pop r16
 2735 0ea4 FF90      		pop r15
 2736 0ea6 EF90      		pop r14
 2737 0ea8 DF90      		pop r13
 2738               	.LVL163:
 2739 0eaa CF90      		pop r12
 2740               	.LVL164:
 2741 0eac BF90      		pop r11
 2742 0eae AF90      		pop r10
 2743 0eb0 9F90      		pop r9
 2744 0eb2 0895      		ret
 2745               	.LFE12:
 2747               		.data
 2748               	.LC2:
 2749 000e 5345 514C 		.string	"SEQLOG.txt"
 2749      4F47 2E74 
 2749      7874 00
 2750               		.text
 2751               	.global	seqlog
 2753               	seqlog:
 2754               	.LFB11:
 2755               	.LM439:
 2756 0eb4 EF92      		push r14
 2757 0eb6 FF92      		push r15
 2758 0eb8 0F93      		push r16
 2759 0eba 1F93      		push r17
 2760 0ebc DF93      		push r29
 2761 0ebe CF93      		push r28
 2762 0ec0 CDB7      		in r28,__SP_L__
 2763 0ec2 DEB7      		in r29,__SP_H__
 2764 0ec4 EE97      		sbiw r28,62
 2765 0ec6 0FB6      		in __tmp_reg__,__SREG__
 2766 0ec8 F894      		cli
 2767 0eca DEBF      		out __SP_H__,r29
 2768 0ecc 0FBE      		out __SREG__,__tmp_reg__
 2769 0ece CDBF      		out __SP_L__,r28
 2770               	/* prologue: function */
 2771               	/* frame size = 62 */
 2772               	.LM440:
 2773 0ed0 8E01      		movw r16,r28
 2774 0ed2 0F5F      		subi r16,lo8(-(1))
 2775 0ed4 1F4F      		sbci r17,hi8(-(1))
 2776 0ed6 C801      		movw r24,r16
 2777 0ed8 60E0      		ldi r22,lo8(.LC2)
 2778 0eda 70E0      		ldi r23,hi8(.LC2)
 2779 0edc 0E94 0000 		call strcpy
 2780               	.LM441:
 2781 0ee0 6091 0000 		lds r22,dd
 2782 0ee4 7091 0000 		lds r23,(dd)+1
 2783 0ee8 8091 0000 		lds r24,fs
 2784 0eec 9091 0000 		lds r25,(fs)+1
 2785 0ef0 A801      		movw r20,r16
 2786 0ef2 0E94 0000 		call open_file_in_dir
 2787 0ef6 7C01      		movw r14,r24
 2788               	.LVL165:
 2789               	.LM442:
 2790 0ef8 0097      		sbiw r24,0
 2791 0efa 01F4      		brne .L242
 2792               	.LVL166:
 2793               	.LBB301:
 2794               	.LM443:
 2795 0efc 80E0      		ldi r24,lo8(__c.2212)
 2796 0efe 90E0      		ldi r25,hi8(__c.2212)
 2797               	.LVL167:
 2798 0f00 0E94 0000 		call uart_puts_p
 2799               	.LM444:
 2800 0f04 8091 0000 		lds r24,dd
 2801 0f08 9091 0000 		lds r25,(dd)+1
 2802 0f0c B801      		movw r22,r16
 2803 0f0e AE01      		movw r20,r28
 2804 0f10 425F      		subi r20,lo8(-(14))
 2805 0f12 5F4F      		sbci r21,hi8(-(14))
 2806 0f14 0E94 0000 		call fat_create_file
 2807 0f18 8823      		tst r24
 2808 0f1a 01F4      		brne .L242
 2809               	.LM445:
 2810 0f1c 80E0      		ldi r24,lo8(__c.2215)
 2811 0f1e 90E0      		ldi r25,hi8(__c.2215)
 2812 0f20 0E94 0000 		call uart_puts_p
 2813 0f24 00C0      		rjmp .L244
 2814               	.LVL168:
 2815               	.L242:
 2816               	.LBE301:
 2817               	.LM446:
 2818 0f26 C701      		movw r24,r14
 2819 0f28 0E94 0000 		call fat_close_file
 2820               	.LM447:
 2821 0f2c CE01      		movw r24,r28
 2822 0f2e 0196      		adiw r24,1
 2823 0f30 0E94 0000 		call append_file
 2824               	.L244:
 2825               	/* epilogue start */
 2826               	.LM448:
 2827 0f34 EE96      		adiw r28,62
 2828 0f36 0FB6      		in __tmp_reg__,__SREG__
 2829 0f38 F894      		cli
 2830 0f3a DEBF      		out __SP_H__,r29
 2831 0f3c 0FBE      		out __SREG__,__tmp_reg__
 2832 0f3e CDBF      		out __SP_L__,r28
 2833 0f40 CF91      		pop r28
 2834 0f42 DF91      		pop r29
 2835 0f44 1F91      		pop r17
 2836 0f46 0F91      		pop r16
 2837 0f48 FF90      		pop r15
 2838 0f4a EF90      		pop r14
 2839               	.LVL169:
 2840 0f4c 0895      		ret
 2841               	.LFE11:
 2843               		.data
 2844               	.LC3:
 2845 0019 434F 4E46 		.string	"CONFIG.txt"
 2845      4947 2E74 
 2845      7874 00
 2846               	.LC4:
 2847 0024 4661 696C 		.string	"Failed to create config file"
 2847      6564 2074 
 2847      6F20 6372 
 2847      6561 7465 
 2847      2063 6F6E 
 2848               	.LC5:
 2849 0041 2165 7272 		.string	"!error opening config file\n"
 2849      6F72 206F 
 2849      7065 6E69 
 2849      6E67 2063 
 2849      6F6E 6669 
 2850               	.LC6:
 2851 005d 3234 3030 		.string	"2400"
 2851      00
 2852               	.LC7:
 2853 0062 3438 3030 		.string	"4800"
 2853      00
 2854               	.LC8:
 2855 0067 3936 3030 		.string	"9600"
 2855      00
 2856               	.LC9:
 2857 006c 3139 3230 		.string	"19200"
 2857      3000 
 2858               	.LC10:
 2859 0072 3338 3430 		.string	"38400"
 2859      3000 
 2860               	.LC11:
 2861 0078 3537 3630 		.string	"57600"
 2861      3000 
 2862               	.LC12:
 2863 007e 3131 3532 		.string	"115200"
 2863      3030 00
 2864               	.LC13:
 2865 0085 3233 3034 		.string	"230400"
 2865      3030 00
 2866               	.LC14:
 2867 008c 2C00      		.string	","
 2868               	.LC15:
 2869 008e 2564 00   		.string	"%d"
 2870               	.LC16:
 2871 0091 6572 726F 		.string	"error writing to config\n"
 2871      7220 7772 
 2871      6974 696E 
 2871      6720 746F 
 2871      2063 6F6E 
 2872               		.text
 2873               	.global	record_config_file
 2875               	record_config_file:
 2876               	.LFB7:
 2877               	.LM449:
 2878 0f4e 7F92      		push r7
 2879 0f50 8F92      		push r8
 2880 0f52 9F92      		push r9
 2881 0f54 AF92      		push r10
 2882 0f56 BF92      		push r11
 2883 0f58 CF92      		push r12
 2884 0f5a DF92      		push r13
 2885 0f5c EF92      		push r14
 2886 0f5e FF92      		push r15
 2887 0f60 0F93      		push r16
 2888 0f62 1F93      		push r17
 2889 0f64 DF93      		push r29
 2890 0f66 CF93      		push r28
 2891 0f68 CDB7      		in r28,__SP_L__
 2892 0f6a DEB7      		in r29,__SP_H__
 2893 0f6c C155      		subi r28,lo8(-(-81))
 2894 0f6e D040      		sbci r29,hi8(-(-81))
 2895 0f70 0FB6      		in __tmp_reg__,__SREG__
 2896 0f72 F894      		cli
 2897 0f74 DEBF      		out __SP_H__,r29
 2898 0f76 0FBE      		out __SREG__,__tmp_reg__
 2899 0f78 CDBF      		out __SP_L__,r28
 2900               	/* prologue: function */
 2901               	/* frame size = 81 */
 2902               	.LM450:
 2903 0f7a 8E01      		movw r16,r28
 2904 0f7c 0C5F      		subi r16,lo8(-(4))
 2905 0f7e 1F4F      		sbci r17,hi8(-(4))
 2906 0f80 C801      		movw r24,r16
 2907 0f82 60E0      		ldi r22,lo8(.LC3)
 2908 0f84 70E0      		ldi r23,hi8(.LC3)
 2909 0f86 0E94 0000 		call strcpy
 2910               	.LM451:
 2911 0f8a 6091 0000 		lds r22,dd
 2912 0f8e 7091 0000 		lds r23,(dd)+1
 2913 0f92 E1E2      		ldi r30,lo8(33)
 2914 0f94 EE2E      		mov r14,r30
 2915 0f96 F12C      		mov r15,__zero_reg__
 2916 0f98 EC0E      		add r14,r28
 2917 0f9a FD1E      		adc r15,r29
 2918 0f9c 8091 0000 		lds r24,fs
 2919 0fa0 9091 0000 		lds r25,(fs)+1
 2920 0fa4 A801      		movw r20,r16
 2921 0fa6 9701      		movw r18,r14
 2922 0fa8 00E0      		ldi r16,lo8(0)
 2923 0faa 0E94 0000 		call find_file_in_dir
 2924 0fae 8823      		tst r24
 2925 0fb0 01F0      		breq .L246
 2926               	.LM452:
 2927 0fb2 8091 0000 		lds r24,fs
 2928 0fb6 9091 0000 		lds r25,(fs)+1
 2929 0fba B701      		movw r22,r14
 2930 0fbc 0E94 0000 		call fat_delete_file
 2931               	.L246:
 2932               	.LM453:
 2933 0fc0 8E01      		movw r16,r28
 2934 0fc2 0C5F      		subi r16,lo8(-(4))
 2935 0fc4 1F4F      		sbci r17,hi8(-(4))
 2936 0fc6 8091 0000 		lds r24,dd
 2937 0fca 9091 0000 		lds r25,(dd)+1
 2938 0fce B801      		movw r22,r16
 2939 0fd0 AE01      		movw r20,r28
 2940 0fd2 4F5D      		subi r20,lo8(-(33))
 2941 0fd4 5F4F      		sbci r21,hi8(-(33))
 2942 0fd6 0E94 0000 		call fat_create_file
 2943 0fda 8823      		tst r24
 2944 0fdc 01F4      		brne .L247
 2945               	.LM454:
 2946 0fde 80E0      		ldi r24,lo8(.LC4)
 2947 0fe0 90E0      		ldi r25,hi8(.LC4)
 2948 0fe2 00C0      		rjmp .L269
 2949               	.L247:
 2950               	.LBB302:
 2951               	.LM455:
 2952 0fe4 6091 0000 		lds r22,dd
 2953 0fe8 7091 0000 		lds r23,(dd)+1
 2954 0fec 8091 0000 		lds r24,fs
 2955 0ff0 9091 0000 		lds r25,(fs)+1
 2956 0ff4 A801      		movw r20,r16
 2957 0ff6 0E94 0000 		call open_file_in_dir
 2958 0ffa 5C01      		movw r10,r24
 2959               	.LVL170:
 2960               	.LM456:
 2961 0ffc 0097      		sbiw r24,0
 2962 0ffe 01F4      		brne .L263
 2963               	.LVL171:
 2964               	.LM457:
 2965 1000 80E0      		ldi r24,lo8(.LC5)
 2966 1002 90E0      		ldi r25,hi8(.LC5)
 2967               	.LVL172:
 2968               	.L269:
 2969 1004 0E94 0000 		call uart_puts
 2970 1008 00C0      		rjmp .L262
 2971               	.LVL173:
 2972               	.L263:
 2973               	.LBB303:
 2974               	.LBB304:
 2975               	.LM458:
 2976 100a F999      		sbic 63-32,1
 2977 100c 00C0      		rjmp .L263
 2978               	.LM459:
 2979 100e 12BC      		out 66-32,__zero_reg__
 2980               	.LM460:
 2981 1010 81E0      		ldi r24,lo8(1)
 2982               	.LVL174:
 2983 1012 81BD      		out 65-32,r24
 2984               	.LM461:
 2985 1014 F89A      		sbi 63-32,0
 2986               	.LM462:
 2987 1016 90B5      		in r25,64-32
 2988               	.LVL175:
 2989               	.L250:
 2990               	.LBE304:
 2991               	.LBE303:
 2992               	.LBB305:
 2993               	.LBB306:
 2994               	.LM463:
 2995 1018 F999      		sbic 63-32,1
 2996 101a 00C0      		rjmp .L250
 2997               	.LM464:
 2998 101c 12BC      		out 66-32,__zero_reg__
 2999               	.LM465:
 3000 101e 82E0      		ldi r24,lo8(2)
 3001 1020 81BD      		out 65-32,r24
 3002               	.LM466:
 3003 1022 F89A      		sbi 63-32,0
 3004               	.LM467:
 3005 1024 70B4      		in r7,64-32
 3006               	.LVL176:
 3007               	.L251:
 3008               	.LBE306:
 3009               	.LBE305:
 3010               	.LBB307:
 3011               	.LBB308:
 3012               	.LM468:
 3013 1026 F999      		sbic 63-32,1
 3014 1028 00C0      		rjmp .L251
 3015               	.LM469:
 3016 102a 12BC      		out 66-32,__zero_reg__
 3017               	.LM470:
 3018 102c 85E0      		ldi r24,lo8(5)
 3019 102e 81BD      		out 65-32,r24
 3020               	.LM471:
 3021 1030 F89A      		sbi 63-32,0
 3022               	.LM472:
 3023 1032 90B4      		in r9,64-32
 3024               	.LVL177:
 3025               	.L252:
 3026               	.LBE308:
 3027               	.LBE307:
 3028               	.LBB309:
 3029               	.LBB310:
 3030               	.LM473:
 3031 1034 F999      		sbic 63-32,1
 3032 1036 00C0      		rjmp .L252
 3033               	.LM474:
 3034 1038 12BC      		out 66-32,__zero_reg__
 3035               	.LM475:
 3036 103a 86E0      		ldi r24,lo8(6)
 3037 103c 81BD      		out 65-32,r24
 3038               	.LM476:
 3039 103e F89A      		sbi 63-32,0
 3040               	.LM477:
 3041 1040 80B4      		in r8,64-32
 3042               	.LVL178:
 3043               	.LBE310:
 3044               	.LBE309:
 3045               	.LM478:
 3046 1042 9923      		tst r25
 3047 1044 01F4      		brne .L253
 3048 1046 CE01      		movw r24,r28
 3049 1048 4196      		adiw r24,17
 3050 104a 60E0      		ldi r22,lo8(.LC6)
 3051 104c 70E0      		ldi r23,hi8(.LC6)
 3052 104e 00C0      		rjmp .L268
 3053               	.L253:
 3054               	.LM479:
 3055 1050 9430      		cpi r25,lo8(4)
 3056 1052 01F4      		brne .L255
 3057 1054 CE01      		movw r24,r28
 3058 1056 4196      		adiw r24,17
 3059 1058 60E0      		ldi r22,lo8(.LC7)
 3060 105a 70E0      		ldi r23,hi8(.LC7)
 3061 105c 00C0      		rjmp .L268
 3062               	.L255:
 3063               	.LM480:
 3064 105e 9130      		cpi r25,lo8(1)
 3065 1060 01F4      		brne .L257
 3066 1062 CE01      		movw r24,r28
 3067 1064 4196      		adiw r24,17
 3068 1066 60E0      		ldi r22,lo8(.LC8)
 3069 1068 70E0      		ldi r23,hi8(.LC8)
 3070 106a 00C0      		rjmp .L268
 3071               	.L257:
 3072               	.LM481:
 3073 106c 9530      		cpi r25,lo8(5)
 3074 106e 01F4      		brne .L254
 3075 1070 CE01      		movw r24,r28
 3076 1072 4196      		adiw r24,17
 3077 1074 60E0      		ldi r22,lo8(.LC9)
 3078 1076 70E0      		ldi r23,hi8(.LC9)
 3079 1078 00C0      		rjmp .L268
 3080               	.L254:
 3081               	.LM482:
 3082 107a 9630      		cpi r25,lo8(6)
 3083 107c 01F4      		brne .L256
 3084 107e CE01      		movw r24,r28
 3085 1080 4196      		adiw r24,17
 3086 1082 60E0      		ldi r22,lo8(.LC10)
 3087 1084 70E0      		ldi r23,hi8(.LC10)
 3088 1086 00C0      		rjmp .L268
 3089               	.L256:
 3090               	.LM483:
 3091 1088 9230      		cpi r25,lo8(2)
 3092 108a 01F4      		brne .L258
 3093 108c CE01      		movw r24,r28
 3094 108e 4196      		adiw r24,17
 3095 1090 60E0      		ldi r22,lo8(.LC11)
 3096 1092 70E0      		ldi r23,hi8(.LC11)
 3097 1094 00C0      		rjmp .L268
 3098               	.L258:
 3099               	.LM484:
 3100 1096 9330      		cpi r25,lo8(3)
 3101 1098 01F4      		brne .L259
 3102 109a CE01      		movw r24,r28
 3103 109c 4196      		adiw r24,17
 3104 109e 60E0      		ldi r22,lo8(.LC12)
 3105 10a0 70E0      		ldi r23,hi8(.LC12)
 3106 10a2 00C0      		rjmp .L268
 3107               	.L259:
 3108               	.LM485:
 3109 10a4 9730      		cpi r25,lo8(7)
 3110 10a6 01F4      		brne .L260
 3111 10a8 CE01      		movw r24,r28
 3112 10aa 4196      		adiw r24,17
 3113 10ac 60E0      		ldi r22,lo8(.LC13)
 3114 10ae 70E0      		ldi r23,hi8(.LC13)
 3115               	.L268:
 3116 10b0 0E94 0000 		call strcpy
 3117               	.LVL179:
 3118               	.L260:
 3119               	.LM486:
 3120 10b4 8E01      		movw r16,r28
 3121 10b6 0F5E      		subi r16,lo8(-(17))
 3122 10b8 1F4F      		sbci r17,hi8(-(17))
 3123 10ba C801      		movw r24,r16
 3124 10bc 60E0      		ldi r22,lo8(.LC14)
 3125 10be 70E0      		ldi r23,hi8(.LC14)
 3126 10c0 0E94 0000 		call strcat
 3127               	.LVL180:
 3128               	.LM487:
 3129 10c4 00D0      		rcall .
 3130 10c6 00D0      		rcall .
 3131 10c8 00D0      		rcall .
 3132 10ca EDB7      		in r30,__SP_L__
 3133 10cc FEB7      		in r31,__SP_H__
 3134 10ce 3196      		adiw r30,1
 3135 10d0 7E01      		movw r14,r28
 3136 10d2 0894      		sec
 3137 10d4 E11C      		adc r14,__zero_reg__
 3138 10d6 F11C      		adc r15,__zero_reg__
 3139 10d8 ADB7      		in r26,__SP_L__
 3140 10da BEB7      		in r27,__SP_H__
 3141 10dc 1296      		adiw r26,1+1
 3142 10de FC92      		st X,r15
 3143 10e0 EE92      		st -X,r14
 3144 10e2 1197      		sbiw r26,1
 3145 10e4 60E0      		ldi r22,lo8(.LC15)
 3146 10e6 C62E      		mov r12,r22
 3147 10e8 60E0      		ldi r22,hi8(.LC15)
 3148 10ea D62E      		mov r13,r22
 3149 10ec D382      		std Z+3,r13
 3150 10ee C282      		std Z+2,r12
 3151 10f0 9482      		std Z+4,r9
 3152 10f2 1582      		std Z+5,__zero_reg__
 3153 10f4 0E94 0000 		call sprintf
 3154               	.LM488:
 3155 10f8 8DB7      		in r24,__SP_L__
 3156 10fa 9EB7      		in r25,__SP_H__
 3157 10fc 0696      		adiw r24,6
 3158 10fe 0FB6      		in __tmp_reg__,__SREG__
 3159 1100 F894      		cli
 3160 1102 9EBF      		out __SP_H__,r25
 3161 1104 0FBE      		out __SREG__,__tmp_reg__
 3162 1106 8DBF      		out __SP_L__,r24
 3163 1108 C801      		movw r24,r16
 3164 110a B701      		movw r22,r14
 3165 110c 0E94 0000 		call strcat
 3166               	.LM489:
 3167 1110 C801      		movw r24,r16
 3168 1112 60E0      		ldi r22,lo8(.LC14)
 3169 1114 70E0      		ldi r23,hi8(.LC14)
 3170 1116 0E94 0000 		call strcat
 3171               	.LM490:
 3172 111a 00D0      		rcall .
 3173 111c 00D0      		rcall .
 3174 111e 00D0      		rcall .
 3175 1120 EDB7      		in r30,__SP_L__
 3176 1122 FEB7      		in r31,__SP_H__
 3177 1124 3196      		adiw r30,1
 3178 1126 ADB7      		in r26,__SP_L__
 3179 1128 BEB7      		in r27,__SP_H__
 3180 112a 1296      		adiw r26,1+1
 3181 112c FC92      		st X,r15
 3182 112e EE92      		st -X,r14
 3183 1130 1197      		sbiw r26,1
 3184 1132 D382      		std Z+3,r13
 3185 1134 C282      		std Z+2,r12
 3186 1136 8482      		std Z+4,r8
 3187 1138 1582      		std Z+5,__zero_reg__
 3188 113a 0E94 0000 		call sprintf
 3189               	.LM491:
 3190 113e 8DB7      		in r24,__SP_L__
 3191 1140 9EB7      		in r25,__SP_H__
 3192 1142 0696      		adiw r24,6
 3193 1144 0FB6      		in __tmp_reg__,__SREG__
 3194 1146 F894      		cli
 3195 1148 9EBF      		out __SP_H__,r25
 3196 114a 0FBE      		out __SREG__,__tmp_reg__
 3197 114c 8DBF      		out __SP_L__,r24
 3198 114e C801      		movw r24,r16
 3199 1150 B701      		movw r22,r14
 3200 1152 0E94 0000 		call strcat
 3201               	.LM492:
 3202 1156 C801      		movw r24,r16
 3203 1158 60E0      		ldi r22,lo8(.LC14)
 3204 115a 70E0      		ldi r23,hi8(.LC14)
 3205 115c 0E94 0000 		call strcat
 3206               	.LM493:
 3207 1160 00D0      		rcall .
 3208 1162 00D0      		rcall .
 3209 1164 00D0      		rcall .
 3210 1166 EDB7      		in r30,__SP_L__
 3211 1168 FEB7      		in r31,__SP_H__
 3212 116a 3196      		adiw r30,1
 3213 116c ADB7      		in r26,__SP_L__
 3214 116e BEB7      		in r27,__SP_H__
 3215 1170 1296      		adiw r26,1+1
 3216 1172 FC92      		st X,r15
 3217 1174 EE92      		st -X,r14
 3218 1176 1197      		sbiw r26,1
 3219 1178 D382      		std Z+3,r13
 3220 117a C282      		std Z+2,r12
 3221 117c 7482      		std Z+4,r7
 3222 117e 1582      		std Z+5,__zero_reg__
 3223 1180 0E94 0000 		call sprintf
 3224               	.LM494:
 3225 1184 8DB7      		in r24,__SP_L__
 3226 1186 9EB7      		in r25,__SP_H__
 3227 1188 0696      		adiw r24,6
 3228 118a 0FB6      		in __tmp_reg__,__SREG__
 3229 118c F894      		cli
 3230 118e 9EBF      		out __SP_H__,r25
 3231 1190 0FBE      		out __SREG__,__tmp_reg__
 3232 1192 8DBF      		out __SP_L__,r24
 3233 1194 C801      		movw r24,r16
 3234 1196 B701      		movw r22,r14
 3235 1198 0E94 0000 		call strcat
 3236               	.LM495:
 3237 119c 80E0      		ldi r24,lo8(input_buffer)
 3238 119e 90E0      		ldi r25,hi8(input_buffer)
 3239 11a0 B801      		movw r22,r16
 3240 11a2 0E94 0000 		call strcpy
 3241               	.LM496:
 3242 11a6 F801      		movw r30,r16
 3243 11a8 0190      		ld __tmp_reg__,Z+
 3244 11aa 0020      		tst __tmp_reg__
 3245 11ac 01F4      		brne .-6
 3246 11ae 3197      		sbiw r30,1
 3247 11b0 E01B      		sub r30,r16
 3248 11b2 F10B      		sbc r31,r17
 3249 11b4 C501      		movw r24,r10
 3250 11b6 60E0      		ldi r22,lo8(input_buffer)
 3251 11b8 70E0      		ldi r23,hi8(input_buffer)
 3252 11ba AF01      		movw r20,r30
 3253 11bc 0E94 0000 		call fat_write_file
 3254 11c0 F801      		movw r30,r16
 3255 11c2 0190      		ld __tmp_reg__,Z+
 3256 11c4 0020      		tst __tmp_reg__
 3257 11c6 01F4      		brne .-6
 3258 11c8 3197      		sbiw r30,1
 3259 11ca E01B      		sub r30,r16
 3260 11cc F10B      		sbc r31,r17
 3261 11ce 8E17      		cp r24,r30
 3262 11d0 9F07      		cpc r25,r31
 3263 11d2 01F0      		breq .L261
 3264               	.LM497:
 3265 11d4 80E0      		ldi r24,lo8(.LC16)
 3266 11d6 90E0      		ldi r25,hi8(.LC16)
 3267 11d8 0E94 0000 		call uart_puts
 3268               	.L261:
 3269               	.LM498:
 3270 11dc C501      		movw r24,r10
 3271 11de 0E94 0000 		call fat_close_file
 3272               	.LM499:
 3273 11e2 0E94 0000 		call sd_raw_sync
 3274               	.L262:
 3275               	/* epilogue start */
 3276               	.LBE302:
 3277               	.LM500:
 3278 11e6 CF5A      		subi r28,lo8(-(81))
 3279 11e8 DF4F      		sbci r29,hi8(-(81))
 3280 11ea 0FB6      		in __tmp_reg__,__SREG__
 3281 11ec F894      		cli
 3282 11ee DEBF      		out __SP_H__,r29
 3283 11f0 0FBE      		out __SREG__,__tmp_reg__
 3284 11f2 CDBF      		out __SP_L__,r28
 3285 11f4 CF91      		pop r28
 3286 11f6 DF91      		pop r29
 3287 11f8 1F91      		pop r17
 3288 11fa 0F91      		pop r16
 3289 11fc FF90      		pop r15
 3290 11fe EF90      		pop r14
 3291 1200 DF90      		pop r13
 3292 1202 CF90      		pop r12
 3293 1204 BF90      		pop r11
 3294 1206 AF90      		pop r10
 3295               	.LVL181:
 3296 1208 9F90      		pop r9
 3297               	.LVL182:
 3298 120a 8F90      		pop r8
 3299               	.LVL183:
 3300 120c 7F90      		pop r7
 3301               	.LVL184:
 3302 120e 0895      		ret
 3303               	.LFE7:
 3305               	.global	system_menu
 3307               	system_menu:
 3308               	.LFB29:
 3309               	.LM501:
 3310 1210 FF92      		push r15
 3311 1212 0F93      		push r16
 3312 1214 1F93      		push r17
 3313 1216 DF93      		push r29
 3314 1218 CF93      		push r28
 3315 121a 00D0      		rcall .
 3316 121c 00D0      		rcall .
 3317 121e 0F92      		push __tmp_reg__
 3318 1220 CDB7      		in r28,__SP_L__
 3319 1222 DEB7      		in r29,__SP_H__
 3320               	/* prologue: function */
 3321               	/* frame size = 5 */
 3322               	.L271:
 3323               	.LBB311:
 3324               	.LBB312:
 3325               	.LM502:
 3326 1224 F999      		sbic 63-32,1
 3327 1226 00C0      		rjmp .L271
 3328               	.LM503:
 3329 1228 12BC      		out 66-32,__zero_reg__
 3330               	.LM504:
 3331 122a 82E0      		ldi r24,lo8(2)
 3332 122c 81BD      		out 65-32,r24
 3333               	.LM505:
 3334 122e F89A      		sbi 63-32,0
 3335               	.LM506:
 3336 1230 F0B4      		in r15,64-32
 3337               	.LVL185:
 3338               	.LBE312:
 3339               	.LBE311:
 3340               	.LBB313:
 3341               	.LM507:
 3342 1232 8E01      		movw r16,r28
 3343 1234 0F5F      		subi r16,lo8(-(1))
 3344 1236 1F4F      		sbci r17,hi8(-(1))
 3345               	.L304:
 3346               	.LM508:
 3347 1238 80E0      		ldi r24,lo8(__c.2976)
 3348 123a 90E0      		ldi r25,hi8(__c.2976)
 3349 123c 0E94 0000 		call uart_puts_p
 3350               	.LM509:
 3351 1240 80E0      		ldi r24,lo8(__c.2978)
 3352 1242 90E0      		ldi r25,hi8(__c.2978)
 3353 1244 0E94 0000 		call uart_puts_p
 3354               	.LM510:
 3355 1248 FF20      		tst r15
 3356 124a 01F4      		brne .L272
 3357 124c 80E0      		ldi r24,lo8(__c.2980)
 3358 124e 90E0      		ldi r25,hi8(__c.2980)
 3359 1250 00C0      		rjmp .L305
 3360               	.L272:
 3361               	.LM511:
 3362 1252 81E0      		ldi r24,lo8(1)
 3363 1254 F816      		cp r15,r24
 3364 1256 01F4      		brne .L274
 3365 1258 80E0      		ldi r24,lo8(__c.2982)
 3366 125a 90E0      		ldi r25,hi8(__c.2982)
 3367 125c 00C0      		rjmp .L305
 3368               	.L274:
 3369               	.LM512:
 3370 125e 82E0      		ldi r24,lo8(2)
 3371 1260 F816      		cp r15,r24
 3372 1262 01F4      		brne .L273
 3373 1264 80E0      		ldi r24,lo8(__c.2984)
 3374 1266 90E0      		ldi r25,hi8(__c.2984)
 3375               	.L305:
 3376 1268 0E94 0000 		call uart_puts_p
 3377               	.L273:
 3378               	.LM513:
 3379 126c 80E0      		ldi r24,lo8(__c.2986)
 3380 126e 90E0      		ldi r25,hi8(__c.2986)
 3381 1270 0E94 0000 		call uart_puts_p
 3382               	.LM514:
 3383 1274 80E0      		ldi r24,lo8(__c.2988)
 3384 1276 90E0      		ldi r25,hi8(__c.2988)
 3385 1278 0E94 0000 		call uart_puts_p
 3386               	.LM515:
 3387 127c 6091 0000 		lds r22,setting_escape_character
 3388 1280 70E0      		ldi r23,lo8(0)
 3389 1282 80E0      		ldi r24,lo8(0)
 3390 1284 90E0      		ldi r25,hi8(0)
 3391 1286 0E94 0000 		call uart_putdw_dec
 3392               	.LM516:
 3393 128a 80E0      		ldi r24,lo8(__c.2990)
 3394 128c 90E0      		ldi r25,hi8(__c.2990)
 3395 128e 0E94 0000 		call uart_puts_p
 3396               	.LM517:
 3397 1292 6091 0000 		lds r22,setting_max_escape_character
 3398 1296 70E0      		ldi r23,lo8(0)
 3399 1298 80E0      		ldi r24,lo8(0)
 3400 129a 90E0      		ldi r25,hi8(0)
 3401 129c 0E94 0000 		call uart_putdw_dec
 3402               	.LM518:
 3403 12a0 80E0      		ldi r24,lo8(__c.2992)
 3404 12a2 90E0      		ldi r25,hi8(__c.2992)
 3405 12a4 0E94 0000 		call uart_puts_p
 3406               	.LM519:
 3407 12a8 80E0      		ldi r24,lo8(__c.2994)
 3408 12aa 90E0      		ldi r25,hi8(__c.2994)
 3409 12ac 0E94 0000 		call uart_puts_p
 3410               	.LM520:
 3411 12b0 80E0      		ldi r24,lo8(__c.2996)
 3412 12b2 90E0      		ldi r25,hi8(__c.2996)
 3413 12b4 0E94 0000 		call uart_puts_p
 3414               	.LM521:
 3415 12b8 80E0      		ldi r24,lo8(__c.2998)
 3416 12ba 90E0      		ldi r25,hi8(__c.2998)
 3417 12bc 0E94 0000 		call uart_puts_p
 3418               	.LM522:
 3419 12c0 80E0      		ldi r24,lo8(__c.3000)
 3420 12c2 90E0      		ldi r25,hi8(__c.3000)
 3421 12c4 0E94 0000 		call uart_puts_p
 3422               	.LM523:
 3423 12c8 80E0      		ldi r24,lo8(__c.3002)
 3424 12ca 90E0      		ldi r25,hi8(__c.3002)
 3425 12cc 0E94 0000 		call uart_puts_p
 3426               	.LM524:
 3427 12d0 80E0      		ldi r24,lo8(__c.3004)
 3428 12d2 90E0      		ldi r25,hi8(__c.3004)
 3429 12d4 0E94 0000 		call uart_puts_p
 3430               	.LM525:
 3431 12d8 80E0      		ldi r24,lo8(__c.3006)
 3432 12da 90E0      		ldi r25,hi8(__c.3006)
 3433 12dc 0E94 0000 		call uart_puts_p
 3434               	.LM526:
 3435 12e0 80E0      		ldi r24,lo8(__c.3008)
 3436 12e2 90E0      		ldi r25,hi8(__c.3008)
 3437 12e4 0E94 0000 		call uart_puts_p
 3438               	.LM527:
 3439 12e8 8EE3      		ldi r24,lo8(62)
 3440 12ea 0E94 0000 		call uart_putc
 3441               	.LM528:
 3442 12ee C801      		movw r24,r16
 3443 12f0 65E0      		ldi r22,lo8(5)
 3444 12f2 0E94 0000 		call read_line
 3445 12f6 8823      		tst r24
 3446 12f8 01F4      		brne .+2
 3447 12fa 00C0      		rjmp .L304
 3448               	.LM529:
 3449 12fc C801      		movw r24,r16
 3450 12fe 60E0      		ldi r22,lo8(__c.3012)
 3451 1300 70E0      		ldi r23,hi8(__c.3012)
 3452 1302 0E94 0000 		call strcmp_P
 3453 1306 892B      		or r24,r25
 3454 1308 01F4      		brne .L276
 3455               	.LM530:
 3456 130a 80E0      		ldi r24,lo8(__c.3014)
 3457 130c 90E0      		ldi r25,hi8(__c.3014)
 3458 130e 0E94 0000 		call uart_puts_p
 3459               	.L277:
 3460               	.LBB314:
 3461               	.LBB315:
 3462               	.LM531:
 3463 1312 F999      		sbic 63-32,1
 3464 1314 00C0      		rjmp .L277
 3465               	.LM532:
 3466 1316 12BC      		out 66-32,__zero_reg__
 3467               	.LM533:
 3468 1318 82E0      		ldi r24,lo8(2)
 3469 131a 81BD      		out 65-32,r24
 3470               	.LM534:
 3471 131c 10BC      		out 64-32,__zero_reg__
 3472 131e 00C0      		rjmp .L307
 3473               	.L276:
 3474               	.LBE315:
 3475               	.LBE314:
 3476               	.LM535:
 3477 1320 C801      		movw r24,r16
 3478 1322 60E0      		ldi r22,lo8(__c.3016)
 3479 1324 70E0      		ldi r23,hi8(__c.3016)
 3480 1326 0E94 0000 		call strcmp_P
 3481 132a 892B      		or r24,r25
 3482 132c 01F4      		brne .L279
 3483               	.LM536:
 3484 132e 80E0      		ldi r24,lo8(__c.3018)
 3485 1330 90E0      		ldi r25,hi8(__c.3018)
 3486 1332 0E94 0000 		call uart_puts_p
 3487               	.L280:
 3488               	.LBB316:
 3489               	.LBB317:
 3490               	.LM537:
 3491 1336 F999      		sbic 63-32,1
 3492 1338 00C0      		rjmp .L280
 3493               	.LM538:
 3494 133a 12BC      		out 66-32,__zero_reg__
 3495               	.LM539:
 3496 133c 82E0      		ldi r24,lo8(2)
 3497 133e 81BD      		out 65-32,r24
 3498               	.LM540:
 3499 1340 81E0      		ldi r24,lo8(1)
 3500               	.L308:
 3501 1342 80BD      		out 64-32,r24
 3502               	.L307:
 3503               	.LM541:
 3504 1344 FA9A      		sbi 63-32,2
 3505               	.LM542:
 3506 1346 F99A      		sbi 63-32,1
 3507               	.LBE317:
 3508               	.LBE316:
 3509               	.LM543:
 3510 1348 0E94 0000 		call record_config_file
 3511 134c 00C0      		rjmp .L291
 3512               	.L279:
 3513               	.LM544:
 3514 134e C801      		movw r24,r16
 3515 1350 60E0      		ldi r22,lo8(__c.3020)
 3516 1352 70E0      		ldi r23,hi8(__c.3020)
 3517 1354 0E94 0000 		call strcmp_P
 3518 1358 892B      		or r24,r25
 3519 135a 01F4      		brne .L281
 3520               	.LM545:
 3521 135c 80E0      		ldi r24,lo8(__c.3022)
 3522 135e 90E0      		ldi r25,hi8(__c.3022)
 3523 1360 0E94 0000 		call uart_puts_p
 3524               	.L282:
 3525               	.LBB318:
 3526               	.LBB319:
 3527               	.LM546:
 3528 1364 F999      		sbic 63-32,1
 3529 1366 00C0      		rjmp .L282
 3530               	.LM547:
 3531 1368 12BC      		out 66-32,__zero_reg__
 3532               	.LM548:
 3533 136a 82E0      		ldi r24,lo8(2)
 3534 136c 81BD      		out 65-32,r24
 3535 136e 00C0      		rjmp .L308
 3536               	.L281:
 3537               	.LBE319:
 3538               	.LBE318:
 3539               	.LM549:
 3540 1370 C801      		movw r24,r16
 3541 1372 60E0      		ldi r22,lo8(__c.3024)
 3542 1374 70E0      		ldi r23,hi8(__c.3024)
 3543 1376 0E94 0000 		call strcmp_P
 3544 137a 892B      		or r24,r25
 3545 137c 01F4      		brne .L283
 3546               	.LM550:
 3547 137e 80E0      		ldi r24,lo8(__c.3026)
 3548 1380 90E0      		ldi r25,hi8(__c.3026)
 3549 1382 0E94 0000 		call uart_puts_p
 3550               	.L284:
 3551               	.LBB320:
 3552               	.LBB321:
 3553               	.LM551:
 3554 1386 F999      		sbic 63-32,1
 3555 1388 00C0      		rjmp .L284
 3556               	.LM552:
 3557 138a 12BC      		out 66-32,__zero_reg__
 3558               	.LM553:
 3559 138c 83E0      		ldi r24,lo8(3)
 3560 138e 81BD      		out 65-32,r24
 3561               	.LM554:
 3562 1390 10BC      		out 64-32,__zero_reg__
 3563               	.LM555:
 3564 1392 FA9A      		sbi 63-32,2
 3565               	.LM556:
 3566 1394 F99A      		sbi 63-32,1
 3567               	.L285:
 3568               	.LBE321:
 3569               	.LBE320:
 3570               	.LBB322:
 3571               	.LBB323:
 3572               	.LM557:
 3573 1396 F999      		sbic 63-32,1
 3574 1398 00C0      		rjmp .L285
 3575               	.LM558:
 3576 139a 12BC      		out 66-32,__zero_reg__
 3577               	.LM559:
 3578 139c 84E0      		ldi r24,lo8(4)
 3579 139e 81BD      		out 65-32,r24
 3580               	.LM560:
 3581 13a0 10BC      		out 64-32,__zero_reg__
 3582               	.LM561:
 3583 13a2 FA9A      		sbi 63-32,2
 3584               	.LM562:
 3585 13a4 F99A      		sbi 63-32,1
 3586 13a6 00C0      		rjmp .L291
 3587               	.L283:
 3588               	.LBE323:
 3589               	.LBE322:
 3590               	.LM563:
 3591 13a8 C801      		movw r24,r16
 3592 13aa 60E0      		ldi r22,lo8(__c.3028)
 3593 13ac 70E0      		ldi r23,hi8(__c.3028)
 3594 13ae 0E94 0000 		call strcmp_P
 3595 13b2 892B      		or r24,r25
 3596 13b4 01F4      		brne .L286
 3597               	.LM564:
 3598 13b6 80E0      		ldi r24,lo8(__c.3030)
 3599 13b8 90E0      		ldi r25,hi8(__c.3030)
 3600 13ba 0E94 0000 		call uart_puts_p
 3601               	.LM565:
 3602 13be 0E94 0000 		call uart_getc
 3603 13c2 982F      		mov r25,r24
 3604 13c4 8093 0000 		sts setting_escape_character,r24
 3605               	.L287:
 3606               	.LBB324:
 3607               	.LBB325:
 3608               	.LM566:
 3609 13c8 F999      		sbic 63-32,1
 3610 13ca 00C0      		rjmp .L287
 3611               	.LM567:
 3612 13cc 12BC      		out 66-32,__zero_reg__
 3613               	.LM568:
 3614 13ce 85E0      		ldi r24,lo8(5)
 3615 13d0 81BD      		out 65-32,r24
 3616               	.LM569:
 3617 13d2 90BD      		out 64-32,r25
 3618               	.LM570:
 3619 13d4 FA9A      		sbi 63-32,2
 3620               	.LM571:
 3621 13d6 F99A      		sbi 63-32,1
 3622               	.LBE325:
 3623               	.LBE324:
 3624               	.LM572:
 3625 13d8 0E94 0000 		call record_config_file
 3626               	.LM573:
 3627 13dc 80E0      		ldi r24,lo8(__c.3032)
 3628 13de 90E0      		ldi r25,hi8(__c.3032)
 3629 13e0 0E94 0000 		call uart_puts_p
 3630               	.LM574:
 3631 13e4 6091 0000 		lds r22,setting_escape_character
 3632 13e8 70E0      		ldi r23,lo8(0)
 3633 13ea 80E0      		ldi r24,lo8(0)
 3634 13ec 90E0      		ldi r25,hi8(0)
 3635 13ee 0E94 0000 		call uart_putdw_dec
 3636               	.LM575:
 3637 13f2 80E0      		ldi r24,lo8(__c.3034)
 3638 13f4 90E0      		ldi r25,hi8(__c.3034)
 3639 13f6 00C0      		rjmp .L306
 3640               	.L286:
 3641               	.LM576:
 3642 13f8 C801      		movw r24,r16
 3643 13fa 60E0      		ldi r22,lo8(__c.3036)
 3644 13fc 70E0      		ldi r23,hi8(__c.3036)
 3645 13fe 0E94 0000 		call strcmp_P
 3646 1402 892B      		or r24,r25
 3647 1404 01F4      		brne .L288
 3648               	.L293:
 3649               	.LBB326:
 3650               	.LM577:
 3651 1406 80E0      		ldi r24,lo8(__c.3039)
 3652 1408 90E0      		ldi r25,hi8(__c.3039)
 3653 140a 0E94 0000 		call uart_puts_p
 3654               	.LM578:
 3655 140e 0E94 0000 		call uart_getc
 3656 1412 982F      		mov r25,r24
 3657               	.LVL186:
 3658 1414 9053      		subi r25,lo8(-(-48))
 3659               	.LM579:
 3660 1416 9A30      		cpi r25,lo8(10)
 3661 1418 00F4      		brsh .L293
 3662               	.LM580:
 3663 141a 9093 0000 		sts setting_max_escape_character,r25
 3664               	.L290:
 3665               	.LBB327:
 3666               	.LBB328:
 3667               	.LM581:
 3668 141e F999      		sbic 63-32,1
 3669 1420 00C0      		rjmp .L290
 3670               	.LM582:
 3671 1422 12BC      		out 66-32,__zero_reg__
 3672               	.LM583:
 3673 1424 86E0      		ldi r24,lo8(6)
 3674 1426 81BD      		out 65-32,r24
 3675               	.LM584:
 3676 1428 90BD      		out 64-32,r25
 3677               	.LM585:
 3678 142a FA9A      		sbi 63-32,2
 3679               	.LM586:
 3680 142c F99A      		sbi 63-32,1
 3681               	.LBE328:
 3682               	.LBE327:
 3683               	.LM587:
 3684 142e 0E94 0000 		call record_config_file
 3685               	.LVL187:
 3686               	.LM588:
 3687 1432 80E0      		ldi r24,lo8(__c.3044)
 3688 1434 90E0      		ldi r25,hi8(__c.3044)
 3689 1436 0E94 0000 		call uart_puts_p
 3690               	.LM589:
 3691 143a 6091 0000 		lds r22,setting_max_escape_character
 3692 143e 70E0      		ldi r23,lo8(0)
 3693 1440 80E0      		ldi r24,lo8(0)
 3694 1442 90E0      		ldi r25,hi8(0)
 3695 1444 0E94 0000 		call uart_putdw_dec
 3696               	.LM590:
 3697 1448 80E0      		ldi r24,lo8(__c.3046)
 3698 144a 90E0      		ldi r25,hi8(__c.3046)
 3699 144c 00C0      		rjmp .L306
 3700               	.L288:
 3701               	.LBE326:
 3702               	.LM591:
 3703 144e C801      		movw r24,r16
 3704 1450 60E0      		ldi r22,lo8(__c.3048)
 3705 1452 70E0      		ldi r23,hi8(__c.3048)
 3706 1454 0E94 0000 		call strcmp_P
 3707 1458 892B      		or r24,r25
 3708 145a 01F0      		breq .+2
 3709 145c 00C0      		rjmp .L304
 3710               	.LM592:
 3711 145e 80E0      		ldi r24,lo8(__c.3050)
 3712 1460 90E0      		ldi r25,hi8(__c.3050)
 3713               	.L306:
 3714 1462 0E94 0000 		call uart_puts_p
 3715               	.L291:
 3716               	/* epilogue start */
 3717               	.LBE313:
 3718               	.LM593:
 3719 1466 0F90      		pop __tmp_reg__
 3720 1468 0F90      		pop __tmp_reg__
 3721 146a 0F90      		pop __tmp_reg__
 3722 146c 0F90      		pop __tmp_reg__
 3723 146e 0F90      		pop __tmp_reg__
 3724 1470 CF91      		pop r28
 3725 1472 DF91      		pop r29
 3726 1474 1F91      		pop r17
 3727 1476 0F91      		pop r16
 3728 1478 FF90      		pop r15
 3729               	.LVL188:
 3730 147a 0895      		ret
 3731               	.LFE29:
 3733               	.global	baud_menu
 3735               	baud_menu:
 3736               	.LFB28:
 3737               	.LM594:
 3738 147c FF92      		push r15
 3739 147e 0F93      		push r16
 3740 1480 1F93      		push r17
 3741 1482 DF93      		push r29
 3742 1484 CF93      		push r28
 3743 1486 00D0      		rcall .
 3744 1488 00D0      		rcall .
 3745 148a 0F92      		push __tmp_reg__
 3746 148c CDB7      		in r28,__SP_L__
 3747 148e DEB7      		in r29,__SP_H__
 3748               	/* prologue: function */
 3749               	/* frame size = 5 */
 3750               	.L310:
 3751               	.LBB329:
 3752               	.LBB330:
 3753               	.LM595:
 3754 1490 F999      		sbic 63-32,1
 3755 1492 00C0      		rjmp .L310
 3756               	.LM596:
 3757 1494 12BC      		out 66-32,__zero_reg__
 3758               	.LM597:
 3759 1496 81E0      		ldi r24,lo8(1)
 3760 1498 81BD      		out 65-32,r24
 3761               	.LM598:
 3762 149a F89A      		sbi 63-32,0
 3763               	.LM599:
 3764 149c F0B4      		in r15,64-32
 3765               	.LVL189:
 3766               	.LBE330:
 3767               	.LBE329:
 3768               	.LBB331:
 3769               	.LM600:
 3770 149e 8E01      		movw r16,r28
 3771 14a0 0F5F      		subi r16,lo8(-(1))
 3772 14a2 1F4F      		sbci r17,hi8(-(1))
 3773               	.L349:
 3774               	.LM601:
 3775 14a4 80E0      		ldi r24,lo8(__c.2879)
 3776 14a6 90E0      		ldi r25,hi8(__c.2879)
 3777 14a8 0E94 0000 		call uart_puts_p
 3778               	.LM602:
 3779 14ac 80E0      		ldi r24,lo8(__c.2881)
 3780 14ae 90E0      		ldi r25,hi8(__c.2881)
 3781 14b0 0E94 0000 		call uart_puts_p
 3782               	.LM603:
 3783 14b4 84E0      		ldi r24,lo8(4)
 3784 14b6 F816      		cp r15,r24
 3785 14b8 01F4      		brne .L311
 3786 14ba 80E0      		ldi r24,lo8(__c.2883)
 3787 14bc 90E0      		ldi r25,hi8(__c.2883)
 3788 14be 00C0      		rjmp .L350
 3789               	.L311:
 3790               	.LM604:
 3791 14c0 FF20      		tst r15
 3792 14c2 01F4      		brne .L313
 3793 14c4 80E0      		ldi r24,lo8(__c.2885)
 3794 14c6 90E0      		ldi r25,hi8(__c.2885)
 3795 14c8 00C0      		rjmp .L350
 3796               	.L313:
 3797               	.LM605:
 3798 14ca 81E0      		ldi r24,lo8(1)
 3799 14cc F816      		cp r15,r24
 3800 14ce 01F4      		brne .L315
 3801 14d0 80E0      		ldi r24,lo8(__c.2887)
 3802 14d2 90E0      		ldi r25,hi8(__c.2887)
 3803 14d4 00C0      		rjmp .L350
 3804               	.L315:
 3805               	.LM606:
 3806 14d6 85E0      		ldi r24,lo8(5)
 3807 14d8 F816      		cp r15,r24
 3808 14da 01F4      		brne .L312
 3809 14dc 80E0      		ldi r24,lo8(__c.2889)
 3810 14de 90E0      		ldi r25,hi8(__c.2889)
 3811 14e0 00C0      		rjmp .L350
 3812               	.L312:
 3813               	.LM607:
 3814 14e2 86E0      		ldi r24,lo8(6)
 3815 14e4 F816      		cp r15,r24
 3816 14e6 01F4      		brne .L314
 3817 14e8 80E0      		ldi r24,lo8(__c.2891)
 3818 14ea 90E0      		ldi r25,hi8(__c.2891)
 3819 14ec 00C0      		rjmp .L350
 3820               	.L314:
 3821               	.LM608:
 3822 14ee 82E0      		ldi r24,lo8(2)
 3823 14f0 F816      		cp r15,r24
 3824 14f2 01F4      		brne .L316
 3825 14f4 80E0      		ldi r24,lo8(__c.2893)
 3826 14f6 90E0      		ldi r25,hi8(__c.2893)
 3827 14f8 00C0      		rjmp .L350
 3828               	.L316:
 3829               	.LM609:
 3830 14fa 83E0      		ldi r24,lo8(3)
 3831 14fc F816      		cp r15,r24
 3832 14fe 01F4      		brne .L317
 3833 1500 80E0      		ldi r24,lo8(__c.2895)
 3834 1502 90E0      		ldi r25,hi8(__c.2895)
 3835 1504 00C0      		rjmp .L350
 3836               	.L317:
 3837               	.LM610:
 3838 1506 87E0      		ldi r24,lo8(7)
 3839 1508 F816      		cp r15,r24
 3840 150a 01F4      		brne .L318
 3841 150c 80E0      		ldi r24,lo8(__c.2897)
 3842 150e 90E0      		ldi r25,hi8(__c.2897)
 3843               	.L350:
 3844 1510 0E94 0000 		call uart_puts_p
 3845               	.L318:
 3846               	.LM611:
 3847 1514 80E0      		ldi r24,lo8(__c.2899)
 3848 1516 90E0      		ldi r25,hi8(__c.2899)
 3849 1518 0E94 0000 		call uart_puts_p
 3850               	.LM612:
 3851 151c 80E0      		ldi r24,lo8(__c.2901)
 3852 151e 90E0      		ldi r25,hi8(__c.2901)
 3853 1520 0E94 0000 		call uart_puts_p
 3854               	.LM613:
 3855 1524 80E0      		ldi r24,lo8(__c.2903)
 3856 1526 90E0      		ldi r25,hi8(__c.2903)
 3857 1528 0E94 0000 		call uart_puts_p
 3858               	.LM614:
 3859 152c 80E0      		ldi r24,lo8(__c.2905)
 3860 152e 90E0      		ldi r25,hi8(__c.2905)
 3861 1530 0E94 0000 		call uart_puts_p
 3862               	.LM615:
 3863 1534 80E0      		ldi r24,lo8(__c.2907)
 3864 1536 90E0      		ldi r25,hi8(__c.2907)
 3865 1538 0E94 0000 		call uart_puts_p
 3866               	.LM616:
 3867 153c 80E0      		ldi r24,lo8(__c.2909)
 3868 153e 90E0      		ldi r25,hi8(__c.2909)
 3869 1540 0E94 0000 		call uart_puts_p
 3870               	.LM617:
 3871 1544 80E0      		ldi r24,lo8(__c.2911)
 3872 1546 90E0      		ldi r25,hi8(__c.2911)
 3873 1548 0E94 0000 		call uart_puts_p
 3874               	.LM618:
 3875 154c 80E0      		ldi r24,lo8(__c.2913)
 3876 154e 90E0      		ldi r25,hi8(__c.2913)
 3877 1550 0E94 0000 		call uart_puts_p
 3878               	.LM619:
 3879 1554 80E0      		ldi r24,lo8(__c.2915)
 3880 1556 90E0      		ldi r25,hi8(__c.2915)
 3881 1558 0E94 0000 		call uart_puts_p
 3882               	.LM620:
 3883 155c 80E0      		ldi r24,lo8(__c.2917)
 3884 155e 90E0      		ldi r25,hi8(__c.2917)
 3885 1560 0E94 0000 		call uart_puts_p
 3886               	.LM621:
 3887 1564 80E0      		ldi r24,lo8(__c.2919)
 3888 1566 90E0      		ldi r25,hi8(__c.2919)
 3889 1568 0E94 0000 		call uart_puts_p
 3890               	.LM622:
 3891 156c 8EE3      		ldi r24,lo8(62)
 3892 156e 0E94 0000 		call uart_putc
 3893               	.LM623:
 3894 1572 C801      		movw r24,r16
 3895 1574 65E0      		ldi r22,lo8(5)
 3896 1576 0E94 0000 		call read_line
 3897 157a 8823      		tst r24
 3898 157c 01F4      		brne .+2
 3899 157e 00C0      		rjmp .L349
 3900               	.LM624:
 3901 1580 C801      		movw r24,r16
 3902 1582 60E0      		ldi r22,lo8(__c.2923)
 3903 1584 70E0      		ldi r23,hi8(__c.2923)
 3904 1586 0E94 0000 		call strcmp_P
 3905 158a 892B      		or r24,r25
 3906 158c 01F4      		brne .L320
 3907               	.LM625:
 3908 158e 80E0      		ldi r24,lo8(__c.2925)
 3909 1590 90E0      		ldi r25,hi8(__c.2925)
 3910 1592 0E94 0000 		call uart_puts_p
 3911               	.L321:
 3912               	.LBB332:
 3913               	.LBB333:
 3914               	.LM626:
 3915 1596 F999      		sbic 63-32,1
 3916 1598 00C0      		rjmp .L321
 3917               	.LM627:
 3918 159a 12BC      		out 66-32,__zero_reg__
 3919               	.LM628:
 3920 159c 81E0      		ldi r24,lo8(1)
 3921 159e 81BD      		out 65-32,r24
 3922               	.LM629:
 3923 15a0 10BC      		out 64-32,__zero_reg__
 3924 15a2 00C0      		rjmp .L352
 3925               	.L320:
 3926               	.LBE333:
 3927               	.LBE332:
 3928               	.LM630:
 3929 15a4 C801      		movw r24,r16
 3930 15a6 60E0      		ldi r22,lo8(__c.2927)
 3931 15a8 70E0      		ldi r23,hi8(__c.2927)
 3932 15aa 0E94 0000 		call strcmp_P
 3933 15ae 892B      		or r24,r25
 3934 15b0 01F4      		brne .L323
 3935               	.LM631:
 3936 15b2 80E0      		ldi r24,lo8(__c.2929)
 3937 15b4 90E0      		ldi r25,hi8(__c.2929)
 3938 15b6 0E94 0000 		call uart_puts_p
 3939               	.L324:
 3940               	.LBB334:
 3941               	.LBB335:
 3942               	.LM632:
 3943 15ba F999      		sbic 63-32,1
 3944 15bc 00C0      		rjmp .L324
 3945               	.LM633:
 3946 15be 12BC      		out 66-32,__zero_reg__
 3947               	.LM634:
 3948 15c0 81E0      		ldi r24,lo8(1)
 3949 15c2 81BD      		out 65-32,r24
 3950               	.LM635:
 3951 15c4 84E0      		ldi r24,lo8(4)
 3952 15c6 00C0      		rjmp .L351
 3953               	.L323:
 3954               	.LBE335:
 3955               	.LBE334:
 3956               	.LM636:
 3957 15c8 C801      		movw r24,r16
 3958 15ca 60E0      		ldi r22,lo8(__c.2931)
 3959 15cc 70E0      		ldi r23,hi8(__c.2931)
 3960 15ce 0E94 0000 		call strcmp_P
 3961 15d2 892B      		or r24,r25
 3962 15d4 01F4      		brne .L325
 3963               	.LM637:
 3964 15d6 80E0      		ldi r24,lo8(__c.2933)
 3965 15d8 90E0      		ldi r25,hi8(__c.2933)
 3966 15da 0E94 0000 		call uart_puts_p
 3967               	.L326:
 3968               	.LBB336:
 3969               	.LBB337:
 3970               	.LM638:
 3971 15de F999      		sbic 63-32,1
 3972 15e0 00C0      		rjmp .L326
 3973               	.LM639:
 3974 15e2 12BC      		out 66-32,__zero_reg__
 3975               	.LM640:
 3976 15e4 81E0      		ldi r24,lo8(1)
 3977 15e6 81BD      		out 65-32,r24
 3978 15e8 00C0      		rjmp .L351
 3979               	.L325:
 3980               	.LBE337:
 3981               	.LBE336:
 3982               	.LM641:
 3983 15ea C801      		movw r24,r16
 3984 15ec 60E0      		ldi r22,lo8(__c.2935)
 3985 15ee 70E0      		ldi r23,hi8(__c.2935)
 3986 15f0 0E94 0000 		call strcmp_P
 3987 15f4 892B      		or r24,r25
 3988 15f6 01F4      		brne .L327
 3989               	.LM642:
 3990 15f8 80E0      		ldi r24,lo8(__c.2937)
 3991 15fa 90E0      		ldi r25,hi8(__c.2937)
 3992 15fc 0E94 0000 		call uart_puts_p
 3993               	.L328:
 3994               	.LBB338:
 3995               	.LBB339:
 3996               	.LM643:
 3997 1600 F999      		sbic 63-32,1
 3998 1602 00C0      		rjmp .L328
 3999               	.LM644:
 4000 1604 12BC      		out 66-32,__zero_reg__
 4001               	.LM645:
 4002 1606 81E0      		ldi r24,lo8(1)
 4003 1608 81BD      		out 65-32,r24
 4004               	.LM646:
 4005 160a 85E0      		ldi r24,lo8(5)
 4006 160c 00C0      		rjmp .L351
 4007               	.L327:
 4008               	.LBE339:
 4009               	.LBE338:
 4010               	.LM647:
 4011 160e C801      		movw r24,r16
 4012 1610 60E0      		ldi r22,lo8(__c.2939)
 4013 1612 70E0      		ldi r23,hi8(__c.2939)
 4014 1614 0E94 0000 		call strcmp_P
 4015 1618 892B      		or r24,r25
 4016 161a 01F4      		brne .L329
 4017               	.LM648:
 4018 161c 80E0      		ldi r24,lo8(__c.2941)
 4019 161e 90E0      		ldi r25,hi8(__c.2941)
 4020 1620 0E94 0000 		call uart_puts_p
 4021               	.L330:
 4022               	.LBB340:
 4023               	.LBB341:
 4024               	.LM649:
 4025 1624 F999      		sbic 63-32,1
 4026 1626 00C0      		rjmp .L330
 4027               	.LM650:
 4028 1628 12BC      		out 66-32,__zero_reg__
 4029               	.LM651:
 4030 162a 81E0      		ldi r24,lo8(1)
 4031 162c 81BD      		out 65-32,r24
 4032               	.LM652:
 4033 162e 86E0      		ldi r24,lo8(6)
 4034 1630 00C0      		rjmp .L351
 4035               	.L329:
 4036               	.LBE341:
 4037               	.LBE340:
 4038               	.LM653:
 4039 1632 C801      		movw r24,r16
 4040 1634 60E0      		ldi r22,lo8(__c.2943)
 4041 1636 70E0      		ldi r23,hi8(__c.2943)
 4042 1638 0E94 0000 		call strcmp_P
 4043 163c 892B      		or r24,r25
 4044 163e 01F4      		brne .L331
 4045               	.LM654:
 4046 1640 80E0      		ldi r24,lo8(__c.2945)
 4047 1642 90E0      		ldi r25,hi8(__c.2945)
 4048 1644 0E94 0000 		call uart_puts_p
 4049               	.L332:
 4050               	.LBB342:
 4051               	.LBB343:
 4052               	.LM655:
 4053 1648 F999      		sbic 63-32,1
 4054 164a 00C0      		rjmp .L332
 4055               	.LM656:
 4056 164c 12BC      		out 66-32,__zero_reg__
 4057               	.LM657:
 4058 164e 81E0      		ldi r24,lo8(1)
 4059 1650 81BD      		out 65-32,r24
 4060               	.LM658:
 4061 1652 82E0      		ldi r24,lo8(2)
 4062 1654 00C0      		rjmp .L351
 4063               	.L331:
 4064               	.LBE343:
 4065               	.LBE342:
 4066               	.LM659:
 4067 1656 C801      		movw r24,r16
 4068 1658 60E0      		ldi r22,lo8(__c.2947)
 4069 165a 70E0      		ldi r23,hi8(__c.2947)
 4070 165c 0E94 0000 		call strcmp_P
 4071 1660 892B      		or r24,r25
 4072 1662 01F4      		brne .L333
 4073               	.LM660:
 4074 1664 80E0      		ldi r24,lo8(__c.2949)
 4075 1666 90E0      		ldi r25,hi8(__c.2949)
 4076 1668 0E94 0000 		call uart_puts_p
 4077               	.L334:
 4078               	.LBB344:
 4079               	.LBB345:
 4080               	.LM661:
 4081 166c F999      		sbic 63-32,1
 4082 166e 00C0      		rjmp .L334
 4083               	.LM662:
 4084 1670 12BC      		out 66-32,__zero_reg__
 4085               	.LM663:
 4086 1672 81E0      		ldi r24,lo8(1)
 4087 1674 81BD      		out 65-32,r24
 4088               	.LM664:
 4089 1676 83E0      		ldi r24,lo8(3)
 4090 1678 00C0      		rjmp .L351
 4091               	.L333:
 4092               	.LBE345:
 4093               	.LBE344:
 4094               	.LM665:
 4095 167a C801      		movw r24,r16
 4096 167c 60E0      		ldi r22,lo8(__c.2951)
 4097 167e 70E0      		ldi r23,hi8(__c.2951)
 4098 1680 0E94 0000 		call strcmp_P
 4099 1684 892B      		or r24,r25
 4100 1686 01F4      		brne .L335
 4101               	.LM666:
 4102 1688 80E0      		ldi r24,lo8(__c.2953)
 4103 168a 90E0      		ldi r25,hi8(__c.2953)
 4104 168c 0E94 0000 		call uart_puts_p
 4105               	.L336:
 4106               	.LBB346:
 4107               	.LBB347:
 4108               	.LM667:
 4109 1690 F999      		sbic 63-32,1
 4110 1692 00C0      		rjmp .L336
 4111               	.LM668:
 4112 1694 12BC      		out 66-32,__zero_reg__
 4113               	.LM669:
 4114 1696 81E0      		ldi r24,lo8(1)
 4115 1698 81BD      		out 65-32,r24
 4116               	.LM670:
 4117 169a 87E0      		ldi r24,lo8(7)
 4118               	.L351:
 4119 169c 80BD      		out 64-32,r24
 4120               	.L352:
 4121               	.LM671:
 4122 169e FA9A      		sbi 63-32,2
 4123               	.LM672:
 4124 16a0 F99A      		sbi 63-32,1
 4125               	.LBE347:
 4126               	.LBE346:
 4127               	.LM673:
 4128 16a2 0E94 0000 		call record_config_file
 4129               	.LM674:
 4130 16a6 85E0      		ldi r24,lo8(5)
 4131 16a8 0E94 0000 		call blink_error
 4132 16ac 00C0      		rjmp .L337
 4133               	.L335:
 4134               	.LM675:
 4135 16ae C801      		movw r24,r16
 4136 16b0 60E0      		ldi r22,lo8(__c.2955)
 4137 16b2 70E0      		ldi r23,hi8(__c.2955)
 4138 16b4 0E94 0000 		call strcmp_P
 4139 16b8 892B      		or r24,r25
 4140 16ba 01F0      		breq .+2
 4141 16bc 00C0      		rjmp .L349
 4142               	.LM676:
 4143 16be 80E0      		ldi r24,lo8(__c.2957)
 4144 16c0 90E0      		ldi r25,hi8(__c.2957)
 4145 16c2 0E94 0000 		call uart_puts_p
 4146               	.L337:
 4147               	/* epilogue start */
 4148               	.LBE331:
 4149               	.LM677:
 4150 16c6 0F90      		pop __tmp_reg__
 4151 16c8 0F90      		pop __tmp_reg__
 4152 16ca 0F90      		pop __tmp_reg__
 4153 16cc 0F90      		pop __tmp_reg__
 4154 16ce 0F90      		pop __tmp_reg__
 4155 16d0 CF91      		pop r28
 4156 16d2 DF91      		pop r29
 4157 16d4 1F91      		pop r17
 4158 16d6 0F91      		pop r16
 4159 16d8 FF90      		pop r15
 4160               	.LVL190:
 4161 16da 0895      		ret
 4162               	.LFE28:
 4164               		.data
 4165               	.LC17:
 4166 00aa 2D31 0A00 		.string	"-1\n"
 4167               		.text
 4168               	.global	command_shell
 4170               	command_shell:
 4171               	.LFB13:
 4172               	.LM678:
 4173 16dc 2F92      		push r2
 4174 16de 3F92      		push r3
 4175 16e0 4F92      		push r4
 4176 16e2 5F92      		push r5
 4177 16e4 6F92      		push r6
 4178 16e6 7F92      		push r7
 4179 16e8 8F92      		push r8
 4180 16ea 9F92      		push r9
 4181 16ec AF92      		push r10
 4182 16ee BF92      		push r11
 4183 16f0 CF92      		push r12
 4184 16f2 DF92      		push r13
 4185 16f4 EF92      		push r14
 4186 16f6 FF92      		push r15
 4187 16f8 0F93      		push r16
 4188 16fa 1F93      		push r17
 4189 16fc DF93      		push r29
 4190 16fe CF93      		push r28
 4191 1700 CDB7      		in r28,__SP_L__
 4192 1702 DEB7      		in r29,__SP_H__
 4193 1704 C357      		subi r28,lo8(-(-115))
 4194 1706 D040      		sbci r29,hi8(-(-115))
 4195 1708 0FB6      		in __tmp_reg__,__SREG__
 4196 170a F894      		cli
 4197 170c DEBF      		out __SP_H__,r29
 4198 170e 0FBE      		out __SREG__,__tmp_reg__
 4199 1710 CDBF      		out __SP_L__,r28
 4200               	/* prologue: function */
 4201               	/* frame size = 115 */
 4202               	.LBB424:
 4203               	.LM679:
 4204 1712 1EE0      		ldi r17,lo8(14)
 4205 1714 412E      		mov r4,r17
 4206 1716 512C      		mov r5,__zero_reg__
 4207 1718 4C0E      		add r4,r28
 4208 171a 5D1E      		adc r5,r29
 4209               	.LBB425:
 4210               	.LM680:
 4211 171c B3E4      		ldi r27,lo8(67)
 4212 171e 6B2E      		mov r6,r27
 4213 1720 712C      		mov r7,__zero_reg__
 4214 1722 6C0E      		add r6,r28
 4215 1724 7D1E      		adc r7,r29
 4216               	.LBE425:
 4217               	.LBB426:
 4218               	.LM681:
 4219 1726 A6E0      		ldi r26,lo8(6)
 4220 1728 2A2E      		mov r2,r26
 4221 172a 312C      		mov r3,__zero_reg__
 4222 172c 2C0E      		add r2,r28
 4223 172e 3D1E      		adc r3,r29
 4224               	.LVL191:
 4225               	.L423:
 4226               	.LBE426:
 4227               	.LM682:
 4228 1730 8EE3      		ldi r24,lo8(62)
 4229 1732 0E94 0000 		call uart_putc
 4230               	.LVL192:
 4231               	.LM683:
 4232 1736 C201      		movw r24,r4
 4233 1738 68E1      		ldi r22,lo8(24)
 4234 173a 0E94 0000 		call read_line
 4235 173e 8823      		tst r24
 4236 1740 01F0      		breq .L423
 4237               	.LM684:
 4238 1742 80E0      		ldi r24,lo8(0)
 4239 1744 0E94 0000 		call get_cmd_arg
 4240 1748 8C01      		movw r16,r24
 4241               	.LVL193:
 4242               	.LM685:
 4243 174a 60E0      		ldi r22,lo8(__c.2251)
 4244 174c 70E0      		ldi r23,hi8(__c.2251)
 4245 174e 0E94 0000 		call strcmp_P
 4246 1752 892B      		or r24,r25
 4247 1754 01F4      		brne .L355
 4248               	.LM686:
 4249 1756 80E0      		ldi r24,lo8(__c.2253)
 4250 1758 90E0      		ldi r25,hi8(__c.2253)
 4251 175a 0E94 0000 		call uart_puts_p
 4252               	.LM687:
 4253 175e 8091 0000 		lds r24,fs
 4254 1762 9091 0000 		lds r25,(fs)+1
 4255 1766 0E94 0000 		call fat_close
 4256               	.LM688:
 4257 176a 8091 0000 		lds r24,partition
 4258 176e 9091 0000 		lds r25,(partition)+1
 4259 1772 0E94 0000 		call partition_close
 4260               	.LM689:
 4261 1776 0E94 0000 		call init_media
 4262               	.LM690:
 4263 177a 80E0      		ldi r24,lo8(__c.2255)
 4264 177c 90E0      		ldi r25,hi8(__c.2255)
 4265 177e 00C0      		rjmp .L428
 4266               	.L355:
 4267               	.LM691:
 4268 1780 C801      		movw r24,r16
 4269 1782 60E0      		ldi r22,lo8(__c.2257)
 4270 1784 70E0      		ldi r23,hi8(__c.2257)
 4271 1786 0E94 0000 		call strcmp_P
 4272 178a 892B      		or r24,r25
 4273 178c 01F0      		breq .L429
 4274               	.L356:
 4275               	.LM692:
 4276 178e C801      		movw r24,r16
 4277 1790 60E0      		ldi r22,lo8(__c.2259)
 4278 1792 70E0      		ldi r23,hi8(__c.2259)
 4279 1794 0E94 0000 		call strcmp_P
 4280 1798 892B      		or r24,r25
 4281 179a 01F4      		brne .L357
 4282               	.L429:
 4283               	.LM693:
 4284 179c 0E94 0000 		call print_menu
 4285 17a0 00C0      		rjmp .L423
 4286               	.L357:
 4287               	.LM694:
 4288 17a2 C801      		movw r24,r16
 4289 17a4 60E0      		ldi r22,lo8(__c.2261)
 4290 17a6 70E0      		ldi r23,hi8(__c.2261)
 4291 17a8 0E94 0000 		call strcmp_P
 4292 17ac 892B      		or r24,r25
 4293 17ae 01F4      		brne .L358
 4294               	.LM695:
 4295 17b0 0E94 0000 		call baud_menu
 4296 17b4 00C0      		rjmp .L423
 4297               	.L358:
 4298               	.LM696:
 4299 17b6 C801      		movw r24,r16
 4300 17b8 60E0      		ldi r22,lo8(__c.2263)
 4301 17ba 70E0      		ldi r23,hi8(__c.2263)
 4302 17bc 0E94 0000 		call strcmp_P
 4303 17c0 892B      		or r24,r25
 4304 17c2 01F4      		brne .L359
 4305               	.LM697:
 4306 17c4 0E94 0000 		call system_menu
 4307 17c8 00C0      		rjmp .L423
 4308               	.L359:
 4309               	.LM698:
 4310 17ca C801      		movw r24,r16
 4311 17cc 60E0      		ldi r22,lo8(__c.2265)
 4312 17ce 70E0      		ldi r23,hi8(__c.2265)
 4313 17d0 42E0      		ldi r20,lo8(2)
 4314 17d2 50E0      		ldi r21,hi8(2)
 4315 17d4 0E94 0000 		call strncmp_P
 4316 17d8 892B      		or r24,r25
 4317 17da 01F4      		brne .L360
 4318               	.LBB428:
 4319               	.LM699:
 4320 17dc 82E0      		ldi r24,lo8(2)
 4321 17de B201      		movw r22,r4
 4322 17e0 0E94 0000 		call too_many_arguments_error
 4323 17e4 8823      		tst r24
 4324 17e6 01F0      		breq .+2
 4325 17e8 00C0      		rjmp .L423
 4326               	.LM700:
 4327 17ea 81E0      		ldi r24,lo8(1)
 4328 17ec 0E94 0000 		call get_cmd_arg
 4329 17f0 7C01      		movw r14,r24
 4330               	.LVL194:
 4331               	.LM701:
 4332 17f2 0097      		sbiw r24,0
 4333 17f4 01F4      		brne .+2
 4334 17f6 00C0      		rjmp .L423
 4335               	.LVL195:
 4336               	.LM702:
 4337 17f8 6091 0000 		lds r22,dd
 4338 17fc 7091 0000 		lds r23,(dd)+1
 4339 1800 8091 0000 		lds r24,fs
 4340 1804 9091 0000 		lds r25,(fs)+1
 4341               	.LVL196:
 4342 1808 A701      		movw r20,r14
 4343 180a 9301      		movw r18,r6
 4344 180c 00E0      		ldi r16,lo8(0)
 4345 180e 0E94 0000 		call find_file_in_dir
 4346 1812 8823      		tst r24
 4347 1814 01F0      		breq .L361
 4348               	.LBB429:
 4349               	.LM703:
 4350 1816 8091 0000 		lds r24,fs
 4351 181a 9091 0000 		lds r25,(fs)+1
 4352 181e B301      		movw r22,r6
 4353 1820 0E94 0000 		call fat_open_dir
 4354 1824 8C01      		movw r16,r24
 4355               	.LVL197:
 4356               	.LM704:
 4357 1826 0097      		sbiw r24,0
 4358 1828 01F0      		breq .L361
 4359               	.LVL198:
 4360               	.LM705:
 4361 182a 8091 0000 		lds r24,dd
 4362 182e 9091 0000 		lds r25,(dd)+1
 4363               	.LVL199:
 4364 1832 0E94 0000 		call fat_close_dir
 4365               	.LM706:
 4366 1836 1093 0000 		sts (dd)+1,r17
 4367 183a 0093 0000 		sts dd,r16
 4368 183e 00C0      		rjmp .L423
 4369               	.LVL200:
 4370               	.L361:
 4371               	.LBE429:
 4372               	.LM707:
 4373 1840 80E0      		ldi r24,lo8(__c.2269)
 4374 1842 90E0      		ldi r25,hi8(__c.2269)
 4375               	.LVL201:
 4376 1844 0E94 0000 		call uart_puts_p
 4377               	.LM708:
 4378 1848 C701      		movw r24,r14
 4379 184a 00C0      		rjmp .L430
 4380               	.LVL202:
 4381               	.L360:
 4382               	.LBE428:
 4383               	.LM709:
 4384 184c C801      		movw r24,r16
 4385 184e 60E0      		ldi r22,lo8(__c.2271)
 4386 1850 70E0      		ldi r23,hi8(__c.2271)
 4387 1852 0E94 0000 		call strcmp_P
 4388 1856 892B      		or r24,r25
 4389 1858 01F0      		breq .+2
 4390 185a 00C0      		rjmp .L362
 4391               	.LBB430:
 4392               	.LM710:
 4393 185c 81E0      		ldi r24,lo8(1)
 4394 185e 0E94 0000 		call get_cmd_arg
 4395 1862 7C01      		movw r14,r24
 4396               	.LVL203:
 4397               	.LBB431:
 4398               	.LM711:
 4399 1864 F4E2      		ldi r31,lo8(36)
 4400 1866 DF2E      		mov r13,r31
 4401 1868 00C0      		rjmp .L424
 4402               	.L369:
 4403               	.LBE431:
 4404               	.LM712:
 4405 186a E114      		cp r14,__zero_reg__
 4406 186c F104      		cpc r15,__zero_reg__
 4407 186e 01F0      		breq .L364
 4408               	.LM713:
 4409 1870 C701      		movw r24,r14
 4410 1872 B301      		movw r22,r6
 4411 1874 0E94 0000 		call wildcmp
 4412 1878 8823      		tst r24
 4413 187a 01F0      		breq .L424
 4414               	.L364:
 4415               	.LBB432:
 4416               	.LM714:
 4417 187c D301      		movw r26,r6
 4418 187e 0D90      		ld __tmp_reg__,X+
 4419 1880 0020      		tst __tmp_reg__
 4420 1882 01F4      		brne .-6
 4421 1884 8D01      		movw r16,r26
 4422 1886 0150      		subi r16,lo8(-(-1))
 4423 1888 1040      		sbci r17,hi8(-(-1))
 4424 188a 0619      		sub r16,r6
 4425 188c 1709      		sbc r17,r7
 4426               	.LM715:
 4427 188e C301      		movw r24,r6
 4428 1890 0E94 0000 		call uart_puts
 4429               	.LM716:
 4430 1894 F301      		movw r30,r6
 4431 1896 80A1      		ldd r24,Z+32
 4432 1898 84FD      		sbrc r24,4
 4433 189a 00C0      		rjmp .L365
 4434 189c 80E2      		ldi r24,lo8(32)
 4435 189e 00C0      		rjmp .L366
 4436               	.L365:
 4437 18a0 8FE2      		ldi r24,lo8(47)
 4438               	.L366:
 4439               	.LM717:
 4440 18a2 1D2D      		mov r17,r13
 4441               	.LVL204:
 4442 18a4 101B      		sub r17,r16
 4443               	.LM718:
 4444 18a6 0E94 0000 		call uart_putc
 4445 18aa 00C0      		rjmp .L367
 4446               	.L368:
 4447               	.LM719:
 4448 18ac 80E2      		ldi r24,lo8(32)
 4449 18ae 0E94 0000 		call uart_putc
 4450 18b2 1150      		subi r17,lo8(-(-1))
 4451               	.L367:
 4452               	.LM720:
 4453 18b4 1123      		tst r17
 4454 18b6 01F4      		brne .L368
 4455               	.LM721:
 4456 18b8 D301      		movw r26,r6
 4457 18ba 9596      		adiw r26,37
 4458 18bc 6D91      		ld r22,X+
 4459 18be 7D91      		ld r23,X+
 4460 18c0 8D91      		ld r24,X+
 4461 18c2 9C91      		ld r25,X
 4462 18c4 9897      		sbiw r26,37+3
 4463 18c6 0E94 0000 		call uart_putdw_dec
 4464               	.LM722:
 4465 18ca 8AE0      		ldi r24,lo8(10)
 4466 18cc 0E94 0000 		call uart_putc
 4467               	.LVL205:
 4468               	.L424:
 4469               	.LBE432:
 4470               	.LM723:
 4471 18d0 8091 0000 		lds r24,dd
 4472 18d4 9091 0000 		lds r25,(dd)+1
 4473 18d8 B301      		movw r22,r6
 4474 18da 0E94 0000 		call fat_read_dir
 4475 18de 8823      		tst r24
 4476 18e0 01F4      		brne .L369
 4477 18e2 00C0      		rjmp .L423
 4478               	.LVL206:
 4479               	.L362:
 4480               	.LBE430:
 4481               	.LM724:
 4482 18e4 C801      		movw r24,r16
 4483 18e6 60E0      		ldi r22,lo8(__c.2281)
 4484 18e8 70E0      		ldi r23,hi8(__c.2281)
 4485 18ea 43E0      		ldi r20,lo8(3)
 4486 18ec 50E0      		ldi r21,hi8(3)
 4487 18ee 0E94 0000 		call strncmp_P
 4488 18f2 892B      		or r24,r25
 4489 18f4 01F0      		breq .+2
 4490 18f6 00C0      		rjmp .L370
 4491               	.LBB433:
 4492               	.LM725:
 4493 18f8 82E0      		ldi r24,lo8(2)
 4494 18fa B201      		movw r22,r4
 4495 18fc 0E94 0000 		call too_many_arguments_error
 4496 1900 8823      		tst r24
 4497 1902 01F0      		breq .+2
 4498 1904 00C0      		rjmp .L423
 4499               	.LM726:
 4500 1906 81E0      		ldi r24,lo8(1)
 4501 1908 0E94 0000 		call get_cmd_arg
 4502 190c 8C01      		movw r16,r24
 4503               	.LVL207:
 4504               	.LM727:
 4505 190e 0097      		sbiw r24,0
 4506 1910 01F4      		brne .+2
 4507 1912 00C0      		rjmp .L423
 4508               	.LVL208:
 4509               	.LM728:
 4510 1914 6091 0000 		lds r22,dd
 4511 1918 7091 0000 		lds r23,(dd)+1
 4512 191c 8091 0000 		lds r24,fs
 4513 1920 9091 0000 		lds r25,(fs)+1
 4514               	.LVL209:
 4515 1924 A801      		movw r20,r16
 4516 1926 0E94 0000 		call open_file_in_dir
 4517 192a 5C01      		movw r10,r24
 4518               	.LM729:
 4519 192c 0097      		sbiw r24,0
 4520 192e 01F0      		breq .L371
 4521               	.LVL210:
 4522 1930 CC24      		clr r12
 4523 1932 DD24      		clr r13
 4524 1934 7601      		movw r14,r12
 4525               	.LVL211:
 4526 1936 00C0      		rjmp .L372
 4527               	.LVL212:
 4528               	.L371:
 4529               	.LM730:
 4530 1938 80E0      		ldi r24,lo8(__c.2284)
 4531 193a 90E0      		ldi r25,hi8(__c.2284)
 4532               	.LVL213:
 4533 193c 00C0      		rjmp .L427
 4534               	.LVL214:
 4535               	.L374:
 4536               	.LM731:
 4537 193e C701      		movw r24,r14
 4538 1940 B601      		movw r22,r12
 4539 1942 0E94 0000 		call uart_putdw_hex
 4540               	.LVL215:
 4541               	.LM732:
 4542 1946 8AE3      		ldi r24,lo8(58)
 4543 1948 0E94 0000 		call uart_putc
 4544 194c 8101      		movw r16,r2
 4545               	.LVL216:
 4546               	.L373:
 4547               	.LBB427:
 4548               	.LM733:
 4549 194e 80E2      		ldi r24,lo8(32)
 4550 1950 0E94 0000 		call uart_putc
 4551               	.LM734:
 4552 1954 F801      		movw r30,r16
 4553 1956 8191      		ld r24,Z+
 4554 1958 8F01      		movw r16,r30
 4555 195a 0E94 0000 		call uart_putc_hex
 4556               	.LM735:
 4557 195e 802F      		mov r24,r16
 4558 1960 8219      		sub r24,r2
 4559 1962 8915      		cp r24,r9
 4560 1964 00F0      		brlo .L373
 4561               	.LBE427:
 4562               	.LM736:
 4563 1966 8AE0      		ldi r24,lo8(10)
 4564 1968 0E94 0000 		call uart_putc
 4565               	.LM737:
 4566 196c 88E0      		ldi r24,lo8(8)
 4567 196e 90E0      		ldi r25,hi8(8)
 4568 1970 A0E0      		ldi r26,hlo8(8)
 4569 1972 B0E0      		ldi r27,hhi8(8)
 4570 1974 C80E      		add r12,r24
 4571 1976 D91E      		adc r13,r25
 4572 1978 EA1E      		adc r14,r26
 4573 197a FB1E      		adc r15,r27
 4574               	.LVL217:
 4575               	.L372:
 4576               	.LM738:
 4577 197c C501      		movw r24,r10
 4578 197e B101      		movw r22,r2
 4579 1980 48E0      		ldi r20,lo8(8)
 4580 1982 50E0      		ldi r21,hi8(8)
 4581 1984 0E94 0000 		call fat_read_file
 4582 1988 982E      		mov r9,r24
 4583 198a 8823      		tst r24
 4584 198c 01F4      		brne .L374
 4585               	.LVL218:
 4586               	.LM739:
 4587 198e C501      		movw r24,r10
 4588               	.LVL219:
 4589 1990 00C0      		rjmp .L431
 4590               	.LVL220:
 4591               	.L370:
 4592               	.LBE433:
 4593               	.LM740:
 4594 1992 C801      		movw r24,r16
 4595 1994 60E0      		ldi r22,lo8(__c.2296)
 4596 1996 70E0      		ldi r23,hi8(__c.2296)
 4597 1998 44E0      		ldi r20,lo8(4)
 4598 199a 50E0      		ldi r21,hi8(4)
 4599 199c 0E94 0000 		call strncmp_P
 4600 19a0 892B      		or r24,r25
 4601 19a2 01F0      		breq .+2
 4602 19a4 00C0      		rjmp .L375
 4603               	.LBB434:
 4604               	.LM741:
 4605 19a6 81E0      		ldi r24,lo8(1)
 4606 19a8 0E94 0000 		call get_cmd_arg
 4607 19ac 8C01      		movw r16,r24
 4608               	.LVL221:
 4609               	.LM742:
 4610 19ae 0097      		sbiw r24,0
 4611 19b0 01F4      		brne .+2
 4612 19b2 00C0      		rjmp .L423
 4613               	.LVL222:
 4614               	.LM743:
 4615 19b4 6091 0000 		lds r22,dd
 4616 19b8 7091 0000 		lds r23,(dd)+1
 4617 19bc 8091 0000 		lds r24,fs
 4618 19c0 9091 0000 		lds r25,(fs)+1
 4619               	.LVL223:
 4620 19c4 A801      		movw r20,r16
 4621 19c6 0E94 0000 		call open_file_in_dir
 4622 19ca 4C01      		movw r8,r24
 4623               	.LM744:
 4624 19cc 0097      		sbiw r24,0
 4625 19ce 01F4      		brne .L376
 4626               	.LVL224:
 4627               	.LM745:
 4628 19d0 80E0      		ldi r24,lo8(__c.2299)
 4629 19d2 90E0      		ldi r25,hi8(__c.2299)
 4630               	.LVL225:
 4631 19d4 00C0      		rjmp .L427
 4632               	.LVL226:
 4633               	.L376:
 4634               	.LM746:
 4635 19d6 82E0      		ldi r24,lo8(2)
 4636               	.LVL227:
 4637 19d8 0E94 0000 		call get_cmd_arg
 4638 19dc AC01      		movw r20,r24
 4639               	.LVL228:
 4640 19de 0097      		sbiw r24,0
 4641 19e0 01F4      		brne .+2
 4642 19e2 00C0      		rjmp .L377
 4643               	.LVL229:
 4644               	.LM747:
 4645 19e4 FC01      		movw r30,r24
 4646 19e6 0190      		ld __tmp_reg__,Z+
 4647 19e8 0020      		tst __tmp_reg__
 4648 19ea 01F4      		brne .-6
 4649 19ec 3197      		sbiw r30,1
 4650 19ee E81B      		sub r30,r24
 4651 19f0 20E0      		ldi r18,lo8(0)
 4652 19f2 30E0      		ldi r19,hi8(0)
 4653               	.LVL230:
 4654               	.LBB435:
 4655               	.LBB436:
 4656               	.LBB437:
 4657               	.LM748:
 4658 19f4 6E2F      		mov r22,r30
 4659 19f6 70E0      		ldi r23,lo8(0)
 4660 19f8 00C0      		rjmp .L378
 4661               	.LVL231:
 4662               	.L379:
 4663               	.LM749:
 4664 19fa FA01      		movw r30,r20
 4665 19fc E20F      		add r30,r18
 4666 19fe F31F      		adc r31,r19
 4667 1a00 8081      		ld r24,Z
 4668 1a02 90E0      		ldi r25,lo8(0)
 4669 1a04 C097      		sbiw r24,48
 4670 1a06 0A97      		sbiw r24,10
 4671 1a08 00F0      		brlo .+2
 4672 1a0a 00C0      		rjmp .L377
 4673               	.LM750:
 4674 1a0c 2F5F      		subi r18,lo8(-(1))
 4675 1a0e 3F4F      		sbci r19,hi8(-(1))
 4676               	.LVL232:
 4677               	.L378:
 4678 1a10 2617      		cp r18,r22
 4679 1a12 3707      		cpc r19,r23
 4680 1a14 04F0      		brlt .L379
 4681 1a16 8A01      		movw r16,r20
 4682               	.LVL233:
 4683 1a18 20E0      		ldi r18,lo8(0)
 4684 1a1a 30E0      		ldi r19,hi8(0)
 4685 1a1c 40E0      		ldi r20,hlo8(0)
 4686 1a1e 50E0      		ldi r21,hhi8(0)
 4687               	.LVL234:
 4688 1a20 00C0      		rjmp .L380
 4689               	.LVL235:
 4690               	.L381:
 4691               	.LBE437:
 4692               	.LBE436:
 4693               	.LBE435:
 4694               	.LBB438:
 4695               	.LBB439:
 4696               	.LBB440:
 4697               	.LM751:
 4698 1a22 CA01      		movw r24,r20
 4699 1a24 B901      		movw r22,r18
 4700 1a26 2AE0      		ldi r18,lo8(10)
 4701 1a28 30E0      		ldi r19,hi8(10)
 4702 1a2a 40E0      		ldi r20,hlo8(10)
 4703 1a2c 50E0      		ldi r21,hhi8(10)
 4704               	.LVL236:
 4705 1a2e 0E94 0000 		call __mulsi3
 4706 1a32 9B01      		movw r18,r22
 4707 1a34 AC01      		movw r20,r24
 4708               	.LVL237:
 4709 1a36 8F2D      		mov r24,r15
 4710 1a38 90E0      		ldi r25,lo8(0)
 4711 1a3a C097      		sbiw r24,48
 4712 1a3c AA27      		clr r26
 4713 1a3e 97FD      		sbrc r25,7
 4714 1a40 A095      		com r26
 4715 1a42 BA2F      		mov r27,r26
 4716 1a44 280F      		add r18,r24
 4717 1a46 391F      		adc r19,r25
 4718 1a48 4A1F      		adc r20,r26
 4719 1a4a 5B1F      		adc r21,r27
 4720 1a4c 0F5F      		subi r16,lo8(-(1))
 4721 1a4e 1F4F      		sbci r17,hi8(-(1))
 4722               	.LVL238:
 4723               	.L380:
 4724               	.LM752:
 4725 1a50 D801      		movw r26,r16
 4726 1a52 FC90      		ld r15,X
 4727 1a54 8F2D      		mov r24,r15
 4728 1a56 8053      		subi r24,lo8(-(-48))
 4729 1a58 8A30      		cpi r24,lo8(10)
 4730 1a5a 00F0      		brlo .L381
 4731               	.LBE440:
 4732               	.LBE439:
 4733               	.LM753:
 4734 1a5c 2A83      		std Y+2,r18
 4735 1a5e 3B83      		std Y+3,r19
 4736 1a60 4C83      		std Y+4,r20
 4737 1a62 5D83      		std Y+5,r21
 4738               	.LVL239:
 4739               	.LM754:
 4740 1a64 C401      		movw r24,r8
 4741 1a66 BE01      		movw r22,r28
 4742 1a68 6E5F      		subi r22,lo8(-(2))
 4743 1a6a 7F4F      		sbci r23,hi8(-(2))
 4744 1a6c 40E0      		ldi r20,lo8(0)
 4745               	.LVL240:
 4746 1a6e 0E94 0000 		call fat_seek_file
 4747               	.LVL241:
 4748 1a72 8823      		tst r24
 4749 1a74 01F4      		brne .L377
 4750               	.LM755:
 4751 1a76 80E0      		ldi r24,lo8(__c.2302)
 4752 1a78 90E0      		ldi r25,hi8(__c.2302)
 4753 1a7a 0E94 0000 		call uart_puts_p
 4754               	.LM756:
 4755 1a7e C201      		movw r24,r4
 4756 1a80 0E94 0000 		call uart_puts
 4757               	.L433:
 4758               	.LM757:
 4759 1a84 8AE0      		ldi r24,lo8(10)
 4760 1a86 0E94 0000 		call uart_putc
 4761               	.LM758:
 4762 1a8a C401      		movw r24,r8
 4763               	.LVL242:
 4764               	.L431:
 4765 1a8c 0E94 0000 		call fat_close_file
 4766 1a90 00C0      		rjmp .L423
 4767               	.LVL243:
 4768               	.L377:
 4769               	.LBE438:
 4770               	.LM759:
 4771 1a92 83E0      		ldi r24,lo8(3)
 4772 1a94 0E94 0000 		call get_cmd_arg
 4773               	.LVL244:
 4774 1a98 AC01      		movw r20,r24
 4775               	.LVL245:
 4776 1a9a 0097      		sbiw r24,0
 4777 1a9c 01F0      		breq .L382
 4778               	.LVL246:
 4779               	.LM760:
 4780 1a9e FC01      		movw r30,r24
 4781 1aa0 0190      		ld __tmp_reg__,Z+
 4782 1aa2 0020      		tst __tmp_reg__
 4783 1aa4 01F4      		brne .-6
 4784 1aa6 3197      		sbiw r30,1
 4785 1aa8 E81B      		sub r30,r24
 4786 1aaa 20E0      		ldi r18,lo8(0)
 4787 1aac 30E0      		ldi r19,hi8(0)
 4788               	.LVL247:
 4789               	.LBB441:
 4790               	.LBB442:
 4791               	.LBB443:
 4792               	.LM761:
 4793 1aae 6E2F      		mov r22,r30
 4794 1ab0 70E0      		ldi r23,lo8(0)
 4795 1ab2 00C0      		rjmp .L383
 4796               	.LVL248:
 4797               	.L384:
 4798               	.LM762:
 4799 1ab4 FA01      		movw r30,r20
 4800 1ab6 E20F      		add r30,r18
 4801 1ab8 F31F      		adc r31,r19
 4802 1aba 8081      		ld r24,Z
 4803 1abc 90E0      		ldi r25,lo8(0)
 4804 1abe C097      		sbiw r24,48
 4805 1ac0 0A97      		sbiw r24,10
 4806 1ac2 00F4      		brsh .L382
 4807               	.LM763:
 4808 1ac4 2F5F      		subi r18,lo8(-(1))
 4809 1ac6 3F4F      		sbci r19,hi8(-(1))
 4810               	.LVL249:
 4811               	.L383:
 4812 1ac8 2617      		cp r18,r22
 4813 1aca 3707      		cpc r19,r23
 4814 1acc 04F0      		brlt .L384
 4815 1ace 6A01      		movw r12,r20
 4816               	.LVL250:
 4817 1ad0 EE24      		clr r14
 4818 1ad2 FF24      		clr r15
 4819 1ad4 8701      		movw r16,r14
 4820               	.LVL251:
 4821 1ad6 00C0      		rjmp .L385
 4822               	.LVL252:
 4823               	.L386:
 4824               	.LBE443:
 4825               	.LBE442:
 4826               	.LBE441:
 4827               	.LBB444:
 4828               	.LBB445:
 4829               	.LM764:
 4830 1ad8 C801      		movw r24,r16
 4831 1ada B701      		movw r22,r14
 4832 1adc 2AE0      		ldi r18,lo8(10)
 4833 1ade 30E0      		ldi r19,hi8(10)
 4834 1ae0 40E0      		ldi r20,hlo8(10)
 4835 1ae2 50E0      		ldi r21,hhi8(10)
 4836               	.LVL253:
 4837 1ae4 0E94 0000 		call __mulsi3
 4838 1ae8 7B01      		movw r14,r22
 4839 1aea 8C01      		movw r16,r24
 4840 1aec 8B2D      		mov r24,r11
 4841 1aee 90E0      		ldi r25,lo8(0)
 4842 1af0 C097      		sbiw r24,48
 4843 1af2 AA27      		clr r26
 4844 1af4 97FD      		sbrc r25,7
 4845 1af6 A095      		com r26
 4846 1af8 BA2F      		mov r27,r26
 4847 1afa E80E      		add r14,r24
 4848 1afc F91E      		adc r15,r25
 4849 1afe 0A1F      		adc r16,r26
 4850 1b00 1B1F      		adc r17,r27
 4851 1b02 0894      		sec
 4852 1b04 C11C      		adc r12,__zero_reg__
 4853 1b06 D11C      		adc r13,__zero_reg__
 4854               	.LVL254:
 4855               	.L385:
 4856               	.LM765:
 4857 1b08 F601      		movw r30,r12
 4858 1b0a B080      		ld r11,Z
 4859 1b0c 8B2D      		mov r24,r11
 4860 1b0e 8053      		subi r24,lo8(-(-48))
 4861 1b10 8A30      		cpi r24,lo8(10)
 4862 1b12 00F0      		brlo .L386
 4863 1b14 00C0      		rjmp .L426
 4864               	.LVL255:
 4865               	.L382:
 4866 1b16 EE24      		clr r14
 4867 1b18 EA94      		dec r14
 4868 1b1a FE2C      		mov r15,r14
 4869 1b1c 8701      		movw r16,r14
 4870               	.LVL256:
 4871 1b1e 00C0      		rjmp .L426
 4872               	.LVL257:
 4873               	.L392:
 4874               	.LBE445:
 4875               	.LBE444:
 4876               	.LM766:
 4877 1b20 9981      		ldd r25,Y+1
 4878 1b22 892F      		mov r24,r25
 4879 1b24 8052      		subi r24,lo8(-(-32))
 4880 1b26 8F35      		cpi r24,lo8(95)
 4881 1b28 00F4      		brsh .L388
 4882               	.LM767:
 4883 1b2a 892F      		mov r24,r25
 4884 1b2c 00C0      		rjmp .L434
 4885               	.L388:
 4886               	.LM768:
 4887 1b2e 9A30      		cpi r25,lo8(10)
 4888 1b30 01F4      		brne .L390
 4889               	.LM769:
 4890 1b32 8AE0      		ldi r24,lo8(10)
 4891 1b34 00C0      		rjmp .L434
 4892               	.L390:
 4893               	.LM770:
 4894 1b36 8EE2      		ldi r24,lo8(46)
 4895               	.L434:
 4896 1b38 0E94 0000 		call uart_putc
 4897               	.LM771:
 4898 1b3c 0894      		sec
 4899 1b3e E108      		sbc r14,__zero_reg__
 4900 1b40 F108      		sbc r15,__zero_reg__
 4901 1b42 0109      		sbc r16,__zero_reg__
 4902 1b44 1109      		sbc r17,__zero_reg__
 4903               	.LVL258:
 4904               	.L426:
 4905               	.LM772:
 4906 1b46 C401      		movw r24,r8
 4907 1b48 BE01      		movw r22,r28
 4908 1b4a 6F5F      		subi r22,lo8(-(1))
 4909 1b4c 7F4F      		sbci r23,hi8(-(1))
 4910 1b4e 41E0      		ldi r20,lo8(1)
 4911 1b50 50E0      		ldi r21,hi8(1)
 4912               	.LVL259:
 4913 1b52 0E94 0000 		call fat_read_file
 4914               	.LVL260:
 4915 1b56 1816      		cp __zero_reg__,r24
 4916 1b58 1906      		cpc __zero_reg__,r25
 4917 1b5a 04F0      		brlt .+2
 4918 1b5c 00C0      		rjmp .L433
 4919 1b5e E114      		cp r14,__zero_reg__
 4920 1b60 F104      		cpc r15,__zero_reg__
 4921 1b62 0105      		cpc r16,__zero_reg__
 4922 1b64 1105      		cpc r17,__zero_reg__
 4923 1b66 01F4      		brne .L392
 4924 1b68 00C0      		rjmp .L433
 4925               	.LVL261:
 4926               	.L375:
 4927               	.LBE434:
 4928               	.LM773:
 4929 1b6a C801      		movw r24,r16
 4930 1b6c 60E0      		ldi r22,lo8(__c.2309)
 4931 1b6e 70E0      		ldi r23,hi8(__c.2309)
 4932 1b70 0E94 0000 		call strcmp_P
 4933 1b74 892B      		or r24,r25
 4934 1b76 01F0      		breq .+2
 4935 1b78 00C0      		rjmp .L393
 4936               	.LM774:
 4937 1b7a E090 0000 		lds r14,fs
 4938 1b7e F090 0000 		lds r15,(fs)+1
 4939               	.LVL262:
 4940               	.LBB446:
 4941               	.LBB447:
 4942               	.LM775:
 4943 1b82 E114      		cp r14,__zero_reg__
 4944 1b84 F104      		cpc r15,__zero_reg__
 4945 1b86 01F4      		brne .+2
 4946 1b88 00C0      		rjmp .L394
 4947               	.LBE447:
 4948               	.LM776:
 4949 1b8a CE01      		movw r24,r28
 4950 1b8c 8696      		adiw r24,38
 4951 1b8e 0E94 0000 		call sd_raw_get_info
 4952               	.LBB448:
 4953 1b92 8823      		tst r24
 4954 1b94 01F4      		brne .+2
 4955 1b96 00C0      		rjmp .L394
 4956               	.LBE448:
 4957               	.LM777:
 4958 1b98 80E0      		ldi r24,lo8(__c.2785)
 4959 1b9a 90E0      		ldi r25,hi8(__c.2785)
 4960 1b9c 0E94 0000 		call uart_puts_p
 4961               	.LBB449:
 4962 1ba0 8EA1      		ldd r24,Y+38
 4963 1ba2 0E94 0000 		call uart_putc_hex
 4964 1ba6 8AE0      		ldi r24,lo8(10)
 4965 1ba8 0E94 0000 		call uart_putc
 4966               	.LBE449:
 4967               	.LM778:
 4968 1bac 80E0      		ldi r24,lo8(__c.2787)
 4969 1bae 90E0      		ldi r25,hi8(__c.2787)
 4970 1bb0 0E94 0000 		call uart_puts_p
 4971               	.LBB450:
 4972 1bb4 CE01      		movw r24,r28
 4973 1bb6 8796      		adiw r24,39
 4974 1bb8 0E94 0000 		call uart_puts
 4975 1bbc 8AE0      		ldi r24,lo8(10)
 4976 1bbe 0E94 0000 		call uart_putc
 4977               	.LBE450:
 4978               	.LM779:
 4979 1bc2 80E0      		ldi r24,lo8(__c.2789)
 4980 1bc4 90E0      		ldi r25,hi8(__c.2789)
 4981 1bc6 0E94 0000 		call uart_puts_p
 4982               	.LBB451:
 4983 1bca CE01      		movw r24,r28
 4984 1bcc 8A96      		adiw r24,42
 4985 1bce 0E94 0000 		call uart_puts
 4986 1bd2 8AE0      		ldi r24,lo8(10)
 4987 1bd4 0E94 0000 		call uart_putc
 4988               	.LBE451:
 4989               	.LM780:
 4990 1bd8 80E0      		ldi r24,lo8(__c.2791)
 4991 1bda 90E0      		ldi r25,hi8(__c.2791)
 4992 1bdc 0E94 0000 		call uart_puts_p
 4993               	.LBB452:
 4994 1be0 88A9      		ldd r24,Y+48
 4995 1be2 0E94 0000 		call uart_putc_hex
 4996 1be6 8AE0      		ldi r24,lo8(10)
 4997 1be8 0E94 0000 		call uart_putc
 4998               	.LBE452:
 4999               	.LM781:
 5000 1bec 80E0      		ldi r24,lo8(__c.2793)
 5001 1bee 90E0      		ldi r25,hi8(__c.2793)
 5002 1bf0 0E94 0000 		call uart_puts_p
 5003               	.LBB453:
 5004 1bf4 69A9      		ldd r22,Y+49
 5005 1bf6 7AA9      		ldd r23,Y+50
 5006 1bf8 8BA9      		ldd r24,Y+51
 5007 1bfa 9CA9      		ldd r25,Y+52
 5008 1bfc 0E94 0000 		call uart_putdw_hex
 5009 1c00 8AE0      		ldi r24,lo8(10)
 5010 1c02 0E94 0000 		call uart_putc
 5011               	.LBE453:
 5012               	.LM782:
 5013 1c06 80E0      		ldi r24,lo8(__c.2795)
 5014 1c08 90E0      		ldi r25,hi8(__c.2795)
 5015 1c0a 0E94 0000 		call uart_puts_p
 5016               	.LBB454:
 5017 1c0e 8EA9      		ldd r24,Y+54
 5018 1c10 90E0      		ldi r25,lo8(0)
 5019 1c12 0E94 0000 		call uart_putw_dec
 5020 1c16 8FE2      		ldi r24,lo8(47)
 5021 1c18 0E94 0000 		call uart_putc
 5022               	.LM783:
 5023 1c1c 8DA9      		ldd r24,Y+53
 5024 1c1e 90E0      		ldi r25,lo8(0)
 5025 1c20 0E94 0000 		call uart_putw_dec
 5026 1c24 8AE0      		ldi r24,lo8(10)
 5027 1c26 0E94 0000 		call uart_putc
 5028               	.LBE454:
 5029               	.LM784:
 5030 1c2a 80E0      		ldi r24,lo8(__c.2797)
 5031 1c2c 90E0      		ldi r25,hi8(__c.2797)
 5032 1c2e 0E94 0000 		call uart_puts_p
 5033               	.LBB455:
 5034 1c32 2FA9      		ldd r18,Y+55
 5035 1c34 38AD      		ldd r19,Y+56
 5036 1c36 49AD      		ldd r20,Y+57
 5037 1c38 5AAD      		ldd r21,Y+58
 5038 1c3a 6BAD      		ldd r22,Y+59
 5039 1c3c 7CAD      		ldd r23,Y+60
 5040 1c3e 8DAD      		ldd r24,Y+61
 5041 1c40 9EAD      		ldd r25,Y+62
 5042 1c42 04E1      		ldi r16,lo8(20)
 5043               	.LVL263:
 5044 1c44 0E94 0000 		call __lshrdi3
 5045 1c48 B901      		movw r22,r18
 5046 1c4a CA01      		movw r24,r20
 5047 1c4c 0E94 0000 		call uart_putdw_dec
 5048               	.LBE455:
 5049 1c50 80E0      		ldi r24,lo8(__c.2799)
 5050 1c52 90E0      		ldi r25,hi8(__c.2799)
 5051 1c54 0E94 0000 		call uart_puts_p
 5052               	.LM785:
 5053 1c58 80E0      		ldi r24,lo8(__c.2801)
 5054 1c5a 90E0      		ldi r25,hi8(__c.2801)
 5055 1c5c 0E94 0000 		call uart_puts_p
 5056               	.LBB456:
 5057 1c60 8FAD      		ldd r24,Y+63
 5058 1c62 90E0      		ldi r25,lo8(0)
 5059 1c64 0E94 0000 		call uart_putw_dec
 5060 1c68 8AE0      		ldi r24,lo8(10)
 5061 1c6a 0E94 0000 		call uart_putc
 5062               	.LBE456:
 5063               	.LM786:
 5064 1c6e 80E0      		ldi r24,lo8(__c.2803)
 5065 1c70 90E0      		ldi r25,hi8(__c.2803)
 5066 1c72 0E94 0000 		call uart_puts_p
 5067               	.LBB457:
 5068 1c76 2296      		adiw r28,65-63
 5069 1c78 8FAD      		ldd r24,Y+63
 5070 1c7a 2297      		sbiw r28,65-63
 5071 1c7c 90E0      		ldi r25,lo8(0)
 5072 1c7e 0E94 0000 		call uart_putw_dec
 5073 1c82 8FE2      		ldi r24,lo8(47)
 5074 1c84 0E94 0000 		call uart_putc
 5075               	.LM787:
 5076 1c88 2196      		adiw r28,64-63
 5077 1c8a 8FAD      		ldd r24,Y+63
 5078 1c8c 2197      		sbiw r28,64-63
 5079 1c8e 90E0      		ldi r25,lo8(0)
 5080 1c90 0E94 0000 		call uart_putw_dec
 5081 1c94 8AE0      		ldi r24,lo8(10)
 5082 1c96 0E94 0000 		call uart_putc
 5083               	.LBE457:
 5084               	.LM788:
 5085 1c9a 80E0      		ldi r24,lo8(__c.2805)
 5086 1c9c 90E0      		ldi r25,hi8(__c.2805)
 5087 1c9e 0E94 0000 		call uart_puts_p
 5088               	.LBB458:
 5089 1ca2 2396      		adiw r28,66-63
 5090 1ca4 8FAD      		ldd r24,Y+63
 5091 1ca6 2397      		sbiw r28,66-63
 5092 1ca8 90E0      		ldi r25,lo8(0)
 5093 1caa 0E94 0000 		call uart_putw_dec
 5094 1cae 8AE0      		ldi r24,lo8(10)
 5095 1cb0 0E94 0000 		call uart_putc
 5096               	.LBE458:
 5097               	.LM789:
 5098 1cb4 80E0      		ldi r24,lo8(__c.2807)
 5099 1cb6 90E0      		ldi r25,hi8(__c.2807)
 5100 1cb8 0E94 0000 		call uart_puts_p
 5101 1cbc C701      		movw r24,r14
 5102 1cbe 0E94 0000 		call fat_get_fs_free
 5103               	.LBB459:
 5104 1cc2 B901      		movw r22,r18
 5105 1cc4 CA01      		movw r24,r20
 5106 1cc6 0E94 0000 		call uart_putdw_dec
 5107 1cca 8FE2      		ldi r24,lo8(47)
 5108 1ccc 0E94 0000 		call uart_putc
 5109               	.LBE459:
 5110               	.LM790:
 5111 1cd0 C701      		movw r24,r14
 5112 1cd2 0E94 0000 		call fat_get_fs_size
 5113               	.LBB460:
 5114 1cd6 B901      		movw r22,r18
 5115 1cd8 CA01      		movw r24,r20
 5116 1cda 00C0      		rjmp .L435
 5117               	.LVL264:
 5118               	.L394:
 5119               	.LBE460:
 5120               	.LBE446:
 5121               	.LM791:
 5122 1cdc 80E0      		ldi r24,lo8(__c.2311)
 5123 1cde 90E0      		ldi r25,hi8(__c.2311)
 5124 1ce0 00C0      		rjmp .L428
 5125               	.LVL265:
 5126               	.L393:
 5127               	.LM792:
 5128 1ce2 C801      		movw r24,r16
 5129 1ce4 60E0      		ldi r22,lo8(__c.2313)
 5130 1ce6 70E0      		ldi r23,hi8(__c.2313)
 5131 1ce8 44E0      		ldi r20,lo8(4)
 5132 1cea 50E0      		ldi r21,hi8(4)
 5133 1cec 0E94 0000 		call strncmp_P
 5134 1cf0 892B      		or r24,r25
 5135 1cf2 01F4      		brne .L395
 5136               	.LBB461:
 5137               	.LM793:
 5138 1cf4 82E0      		ldi r24,lo8(2)
 5139 1cf6 B201      		movw r22,r4
 5140 1cf8 0E94 0000 		call too_many_arguments_error
 5141 1cfc 8823      		tst r24
 5142 1cfe 01F0      		breq .+2
 5143 1d00 00C0      		rjmp .L423
 5144               	.LM794:
 5145 1d02 81E0      		ldi r24,lo8(1)
 5146 1d04 0E94 0000 		call get_cmd_arg
 5147 1d08 AC01      		movw r20,r24
 5148               	.LVL266:
 5149               	.LM795:
 5150 1d0a 0097      		sbiw r24,0
 5151 1d0c 01F4      		brne .+2
 5152 1d0e 00C0      		rjmp .L423
 5153               	.LVL267:
 5154               	.LM796:
 5155 1d10 6091 0000 		lds r22,dd
 5156 1d14 7091 0000 		lds r23,(dd)+1
 5157 1d18 8091 0000 		lds r24,fs
 5158 1d1c 9091 0000 		lds r25,(fs)+1
 5159               	.LVL268:
 5160 1d20 9301      		movw r18,r6
 5161 1d22 00E0      		ldi r16,lo8(0)
 5162 1d24 0E94 0000 		call find_file_in_dir
 5163               	.LVL269:
 5164 1d28 8823      		tst r24
 5165 1d2a 01F0      		breq .L396
 5166               	.LM797:
 5167 1d2c D301      		movw r26,r6
 5168 1d2e 9596      		adiw r26,37
 5169 1d30 6D91      		ld r22,X+
 5170 1d32 7D91      		ld r23,X+
 5171 1d34 8D91      		ld r24,X+
 5172 1d36 9C91      		ld r25,X
 5173 1d38 9897      		sbiw r26,37+3
 5174               	.L435:
 5175 1d3a 0E94 0000 		call uart_putdw_dec
 5176 1d3e 00C0      		rjmp .L432
 5177               	.L396:
 5178               	.LM798:
 5179 1d40 80E0      		ldi r24,lo8(.LC17)
 5180 1d42 90E0      		ldi r25,hi8(.LC17)
 5181 1d44 0E94 0000 		call uart_puts
 5182 1d48 00C0      		rjmp .L423
 5183               	.LVL270:
 5184               	.L395:
 5185               	.LBE461:
 5186               	.LM799:
 5187 1d4a C801      		movw r24,r16
 5188 1d4c 60E0      		ldi r22,lo8(__c.2316)
 5189 1d4e 70E0      		ldi r23,hi8(__c.2316)
 5190 1d50 42E0      		ldi r20,lo8(2)
 5191 1d52 50E0      		ldi r21,hi8(2)
 5192 1d54 0E94 0000 		call strncmp_P
 5193 1d58 892B      		or r24,r25
 5194 1d5a 01F4      		brne .L397
 5195               	.LBB462:
 5196               	.LM800:
 5197 1d5c 83E0      		ldi r24,lo8(3)
 5198 1d5e B201      		movw r22,r4
 5199 1d60 0E94 0000 		call too_many_arguments_error
 5200 1d64 8823      		tst r24
 5201 1d66 01F0      		breq .+2
 5202 1d68 00C0      		rjmp .L423
 5203               	.LM801:
 5204 1d6a 81E0      		ldi r24,lo8(1)
 5205 1d6c 0E94 0000 		call get_cmd_arg
 5206 1d70 7C01      		movw r14,r24
 5207               	.LVL271:
 5208               	.LM802:
 5209 1d72 0097      		sbiw r24,0
 5210 1d74 01F4      		brne .L425
 5211               	.LVL272:
 5212 1d76 00C0      		rjmp .L423
 5213               	.LVL273:
 5214               	.L399:
 5215               	.LM803:
 5216 1d78 8091 0000 		lds r24,fs
 5217 1d7c 9091 0000 		lds r25,(fs)+1
 5218 1d80 B301      		movw r22,r6
 5219 1d82 0E94 0000 		call fat_delete_file
 5220 1d86 8823      		tst r24
 5221 1d88 01F4      		brne .L425
 5222               	.LM804:
 5223 1d8a 80E0      		ldi r24,lo8(__c.2319)
 5224 1d8c 90E0      		ldi r25,hi8(__c.2319)
 5225 1d8e 0E94 0000 		call uart_puts_p
 5226               	.LM805:
 5227 1d92 C201      		movw r24,r4
 5228 1d94 0E94 0000 		call uart_puts
 5229               	.LM806:
 5230 1d98 8AE0      		ldi r24,lo8(10)
 5231 1d9a 0E94 0000 		call uart_putc
 5232               	.LVL274:
 5233               	.L425:
 5234               	.LM807:
 5235 1d9e 6091 0000 		lds r22,dd
 5236 1da2 7091 0000 		lds r23,(dd)+1
 5237 1da6 8091 0000 		lds r24,fs
 5238 1daa 9091 0000 		lds r25,(fs)+1
 5239 1dae A701      		movw r20,r14
 5240 1db0 9301      		movw r18,r6
 5241 1db2 01E0      		ldi r16,lo8(1)
 5242 1db4 0E94 0000 		call find_file_in_dir
 5243 1db8 8823      		tst r24
 5244 1dba 01F4      		brne .L399
 5245 1dbc 00C0      		rjmp .L423
 5246               	.LVL275:
 5247               	.L397:
 5248               	.LBE462:
 5249               	.LM808:
 5250 1dbe C801      		movw r24,r16
 5251 1dc0 60E0      		ldi r22,lo8(__c.2324)
 5252 1dc2 70E0      		ldi r23,hi8(__c.2324)
 5253 1dc4 43E0      		ldi r20,lo8(3)
 5254 1dc6 50E0      		ldi r21,hi8(3)
 5255 1dc8 0E94 0000 		call strncmp_P
 5256 1dcc 892B      		or r24,r25
 5257 1dce 01F4      		brne .L400
 5258               	.LBB463:
 5259               	.LM809:
 5260 1dd0 82E0      		ldi r24,lo8(2)
 5261 1dd2 B201      		movw r22,r4
 5262 1dd4 0E94 0000 		call too_many_arguments_error
 5263 1dd8 8823      		tst r24
 5264 1dda 01F0      		breq .+2
 5265 1ddc 00C0      		rjmp .L423
 5266               	.LM810:
 5267 1dde 81E0      		ldi r24,lo8(1)
 5268 1de0 0E94 0000 		call get_cmd_arg
 5269 1de4 BC01      		movw r22,r24
 5270               	.LVL276:
 5271               	.LM811:
 5272 1de6 0097      		sbiw r24,0
 5273 1de8 01F4      		brne .+2
 5274 1dea 00C0      		rjmp .L423
 5275               	.LVL277:
 5276               	.LM812:
 5277 1dec 8091 0000 		lds r24,dd
 5278 1df0 9091 0000 		lds r25,(dd)+1
 5279               	.LVL278:
 5280 1df4 A301      		movw r20,r6
 5281 1df6 0E94 0000 		call fat_create_file
 5282               	.LVL279:
 5283 1dfa 8823      		tst r24
 5284 1dfc 01F0      		breq .+2
 5285 1dfe 00C0      		rjmp .L423
 5286               	.LM813:
 5287 1e00 80E0      		ldi r24,lo8(__c.2327)
 5288 1e02 90E0      		ldi r25,hi8(__c.2327)
 5289 1e04 0E94 0000 		call uart_puts_p
 5290               	.LM814:
 5291 1e08 C201      		movw r24,r4
 5292 1e0a 00C0      		rjmp .L430
 5293               	.LVL280:
 5294               	.L400:
 5295               	.LBE463:
 5296               	.LM815:
 5297 1e0c C801      		movw r24,r16
 5298 1e0e 60E0      		ldi r22,lo8(__c.2329)
 5299 1e10 70E0      		ldi r23,hi8(__c.2329)
 5300 1e12 45E0      		ldi r20,lo8(5)
 5301 1e14 50E0      		ldi r21,hi8(5)
 5302 1e16 0E94 0000 		call strncmp_P
 5303 1e1a 892B      		or r24,r25
 5304 1e1c 01F0      		breq .+2
 5305 1e1e 00C0      		rjmp .L401
 5306               	.LBB464:
 5307               	.LM816:
 5308 1e20 81E0      		ldi r24,lo8(1)
 5309 1e22 0E94 0000 		call get_cmd_arg
 5310 1e26 5C01      		movw r10,r24
 5311               	.LVL281:
 5312               	.LM817:
 5313 1e28 0097      		sbiw r24,0
 5314 1e2a 01F4      		brne .+2
 5315 1e2c 00C0      		rjmp .L423
 5316               	.LVL282:
 5317               	.LM818:
 5318 1e2e 82E0      		ldi r24,lo8(2)
 5319               	.LVL283:
 5320 1e30 0E94 0000 		call get_cmd_arg
 5321 1e34 8C01      		movw r16,r24
 5322               	.LVL284:
 5323 1e36 0097      		sbiw r24,0
 5324 1e38 01F0      		breq .L402
 5325               	.LVL285:
 5326               	.LM819:
 5327 1e3a FC01      		movw r30,r24
 5328 1e3c 0190      		ld __tmp_reg__,Z+
 5329 1e3e 0020      		tst __tmp_reg__
 5330 1e40 01F4      		brne .-6
 5331 1e42 3197      		sbiw r30,1
 5332 1e44 E81B      		sub r30,r24
 5333 1e46 20E0      		ldi r18,lo8(0)
 5334 1e48 30E0      		ldi r19,hi8(0)
 5335               	.LVL286:
 5336               	.LBB465:
 5337               	.LBB466:
 5338               	.LBB467:
 5339               	.LM820:
 5340 1e4a 4E2F      		mov r20,r30
 5341 1e4c 50E0      		ldi r21,lo8(0)
 5342 1e4e 00C0      		rjmp .L403
 5343               	.LVL287:
 5344               	.L404:
 5345               	.LM821:
 5346 1e50 F801      		movw r30,r16
 5347 1e52 E20F      		add r30,r18
 5348 1e54 F31F      		adc r31,r19
 5349 1e56 8081      		ld r24,Z
 5350 1e58 90E0      		ldi r25,lo8(0)
 5351 1e5a C097      		sbiw r24,48
 5352 1e5c 0A97      		sbiw r24,10
 5353 1e5e 00F0      		brlo .+2
 5354 1e60 00C0      		rjmp .L423
 5355               	.LM822:
 5356 1e62 2F5F      		subi r18,lo8(-(1))
 5357 1e64 3F4F      		sbci r19,hi8(-(1))
 5358               	.LVL288:
 5359               	.L403:
 5360 1e66 2417      		cp r18,r20
 5361 1e68 3507      		cpc r19,r21
 5362 1e6a 04F0      		brlt .L404
 5363               	.LVL289:
 5364               	.L402:
 5365               	.LBE467:
 5366               	.LBE466:
 5367               	.LBE465:
 5368               	.LM823:
 5369 1e6c 6091 0000 		lds r22,dd
 5370 1e70 7091 0000 		lds r23,(dd)+1
 5371 1e74 8091 0000 		lds r24,fs
 5372 1e78 9091 0000 		lds r25,(fs)+1
 5373               	.LVL290:
 5374 1e7c A501      		movw r20,r10
 5375 1e7e 0E94 0000 		call open_file_in_dir
 5376               	.LVL291:
 5377 1e82 7C01      		movw r14,r24
 5378               	.LVL292:
 5379               	.LM824:
 5380 1e84 0097      		sbiw r24,0
 5381 1e86 01F0      		breq .L405
 5382               	.LVL293:
 5383 1e88 20E0      		ldi r18,lo8(0)
 5384 1e8a 30E0      		ldi r19,hi8(0)
 5385 1e8c 40E0      		ldi r20,hlo8(0)
 5386 1e8e 50E0      		ldi r21,hhi8(0)
 5387               	.LVL294:
 5388 1e90 00C0      		rjmp .L406
 5389               	.LVL295:
 5390               	.L405:
 5391               	.LM825:
 5392 1e92 80E0      		ldi r24,lo8(__c.2333)
 5393 1e94 90E0      		ldi r25,hi8(__c.2333)
 5394               	.LVL296:
 5395 1e96 0E94 0000 		call uart_puts_p
 5396               	.LM826:
 5397 1e9a C501      		movw r24,r10
 5398 1e9c 00C0      		rjmp .L430
 5399               	.LVL297:
 5400               	.L407:
 5401               	.LBB468:
 5402               	.LBB469:
 5403               	.LM827:
 5404 1e9e CA01      		movw r24,r20
 5405 1ea0 B901      		movw r22,r18
 5406 1ea2 2AE0      		ldi r18,lo8(10)
 5407 1ea4 30E0      		ldi r19,hi8(10)
 5408 1ea6 40E0      		ldi r20,hlo8(10)
 5409 1ea8 50E0      		ldi r21,hhi8(10)
 5410               	.LVL298:
 5411 1eaa 0E94 0000 		call __mulsi3
 5412 1eae 9B01      		movw r18,r22
 5413 1eb0 AC01      		movw r20,r24
 5414               	.LVL299:
 5415 1eb2 8D2D      		mov r24,r13
 5416 1eb4 90E0      		ldi r25,lo8(0)
 5417 1eb6 C097      		sbiw r24,48
 5418 1eb8 AA27      		clr r26
 5419 1eba 97FD      		sbrc r25,7
 5420 1ebc A095      		com r26
 5421 1ebe BA2F      		mov r27,r26
 5422 1ec0 280F      		add r18,r24
 5423 1ec2 391F      		adc r19,r25
 5424 1ec4 4A1F      		adc r20,r26
 5425 1ec6 5B1F      		adc r21,r27
 5426 1ec8 0F5F      		subi r16,lo8(-(1))
 5427 1eca 1F4F      		sbci r17,hi8(-(1))
 5428               	.LVL300:
 5429               	.L406:
 5430               	.LM828:
 5431 1ecc F801      		movw r30,r16
 5432 1ece D080      		ld r13,Z
 5433 1ed0 8D2D      		mov r24,r13
 5434 1ed2 8053      		subi r24,lo8(-(-48))
 5435 1ed4 8A30      		cpi r24,lo8(10)
 5436 1ed6 00F0      		brlo .L407
 5437               	.LBE469:
 5438               	.LBE468:
 5439               	.LM829:
 5440 1ed8 2A83      		std Y+2,r18
 5441 1eda 3B83      		std Y+3,r19
 5442 1edc 4C83      		std Y+4,r20
 5443 1ede 5D83      		std Y+5,r21
 5444               	.LVL301:
 5445               	.LM830:
 5446 1ee0 C701      		movw r24,r14
 5447 1ee2 BE01      		movw r22,r28
 5448 1ee4 6E5F      		subi r22,lo8(-(2))
 5449 1ee6 7F4F      		sbci r23,hi8(-(2))
 5450 1ee8 40E0      		ldi r20,lo8(0)
 5451 1eea 0E94 0000 		call fat_seek_file
 5452               	.LVL302:
 5453 1eee 8823      		tst r24
 5454 1ef0 01F4      		brne .L417
 5455               	.LM831:
 5456 1ef2 80E0      		ldi r24,lo8(__c.2336)
 5457 1ef4 90E0      		ldi r25,hi8(__c.2336)
 5458 1ef6 0E94 0000 		call uart_puts_p
 5459               	.LM832:
 5460 1efa C501      		movw r24,r10
 5461 1efc 0E94 0000 		call uart_puts
 5462               	.LM833:
 5463 1f00 8AE0      		ldi r24,lo8(10)
 5464 1f02 0E94 0000 		call uart_putc
 5465 1f06 00C0      		rjmp .L409
 5466               	.LVL303:
 5467               	.L417:
 5468               	.LM834:
 5469 1f08 8CE3      		ldi r24,lo8(60)
 5470 1f0a 0E94 0000 		call uart_putc
 5471               	.LVL304:
 5472               	.LM835:
 5473 1f0e C201      		movw r24,r4
 5474 1f10 68E1      		ldi r22,lo8(24)
 5475 1f12 0E94 0000 		call read_line
 5476 1f16 182F      		mov r17,r24
 5477               	.LVL305:
 5478               	.LM836:
 5479 1f18 8823      		tst r24
 5480 1f1a 01F0      		breq .L409
 5481               	.LVL306:
 5482               	.LM837:
 5483 1f1c C701      		movw r24,r14
 5484               	.LVL307:
 5485 1f1e B201      		movw r22,r4
 5486 1f20 412F      		mov r20,r17
 5487 1f22 50E0      		ldi r21,lo8(0)
 5488 1f24 0E94 0000 		call fat_write_file
 5489 1f28 212F      		mov r18,r17
 5490 1f2a 30E0      		ldi r19,lo8(0)
 5491               	.LVL308:
 5492 1f2c 8217      		cp r24,r18
 5493 1f2e 9307      		cpc r25,r19
 5494 1f30 01F0      		breq .L417
 5495               	.LVL309:
 5496               	.LM838:
 5497 1f32 80E0      		ldi r24,lo8(__c.2340)
 5498 1f34 90E0      		ldi r25,hi8(__c.2340)
 5499 1f36 0E94 0000 		call uart_puts_p
 5500               	.LVL310:
 5501               	.L409:
 5502               	.LM839:
 5503 1f3a C701      		movw r24,r14
 5504 1f3c 00C0      		rjmp .L431
 5505               	.LVL311:
 5506               	.L401:
 5507               	.LBE464:
 5508               	.LM840:
 5509 1f3e C801      		movw r24,r16
 5510 1f40 60E0      		ldi r22,lo8(__c.2343)
 5511 1f42 70E0      		ldi r23,hi8(__c.2343)
 5512 1f44 46E0      		ldi r20,lo8(6)
 5513 1f46 50E0      		ldi r21,hi8(6)
 5514 1f48 0E94 0000 		call strncmp_P
 5515 1f4c 892B      		or r24,r25
 5516 1f4e 01F4      		brne .L410
 5517               	.LM841:
 5518 1f50 82E0      		ldi r24,lo8(2)
 5519 1f52 B201      		movw r22,r4
 5520 1f54 0E94 0000 		call too_many_arguments_error
 5521 1f58 8823      		tst r24
 5522 1f5a 01F0      		breq .+2
 5523 1f5c 00C0      		rjmp .L423
 5524               	.LM842:
 5525 1f5e 81E0      		ldi r24,lo8(1)
 5526 1f60 0E94 0000 		call get_cmd_arg
 5527               	.LM843:
 5528 1f64 0097      		sbiw r24,0
 5529 1f66 01F4      		brne .+2
 5530 1f68 00C0      		rjmp .L423
 5531               	.LVL312:
 5532               	.LM844:
 5533 1f6a 0E94 0000 		call append_file
 5534               	.LVL313:
 5535 1f6e 00C0      		rjmp .L423
 5536               	.L410:
 5537               	.LM845:
 5538 1f70 C801      		movw r24,r16
 5539 1f72 60E0      		ldi r22,lo8(__c.2345)
 5540 1f74 70E0      		ldi r23,hi8(__c.2345)
 5541 1f76 42E0      		ldi r20,lo8(2)
 5542 1f78 50E0      		ldi r21,hi8(2)
 5543 1f7a 0E94 0000 		call strncmp_P
 5544 1f7e 892B      		or r24,r25
 5545 1f80 01F4      		brne .L411
 5546               	.LBB470:
 5547               	.LM846:
 5548 1f82 81E0      		ldi r24,lo8(1)
 5549 1f84 0E94 0000 		call get_cmd_arg
 5550 1f88 8C01      		movw r16,r24
 5551               	.LVL314:
 5552               	.LM847:
 5553 1f8a 0097      		sbiw r24,0
 5554 1f8c 01F4      		brne .+2
 5555 1f8e 00C0      		rjmp .L423
 5556               	.LVL315:
 5557               	.LM848:
 5558 1f90 8091 0000 		lds r24,dd
 5559 1f94 9091 0000 		lds r25,(dd)+1
 5560               	.LVL316:
 5561 1f98 B801      		movw r22,r16
 5562 1f9a A301      		movw r20,r6
 5563 1f9c 0E94 0000 		call fat_create_dir
 5564 1fa0 8823      		tst r24
 5565 1fa2 01F0      		breq .+2
 5566 1fa4 00C0      		rjmp .L423
 5567               	.LM849:
 5568 1fa6 80E0      		ldi r24,lo8(__c.2348)
 5569 1fa8 90E0      		ldi r25,hi8(__c.2348)
 5570 1faa 00C0      		rjmp .L427
 5571               	.L411:
 5572               	.LBE470:
 5573               	.LM850:
 5574 1fac C801      		movw r24,r16
 5575 1fae 60E0      		ldi r22,lo8(__c.2350)
 5576 1fb0 70E0      		ldi r23,hi8(__c.2350)
 5577 1fb2 0E94 0000 		call strcmp_P
 5578 1fb6 892B      		or r24,r25
 5579 1fb8 01F4      		brne .L412
 5580               	.LM851:
 5581 1fba 0E94 0000 		call sd_raw_sync
 5582 1fbe 8823      		tst r24
 5583 1fc0 01F0      		breq .+2
 5584 1fc2 00C0      		rjmp .L423
 5585               	.LM852:
 5586 1fc4 80E0      		ldi r24,lo8(__c.2352)
 5587 1fc6 90E0      		ldi r25,hi8(__c.2352)
 5588               	.L428:
 5589 1fc8 0E94 0000 		call uart_puts_p
 5590 1fcc 00C0      		rjmp .L423
 5591               	.L412:
 5592               	.LM853:
 5593 1fce 80E0      		ldi r24,lo8(__c.2354)
 5594 1fd0 90E0      		ldi r25,hi8(__c.2354)
 5595               	.L427:
 5596 1fd2 0E94 0000 		call uart_puts_p
 5597               	.LM854:
 5598 1fd6 C801      		movw r24,r16
 5599               	.LVL317:
 5600               	.L430:
 5601 1fd8 0E94 0000 		call uart_puts
 5602               	.L432:
 5603               	.LM855:
 5604 1fdc 8AE0      		ldi r24,lo8(10)
 5605 1fde 0E94 0000 		call uart_putc
 5606 1fe2 00C0      		rjmp .L423
 5607               	.LBE424:
 5608               	.LFE13:
 5610               	.global	read_config_file
 5612               	read_config_file:
 5613               	.LFB6:
 5614               	.LM856:
 5615 1fe4 4F92      		push r4
 5616 1fe6 5F92      		push r5
 5617 1fe8 6F92      		push r6
 5618 1fea 7F92      		push r7
 5619 1fec 8F92      		push r8
 5620 1fee 9F92      		push r9
 5621 1ff0 AF92      		push r10
 5622 1ff2 BF92      		push r11
 5623 1ff4 CF92      		push r12
 5624 1ff6 DF92      		push r13
 5625 1ff8 EF92      		push r14
 5626 1ffa FF92      		push r15
 5627 1ffc 0F93      		push r16
 5628 1ffe 1F93      		push r17
 5629 2000 DF93      		push r29
 5630 2002 CF93      		push r28
 5631 2004 CDB7      		in r28,__SP_L__
 5632 2006 DEB7      		in r29,__SP_H__
 5633 2008 C555      		subi r28,lo8(-(-85))
 5634 200a D040      		sbci r29,hi8(-(-85))
 5635 200c 0FB6      		in __tmp_reg__,__SREG__
 5636 200e F894      		cli
 5637 2010 DEBF      		out __SP_H__,r29
 5638 2012 0FBE      		out __SREG__,__tmp_reg__
 5639 2014 CDBF      		out __SP_L__,r28
 5640               	/* prologue: function */
 5641               	/* frame size = 85 */
 5642               	.LM857:
 5643 2016 58E0      		ldi r21,lo8(8)
 5644 2018 E52E      		mov r14,r21
 5645 201a F12C      		mov r15,__zero_reg__
 5646 201c EC0E      		add r14,r28
 5647 201e FD1E      		adc r15,r29
 5648 2020 C701      		movw r24,r14
 5649 2022 60E0      		ldi r22,lo8(.LC3)
 5650 2024 70E0      		ldi r23,hi8(.LC3)
 5651 2026 0E94 0000 		call strcpy
 5652               	.LM858:
 5653 202a 6091 0000 		lds r22,dd
 5654 202e 7091 0000 		lds r23,(dd)+1
 5655 2032 8091 0000 		lds r24,fs
 5656 2036 9091 0000 		lds r25,(fs)+1
 5657 203a A701      		movw r20,r14
 5658 203c 9E01      		movw r18,r28
 5659 203e 2B5D      		subi r18,lo8(-(37))
 5660 2040 3F4F      		sbci r19,hi8(-(37))
 5661 2042 00E0      		ldi r16,lo8(0)
 5662 2044 0E94 0000 		call find_file_in_dir
 5663 2048 8823      		tst r24
 5664 204a 01F4      		brne .+2
 5665 204c 00C0      		rjmp .L437
 5666               	.LBB471:
 5667               	.LM859:
 5668 204e 6091 0000 		lds r22,dd
 5669 2052 7091 0000 		lds r23,(dd)+1
 5670 2056 8091 0000 		lds r24,fs
 5671 205a 9091 0000 		lds r25,(fs)+1
 5672 205e A701      		movw r20,r14
 5673 2060 0E94 0000 		call open_file_in_dir
 5674 2064 7C01      		movw r14,r24
 5675               	.LVL318:
 5676               	.LM860:
 5677 2066 0097      		sbiw r24,0
 5678 2068 01F4      		brne .L438
 5679               	.LVL319:
 5680               	.LM861:
 5681 206a 80E0      		ldi r24,lo8(__c.2085)
 5682 206c 90E0      		ldi r25,hi8(__c.2085)
 5683               	.LVL320:
 5684 206e 0E94 0000 		call uart_puts_p
 5685 2072 00C0      		rjmp .L464
 5686               	.LVL321:
 5687               	.L438:
 5688               	.LM862:
 5689 2074 45E1      		ldi r20,lo8(21)
 5690 2076 C42E      		mov r12,r20
 5691 2078 D12C      		mov r13,__zero_reg__
 5692 207a CC0E      		add r12,r28
 5693 207c DD1E      		adc r13,r29
 5694 207e B601      		movw r22,r12
 5695 2080 40E1      		ldi r20,lo8(16)
 5696 2082 50E0      		ldi r21,hi8(16)
 5697 2084 0E94 0000 		call fat_read_file
 5698               	.LVL322:
 5699 2088 682E      		mov r6,r24
 5700               	.LVL323:
 5701               	.LM863:
 5702 208a C701      		movw r24,r14
 5703 208c 0E94 0000 		call fat_close_file
 5704 2090 11E0      		ldi r17,lo8(1)
 5705               	.LVL324:
 5706 2092 9924      		clr r9
 5707               	.LVL325:
 5708 2094 3AE1      		ldi r19,lo8(26)
 5709 2096 832E      		mov r8,r19
 5710               	.LVL326:
 5711 2098 23E0      		ldi r18,lo8(3)
 5712 209a 722E      		mov r7,r18
 5713               	.LVL327:
 5714 209c BB24      		clr r11
 5715               	.LVL328:
 5716 209e AA24      		clr r10
 5717               	.LVL329:
 5718               	.LM864:
 5719 20a0 7E01      		movw r14,r28
 5720               	.LVL330:
 5721 20a2 0894      		sec
 5722 20a4 E11C      		adc r14,__zero_reg__
 5723 20a6 F11C      		adc r15,__zero_reg__
 5724               	.LM865:
 5725 20a8 2601      		movw r4,r12
 5726 20aa 97E0      		ldi r25,lo8(7)
 5727 20ac C92E      		mov r12,r25
 5728 20ae D12C      		mov r13,__zero_reg__
 5729 20b0 CC0E      		add r12,r28
 5730 20b2 DD1E      		adc r13,r29
 5731 20b4 00C0      		rjmp .L440
 5732               	.LVL331:
 5733               	.L442:
 5734               	.LM866:
 5735 20b6 ED93      		st X+,r30
 5736               	.LM867:
 5737 20b8 B394      		inc r11
 5738               	.LVL332:
 5739               	.L455:
 5740 20ba 8A2F      		mov r24,r26
 5741 20bc 8E19      		sub r24,r14
 5742               	.LM868:
 5743 20be F201      		movw r30,r4
 5744 20c0 EB0D      		add r30,r11
 5745 20c2 F11D      		adc r31,__zero_reg__
 5746 20c4 E081      		ld r30,Z
 5747 20c6 EC32      		cpi r30,lo8(44)
 5748 20c8 01F0      		breq .L441
 5749 20ca B614      		cp r11,r6
 5750 20cc 00F4      		brsh .L441
 5751 20ce AC15      		cp r26,r12
 5752 20d0 BD05      		cpc r27,r13
 5753 20d2 01F4      		brne .L442
 5754               	.L441:
 5755               	.LM869:
 5756 20d4 F701      		movw r30,r14
 5757 20d6 E80F      		add r30,r24
 5758 20d8 F11D      		adc r31,__zero_reg__
 5759 20da 1082      		st Z,__zero_reg__
 5760               	.LM870:
 5761 20dc AA20      		tst r10
 5762 20de 01F0      		breq .+2
 5763 20e0 00C0      		rjmp .L443
 5764               	.LM871:
 5765 20e2 C701      		movw r24,r14
 5766               	.LVL333:
 5767 20e4 60E0      		ldi r22,lo8(.LC6)
 5768 20e6 70E0      		ldi r23,hi8(.LC6)
 5769 20e8 0E94 0000 		call strcmp
 5770 20ec 0097      		sbiw r24,0
 5771 20ee 01F4      		brne .L444
 5772 20f0 10E0      		ldi r17,lo8(0)
 5773 20f2 00C0      		rjmp .L445
 5774               	.L444:
 5775               	.LM872:
 5776 20f4 C701      		movw r24,r14
 5777 20f6 60E0      		ldi r22,lo8(.LC7)
 5778 20f8 70E0      		ldi r23,hi8(.LC7)
 5779 20fa 0E94 0000 		call strcmp
 5780 20fe 0097      		sbiw r24,0
 5781 2100 01F4      		brne .L446
 5782 2102 14E0      		ldi r17,lo8(4)
 5783 2104 00C0      		rjmp .L445
 5784               	.L446:
 5785               	.LM873:
 5786 2106 C701      		movw r24,r14
 5787 2108 60E0      		ldi r22,lo8(.LC8)
 5788 210a 70E0      		ldi r23,hi8(.LC8)
 5789 210c 0E94 0000 		call strcmp
 5790 2110 0097      		sbiw r24,0
 5791 2112 01F4      		brne .+2
 5792 2114 00C0      		rjmp .L447
 5793               	.LM874:
 5794 2116 C701      		movw r24,r14
 5795 2118 60E0      		ldi r22,lo8(.LC9)
 5796 211a 70E0      		ldi r23,hi8(.LC9)
 5797 211c 0E94 0000 		call strcmp
 5798 2120 0097      		sbiw r24,0
 5799 2122 01F4      		brne .L448
 5800 2124 15E0      		ldi r17,lo8(5)
 5801 2126 00C0      		rjmp .L445
 5802               	.L448:
 5803               	.LM875:
 5804 2128 C701      		movw r24,r14
 5805 212a 60E0      		ldi r22,lo8(.LC10)
 5806 212c 70E0      		ldi r23,hi8(.LC10)
 5807 212e 0E94 0000 		call strcmp
 5808 2132 0097      		sbiw r24,0
 5809 2134 01F4      		brne .L449
 5810 2136 16E0      		ldi r17,lo8(6)
 5811 2138 00C0      		rjmp .L445
 5812               	.L449:
 5813               	.LM876:
 5814 213a C701      		movw r24,r14
 5815 213c 60E0      		ldi r22,lo8(.LC11)
 5816 213e 70E0      		ldi r23,hi8(.LC11)
 5817 2140 0E94 0000 		call strcmp
 5818 2144 0097      		sbiw r24,0
 5819 2146 01F4      		brne .L450
 5820 2148 12E0      		ldi r17,lo8(2)
 5821 214a 00C0      		rjmp .L445
 5822               	.L450:
 5823               	.LM877:
 5824 214c C701      		movw r24,r14
 5825 214e 60E0      		ldi r22,lo8(.LC12)
 5826 2150 70E0      		ldi r23,hi8(.LC12)
 5827 2152 0E94 0000 		call strcmp
 5828 2156 0097      		sbiw r24,0
 5829 2158 01F4      		brne .L451
 5830 215a 13E0      		ldi r17,lo8(3)
 5831 215c 00C0      		rjmp .L445
 5832               	.L451:
 5833               	.LM878:
 5834 215e C701      		movw r24,r14
 5835 2160 60E0      		ldi r22,lo8(.LC13)
 5836 2162 70E0      		ldi r23,hi8(.LC13)
 5837 2164 0E94 0000 		call strcmp
 5838 2168 0097      		sbiw r24,0
 5839 216a 01F4      		brne .L447
 5840 216c 17E0      		ldi r17,lo8(7)
 5841 216e 00C0      		rjmp .L445
 5842               	.LVL334:
 5843               	.L443:
 5844               	.LM879:
 5845 2170 81E0      		ldi r24,lo8(1)
 5846               	.LVL335:
 5847 2172 A816      		cp r10,r24
 5848 2174 01F4      		brne .L452
 5849               	.LM880:
 5850 2176 C701      		movw r24,r14
 5851 2178 0E94 0000 		call atoi
 5852 217c 882E      		mov r8,r24
 5853               	.LM881:
 5854 217e 1816      		cp __zero_reg__,r24
 5855 2180 04F0      		brlt .L445
 5856               	.LVL336:
 5857 2182 8AE1      		ldi r24,lo8(26)
 5858 2184 882E      		mov r8,r24
 5859               	.LVL337:
 5860 2186 00C0      		rjmp .L445
 5861               	.L452:
 5862               	.LM882:
 5863 2188 82E0      		ldi r24,lo8(2)
 5864 218a A816      		cp r10,r24
 5865 218c 01F4      		brne .L453
 5866               	.LM883:
 5867 218e C701      		movw r24,r14
 5868 2190 0E94 0000 		call atoi
 5869 2194 782E      		mov r7,r24
 5870               	.LM884:
 5871 2196 8150      		subi r24,lo8(-(-1))
 5872 2198 8A30      		cpi r24,lo8(10)
 5873 219a 00F0      		brlo .L445
 5874 219c 03E0      		ldi r16,lo8(3)
 5875 219e 702E      		mov r7,r16
 5876 21a0 00C0      		rjmp .L445
 5877               	.L453:
 5878               	.LM885:
 5879 21a2 83E0      		ldi r24,lo8(3)
 5880 21a4 A816      		cp r10,r24
 5881 21a6 01F4      		brne .L454
 5882               	.LM886:
 5883 21a8 C701      		movw r24,r14
 5884 21aa 0E94 0000 		call atoi
 5885 21ae 982E      		mov r9,r24
 5886               	.LM887:
 5887 21b0 8150      		subi r24,lo8(-(-1))
 5888 21b2 8530      		cpi r24,lo8(5)
 5889 21b4 00F0      		brlo .L445
 5890 21b6 9924      		clr r9
 5891 21b8 00C0      		rjmp .L445
 5892               	.L447:
 5893 21ba 11E0      		ldi r17,lo8(1)
 5894               	.LVL338:
 5895               	.L445:
 5896               	.LM888:
 5897 21bc A394      		inc r10
 5898               	.LM889:
 5899 21be B394      		inc r11
 5900               	.L440:
 5901 21c0 B614      		cp r11,r6
 5902 21c2 00F4      		brsh .L454
 5903 21c4 D701      		movw r26,r14
 5904 21c6 00C0      		rjmp .L455
 5905               	.L454:
 5906               	.LM890:
 5907 21c8 8091 0000 		lds r24,setting_uart_speed
 5908 21cc 1817      		cp r17,r24
 5909 21ce 01F0      		breq .L456
 5910               	.L465:
 5911               	.LBB472:
 5912               	.LBB473:
 5913               	.LM891:
 5914 21d0 F999      		sbic 63-32,1
 5915 21d2 00C0      		rjmp .L465
 5916               	.LM892:
 5917 21d4 12BC      		out 66-32,__zero_reg__
 5918               	.LM893:
 5919 21d6 81E0      		ldi r24,lo8(1)
 5920 21d8 81BD      		out 65-32,r24
 5921               	.LM894:
 5922 21da 10BD      		out 64-32,r17
 5923               	.LM895:
 5924 21dc FA9A      		sbi 63-32,2
 5925               	.LM896:
 5926 21de F99A      		sbi 63-32,1
 5927               	.LBE473:
 5928               	.LBE472:
 5929               	.LM897:
 5930 21e0 1093 0000 		sts setting_uart_speed,r17
 5931               	.LM898:
 5932 21e4 812F      		mov r24,r17
 5933 21e6 0E94 0000 		call uart_init
 5934               	.L456:
 5935               	.LM899:
 5936 21ea 8091 0000 		lds r24,setting_system_mode
 5937 21ee 9816      		cp r9,r24
 5938 21f0 01F0      		breq .L458
 5939               	.LM900:
 5940 21f2 9092 0000 		sts setting_system_mode,r9
 5941               	.L459:
 5942               	.LBB474:
 5943               	.LBB475:
 5944               	.LM901:
 5945 21f6 F999      		sbic 63-32,1
 5946 21f8 00C0      		rjmp .L459
 5947               	.LM902:
 5948 21fa 12BC      		out 66-32,__zero_reg__
 5949               	.LM903:
 5950 21fc 82E0      		ldi r24,lo8(2)
 5951 21fe 81BD      		out 65-32,r24
 5952               	.LM904:
 5953 2200 90BC      		out 64-32,r9
 5954               	.LM905:
 5955 2202 FA9A      		sbi 63-32,2
 5956               	.LM906:
 5957 2204 F99A      		sbi 63-32,1
 5958               	.L458:
 5959               	.LBE475:
 5960               	.LBE474:
 5961               	.LM907:
 5962 2206 8091 0000 		lds r24,setting_escape_character
 5963 220a 8816      		cp r8,r24
 5964 220c 01F0      		breq .L460
 5965               	.LM908:
 5966 220e 8092 0000 		sts setting_escape_character,r8
 5967               	.L461:
 5968               	.LBB476:
 5969               	.LBB477:
 5970               	.LM909:
 5971 2212 F999      		sbic 63-32,1
 5972 2214 00C0      		rjmp .L461
 5973               	.LM910:
 5974 2216 12BC      		out 66-32,__zero_reg__
 5975               	.LM911:
 5976 2218 85E0      		ldi r24,lo8(5)
 5977 221a 81BD      		out 65-32,r24
 5978               	.LM912:
 5979 221c 80BC      		out 64-32,r8
 5980               	.LM913:
 5981 221e FA9A      		sbi 63-32,2
 5982               	.LM914:
 5983 2220 F99A      		sbi 63-32,1
 5984               	.L460:
 5985               	.LBE477:
 5986               	.LBE476:
 5987               	.LM915:
 5988 2222 8091 0000 		lds r24,setting_max_escape_character
 5989 2226 7816      		cp r7,r24
 5990 2228 01F0      		breq .L437
 5991               	.LM916:
 5992 222a 7092 0000 		sts setting_max_escape_character,r7
 5993               	.L463:
 5994               	.LBB478:
 5995               	.LBB479:
 5996               	.LM917:
 5997 222e F999      		sbic 63-32,1
 5998 2230 00C0      		rjmp .L463
 5999               	.LM918:
 6000 2232 12BC      		out 66-32,__zero_reg__
 6001               	.LM919:
 6002 2234 86E0      		ldi r24,lo8(6)
 6003 2236 81BD      		out 65-32,r24
 6004               	.LM920:
 6005 2238 70BC      		out 64-32,r7
 6006               	.LM921:
 6007 223a FA9A      		sbi 63-32,2
 6008               	.LM922:
 6009 223c F99A      		sbi 63-32,1
 6010               	.L437:
 6011               	.LBE479:
 6012               	.LBE478:
 6013               	.LBE471:
 6014               	.LM923:
 6015 223e 0E94 0000 		call record_config_file
 6016               	.LVL339:
 6017               	.L464:
 6018               	/* epilogue start */
 6019               	.LM924:
 6020 2242 CB5A      		subi r28,lo8(-(85))
 6021 2244 DF4F      		sbci r29,hi8(-(85))
 6022 2246 0FB6      		in __tmp_reg__,__SREG__
 6023 2248 F894      		cli
 6024 224a DEBF      		out __SP_H__,r29
 6025 224c 0FBE      		out __SREG__,__tmp_reg__
 6026 224e CDBF      		out __SP_L__,r28
 6027 2250 CF91      		pop r28
 6028 2252 DF91      		pop r29
 6029 2254 1F91      		pop r17
 6030               	.LVL340:
 6031 2256 0F91      		pop r16
 6032 2258 FF90      		pop r15
 6033 225a EF90      		pop r14
 6034               	.LVL341:
 6035 225c DF90      		pop r13
 6036 225e CF90      		pop r12
 6037 2260 BF90      		pop r11
 6038               	.LVL342:
 6039 2262 AF90      		pop r10
 6040               	.LVL343:
 6041 2264 9F90      		pop r9
 6042               	.LVL344:
 6043 2266 8F90      		pop r8
 6044               	.LVL345:
 6045 2268 7F90      		pop r7
 6046               	.LVL346:
 6047 226a 6F90      		pop r6
 6048               	.LVL347:
 6049 226c 5F90      		pop r5
 6050 226e 4F90      		pop r4
 6051 2270 0895      		ret
 6052               	.LFE6:
 6054               	.global	ioinit
 6056               	ioinit:
 6057               	.LFB5:
 6058               	.LM925:
 6059 2272 0F93      		push r16
 6060 2274 1F93      		push r17
 6061               	/* prologue: function */
 6062               	/* frame size = 0 */
 6063               	.LM926:
 6064 2276 82E0      		ldi r24,lo8(2)
 6065 2278 85BD      		out 69-32,r24
 6066               	.LM927:
 6067 227a 8091 6400 		lds r24,100
 6068 227e 896C      		ori r24,lo8(-55)
 6069 2280 8093 6400 		sts 100,r24
 6070               	.LM928:
 6071 2284 83B7      		in r24,83-32
 6072 2286 817F      		andi r24,lo8(-15)
 6073 2288 83BF      		out 83-32,r24
 6074               	.LM929:
 6075 228a 83B7      		in r24,83-32
 6076 228c 8160      		ori r24,lo8(1)
 6077 228e 83BF      		out 83-32,r24
 6078               	.LM930:
 6079 2290 209A      		sbi 36-32,0
 6080               	.LM931:
 6081 2292 219A      		sbi 36-32,1
 6082               	.LM932:
 6083 2294 0E94 0000 		call check_emergency_reset
 6084 2298 8823      		tst r24
 6085 229a 01F0      		breq .L471
 6086               	.LM933:
 6087 229c 0E94 0000 		call set_default_settings
 6088               	.LM934:
 6089 22a0 0E94 0000 		call init_media
 6090               	.LM935:
 6091 22a4 0E94 0000 		call record_config_file
 6092               	.LM936:
 6093 22a8 289A      		sbi 37-32,0
 6094               	.LM937:
 6095 22aa 299A      		sbi 37-32,1
 6096               	.LM938:
 6097 22ac 01E0      		ldi r16,lo8(1)
 6098               	.LM939:
 6099 22ae 12E0      		ldi r17,lo8(2)
 6100               	.L472:
 6101               	.LM940:
 6102 22b0 84EF      		ldi r24,lo8(500)
 6103 22b2 91E0      		ldi r25,hi8(500)
 6104 22b4 0E94 0000 		call delay_ms
 6105               	.LM941:
 6106 22b8 85B1      		in r24,37-32
 6107 22ba 8027      		eor r24,r16
 6108 22bc 85B9      		out 37-32,r24
 6109               	.LM942:
 6110 22be 85B1      		in r24,37-32
 6111 22c0 8127      		eor r24,r17
 6112 22c2 85B9      		out 37-32,r24
 6113 22c4 00C0      		rjmp .L472
 6114               	.L471:
 6115               	.LM943:
 6116 22c6 0E94 0000 		call read_system_settings
 6117               	.LM944:
 6118 22ca 8091 0000 		lds r24,setting_uart_speed
 6119 22ce 0E94 0000 		call uart_init
 6120               	.LM945:
 6121 22d2 80E0      		ldi r24,lo8(__c.2050)
 6122 22d4 90E0      		ldi r25,hi8(__c.2050)
 6123 22d6 0E94 0000 		call uart_puts_p
 6124               	.LM946:
 6125 22da 0E94 0000 		call init_media
 6126               	.LM947:
 6127 22de 80E0      		ldi r24,lo8(__c.2052)
 6128 22e0 90E0      		ldi r25,hi8(__c.2052)
 6129 22e2 0E94 0000 		call uart_puts_p
 6130               	.LM948:
 6131 22e6 0E94 0000 		call read_config_file
 6132               	/* epilogue start */
 6133               	.LM949:
 6134 22ea 1F91      		pop r17
 6135 22ec 0F91      		pop r16
 6136 22ee 0895      		ret
 6137               	.LFE5:
 6139               	.global	main
 6141               	main:
 6142               	.LFB4:
 6143               	.LM950:
 6144               	/* prologue: function */
 6145               	/* frame size = 0 */
 6146               	.LM951:
 6147 22f0 0E94 0000 		call ioinit
 6148               	.LM952:
 6149 22f4 8091 0000 		lds r24,setting_system_mode
 6150 22f8 8823      		tst r24
 6151 22fa 01F4      		brne .L475
 6152               	.LM953:
 6153 22fc 0E94 0000 		call newlog
 6154               	.L475:
 6155               	.LM954:
 6156 2300 8091 0000 		lds r24,setting_system_mode
 6157 2304 8130      		cpi r24,lo8(1)
 6158 2306 01F4      		brne .L476
 6159               	.LM955:
 6160 2308 0E94 0000 		call seqlog
 6161               	.L476:
 6162               	.LM956:
 6163 230c 0E94 0000 		call command_shell
 6164               	.LM957:
 6165 2310 80E0      		ldi r24,lo8(0)
 6166 2312 90E0      		ldi r25,hi8(0)
 6167               	/* epilogue start */
 6168 2314 0895      		ret
 6169               	.LFE4:
 6171               		.section	.progmem.data,"a",@progbits
 6174               	__c.3125:
 6175 0000 293A 2000 		.string	"): "
 6178               	__c.3123:
 6179 0004 746F 6F20 		.string	"too many arguments("
 6179      6D61 6E79 
 6179      2061 7267 
 6179      756D 656E 
 6179      7473 2800 
 6182               	__c.3050:
 6183 0018 4578 6974 		.string	"Exiting\n"
 6183      696E 670A 
 6183      00
 6186               	__c.3048:
 6187 0021 7800      		.string	"x"
 6190               	__c.3046:
 6191 0023 0A00      		.string	"\n"
 6194               	__c.3044:
 6195 0025 0A4E 756D 		.string	"\nNumber of escape characters needed: "
 6195      6265 7220 
 6195      6F66 2065 
 6195      7363 6170 
 6195      6520 6368 
 6198               	__c.3039:
 6199 004b 456E 7465 		.string	"Enter number of escape characters to look for: "
 6199      7220 6E75 
 6199      6D62 6572 
 6199      206F 6620 
 6199      6573 6361 
 6202               	__c.3036:
 6203 007b 3600      		.string	"6"
 6206               	__c.3034:
 6207 007d 0A00      		.string	"\n"
 6210               	__c.3032:
 6211 007f 0A4E 6577 		.string	"\nNew escape character: "
 6211      2065 7363 
 6211      6170 6520 
 6211      6368 6172 
 6211      6163 7465 
 6214               	__c.3030:
 6215 0097 456E 7465 		.string	"Enter a new escape character: "
 6215      7220 6120 
 6215      6E65 7720 
 6215      6573 6361 
 6215      7065 2063 
 6218               	__c.3028:
 6219 00b6 3500      		.string	"5"
 6222               	__c.3026:
 6223 00b8 4E65 7720 		.string	"New file number reset to zero\n"
 6223      6669 6C65 
 6223      206E 756D 
 6223      6265 7220 
 6223      7265 7365 
 6226               	__c.3024:
 6227 00d7 3400      		.string	"4"
 6230               	__c.3022:
 6231 00d9 436F 6D6D 		.string	"Command prompt\n"
 6231      616E 6420 
 6231      7072 6F6D 
 6231      7074 0A00 
 6234               	__c.3020:
 6235 00e9 3300      		.string	"3"
 6238               	__c.3018:
 6239 00eb 4170 7065 		.string	"Append file logging\n"
 6239      6E64 2066 
 6239      696C 6520 
 6239      6C6F 6767 
 6239      696E 670A 
 6242               	__c.3016:
 6243 0100 3200      		.string	"2"
 6246               	__c.3014:
 6247 0102 4E65 7720 		.string	"New file logging\n"
 6247      6669 6C65 
 6247      206C 6F67 
 6247      6769 6E67 
 6247      0A00 
 6250               	__c.3012:
 6251 0114 3100      		.string	"1"
 6254               	__c.3008:
 6255 0116 7829 2045 		.string	"x) Exit\n"
 6255      7869 740A 
 6255      00
 6258               	__c.3006:
 6259 011f 3629 204E 		.string	"6) Number of escape characters\n"
 6259      756D 6265 
 6259      7220 6F66 
 6259      2065 7363 
 6259      6170 6520 
 6262               	__c.3004:
 6263 013f 3529 204E 		.string	"5) New escape character\n"
 6263      6577 2065 
 6263      7363 6170 
 6263      6520 6368 
 6263      6172 6163 
 6266               	__c.3002:
 6267 0158 3429 2052 		.string	"4) Reset new file number\n"
 6267      6573 6574 
 6267      206E 6577 
 6267      2066 696C 
 6267      6520 6E75 
 6270               	__c.3000:
 6271 0172 3329 2043 		.string	"3) Command prompt\n"
 6271      6F6D 6D61 
 6271      6E64 2070 
 6271      726F 6D70 
 6271      740A 00
 6274               	__c.2998:
 6275 0185 3229 2041 		.string	"2) Append file logging\n"
 6275      7070 656E 
 6275      6420 6669 
 6275      6C65 206C 
 6275      6F67 6769 
 6278               	__c.2996:
 6279 019d 3129 204E 		.string	"1) New file logging\n"
 6279      6577 2066 
 6279      696C 6520 
 6279      6C6F 6767 
 6279      696E 670A 
 6282               	__c.2994:
 6283 01b2 4368 616E 		.string	"Change to:\n"
 6283      6765 2074 
 6283      6F3A 0A00 
 6286               	__c.2992:
 6287 01be 0A00      		.string	"\n"
 6290               	__c.2990:
 6291 01c0 2078 2000 		.string	" x "
 6294               	__c.2988:
 6295 01c4 4375 7272 		.string	"Current escape character and amount: "
 6295      656E 7420 
 6295      6573 6361 
 6295      7065 2063 
 6295      6861 7261 
 6298               	__c.2986:
 6299 01ea 0A00      		.string	"\n"
 6302               	__c.2984:
 6303 01ec 436F 6D6D 		.string	"Command"
 6303      616E 6400 
 6306               	__c.2982:
 6307 01f4 4170 7065 		.string	"Append file"
 6307      6E64 2066 
 6307      696C 6500 
 6310               	__c.2980:
 6311 0200 4E65 7720 		.string	"New file"
 6311      6669 6C65 
 6311      00
 6314               	__c.2978:
 6315 0209 4375 7272 		.string	"Current boot mode: "
 6315      656E 7420 
 6315      626F 6F74 
 6315      206D 6F64 
 6315      653A 2000 
 6318               	__c.2976:
 6319 021d 0A53 7973 		.string	"\nSystem Configuration\n"
 6319      7465 6D20 
 6319      436F 6E66 
 6319      6967 7572 
 6319      6174 696F 
 6322               	__c.2957:
 6323 0234 0A45 7869 		.string	"\nExiting\n"
 6323      7469 6E67 
 6323      0A00 
 6326               	__c.2955:
 6327 023e 7800      		.string	"x"
 6330               	__c.2953:
 6331 0240 0A47 6F69 		.string	"\nGoing to 230400bps...\n"
 6331      6E67 2074 
 6331      6F20 3233 
 6331      3034 3030 
 6331      6270 732E 
 6334               	__c.2951:
 6335 0258 3800      		.string	"8"
 6338               	__c.2949:
 6339 025a 0A47 6F69 		.string	"\nGoing to 115200bps...\n"
 6339      6E67 2074 
 6339      6F20 3131 
 6339      3532 3030 
 6339      6270 732E 
 6342               	__c.2947:
 6343 0272 3700      		.string	"7"
 6346               	__c.2945:
 6347 0274 0A47 6F69 		.string	"\nGoing to 57600bps...\n"
 6347      6E67 2074 
 6347      6F20 3537 
 6347      3630 3062 
 6347      7073 2E2E 
 6350               	__c.2943:
 6351 028b 3600      		.string	"6"
 6354               	__c.2941:
 6355 028d 0A47 6F69 		.string	"\nGoing to 38400bps...\n"
 6355      6E67 2074 
 6355      6F20 3338 
 6355      3430 3062 
 6355      7073 2E2E 
 6358               	__c.2939:
 6359 02a4 3500      		.string	"5"
 6362               	__c.2937:
 6363 02a6 0A47 6F69 		.string	"\nGoing to 19200bps...\n"
 6363      6E67 2074 
 6363      6F20 3139 
 6363      3230 3062 
 6363      7073 2E2E 
 6366               	__c.2935:
 6367 02bd 3400      		.string	"4"
 6370               	__c.2933:
 6371 02bf 0A47 6F69 		.string	"\nGoing to 9600bps...\n"
 6371      6E67 2074 
 6371      6F20 3936 
 6371      3030 6270 
 6371      732E 2E2E 
 6374               	__c.2931:
 6375 02d5 3300      		.string	"3"
 6378               	__c.2929:
 6379 02d7 0A47 6F69 		.string	"\nGoing to 4800bps...\n"
 6379      6E67 2074 
 6379      6F20 3438 
 6379      3030 6270 
 6379      732E 2E2E 
 6382               	__c.2927:
 6383 02ed 3200      		.string	"2"
 6386               	__c.2925:
 6387 02ef 0A47 6F69 		.string	"\nGoing to 2400bps...\n"
 6387      6E67 2074 
 6387      6F20 3234 
 6387      3030 6270 
 6387      732E 2E2E 
 6390               	__c.2923:
 6391 0305 3100      		.string	"1"
 6394               	__c.2919:
 6395 0307 7829 2045 		.string	"x) Exit\n"
 6395      7869 740A 
 6395      00
 6398               	__c.2917:
 6399 0310 3829 2032 		.string	"8) 230400 bps\n"
 6399      3330 3430 
 6399      3020 6270 
 6399      730A 00
 6402               	__c.2915:
 6403 031f 3729 2031 		.string	"7) 115200 bps\n"
 6403      3135 3230 
 6403      3020 6270 
 6403      730A 00
 6406               	__c.2913:
 6407 032e 3629 2035 		.string	"6) 57600 bps\n"
 6407      3736 3030 
 6407      2062 7073 
 6407      0A00 
 6410               	__c.2911:
 6411 033c 3529 2033 		.string	"5) 38400 bps\n"
 6411      3834 3030 
 6411      2062 7073 
 6411      0A00 
 6414               	__c.2909:
 6415 034a 3429 2031 		.string	"4) 19200 bps\n"
 6415      3932 3030 
 6415      2062 7073 
 6415      0A00 
 6418               	__c.2907:
 6419 0358 3329 2039 		.string	"3) 9600 bps\n"
 6419      3630 3020 
 6419      6270 730A 
 6419      00
 6422               	__c.2905:
 6423 0365 3229 2034 		.string	"2) 4800 bps\n"
 6423      3830 3020 
 6423      6270 730A 
 6423      00
 6426               	__c.2903:
 6427 0372 3129 2032 		.string	"1) 2400 bps\n"
 6427      3430 3020 
 6427      6270 730A 
 6427      00
 6430               	__c.2901:
 6431 037f 4368 616E 		.string	"Change to:\n"
 6431      6765 2074 
 6431      6F3A 0A00 
 6434               	__c.2899:
 6435 038b 3030 2062 		.string	"00 bps\n"
 6435      7073 0A00 
 6438               	__c.2897:
 6439 0393 3233 3034 		.string	"2304"
 6439      00
 6442               	__c.2895:
 6443 0398 3131 3532 		.string	"1152"
 6443      00
 6446               	__c.2893:
 6447 039d 3537 3600 		.string	"576"
 6450               	__c.2891:
 6451 03a1 3338 3400 		.string	"384"
 6454               	__c.2889:
 6455 03a5 3139 3200 		.string	"192"
 6458               	__c.2887:
 6459 03a9 3936 00   		.string	"96"
 6462               	__c.2885:
 6463 03ac 3234 00   		.string	"24"
 6466               	__c.2883:
 6467 03af 3438 00   		.string	"48"
 6470               	__c.2881:
 6471 03b2 4375 7272 		.string	"Current: "
 6471      656E 743A 
 6471      2000 
 6474               	__c.2879:
 6475 03bc 0A42 6175 		.string	"\nBaud Configuration:\n"
 6475      6420 436F 
 6475      6E66 6967 
 6475      7572 6174 
 6475      696F 6E3A 
 6478               	__c.2872:
 6479 03d2 6261 7564 		.string	"baud\t\t\t: Menu to configure baud rate\n"
 6479      0909 093A 
 6479      204D 656E 
 6479      7520 746F 
 6479      2063 6F6E 
 6482               	__c.2870:
 6483 03f8 7365 7409 		.string	"set\t\t\t: Menu to configure system boot mode\n"
 6483      0909 3A20 
 6483      4D65 6E75 
 6483      2074 6F20 
 6483      636F 6E66 
 6486               	__c.2868:
 6487 0424 0A4D 656E 		.string	"\nMenus:\n"
 6487      7573 3A0A 
 6487      00
 6490               	__c.2866:
 6491 042d 7379 6E63 		.string	"sync\t\t\t: Ensures all buffered data is written to the card\n"
 6491      0909 093A 
 6491      2045 6E73 
 6491      7572 6573 
 6491      2061 6C6C 
 6494               	__c.2864:
 6495 0468 696E 6974 		.string	"init\t\t\t: Reinitializes and reopens the memory card\n"
 6495      0909 093A 
 6495      2052 6569 
 6495      6E69 7469 
 6495      616C 697A 
 6498               	__c.2862:
 6499 049c 6469 736B 		.ascii	"disk\t\t\t: Shows card m"
 6499      0909 093A 
 6499      2053 686F 
 6499      7773 2063 
 6499      6172 6420 
 6500 04b1 616E 7566 		.string	"anufacturer, status, filesystem capacity and free storage space\n"
 6500      6163 7475 
 6500      7265 722C 
 6500      2073 7461 
 6500      7475 732C 
 6503               	__c.2860:
 6504 04f2 7369 7A65 		.string	"size <file>\t\t: Write size of file to terminal\n"
 6504      203C 6669 
 6504      6C65 3E09 
 6504      093A 2057 
 6504      7269 7465 
 6507               	__c.2858:
 6508 0521 7265 6164 		.ascii	"read <file> <start> <length>\t\t: Writes ASCII <length> part"
 6508      203C 6669 
 6508      6C65 3E20 
 6508      3C73 7461 
 6508      7274 3E20 
 6509 055b 7320 6F66 		.ascii	"s of <file> to the terminal sta"
 6509      203C 6669 
 6509      6C65 3E20 
 6509      746F 2074 
 6509      6865 2074 
 6510 057a 7274 696E 		.string	"rting at <start>. Ommit <start> and <length> to read whole file\n"
 6510      6720 6174 
 6510      203C 7374 
 6510      6172 743E 
 6510      2E20 4F6D 
 6513               	__c.2856:
 6514 05bb 6361 7420 		.string	"cat <file>\t\t: Writes a hexdump of <file> to the terminal\n"
 6514      3C66 696C 
 6514      653E 0909 
 6514      3A20 5772 
 6514      6974 6573 
 6517               	__c.2854:
 6518 05f5 6C73 0909 		.ascii	"ls\t\t\t: Shows the content of the current directory. Use "
 6518      093A 2053 
 6518      686F 7773 
 6518      2074 6865 
 6518      2063 6F6E 
 6519 062c 7769 6C64 		.string	"wildcard to do a wildcard listing of files in current directory\n"
 6519      6361 7264 
 6519      2074 6F20 
 6519      646F 2061 
 6519      2077 696C 
 6522               	__c.2852:
 6523 066d 6364 202E 		.string	"cd ..\t\t: Changes to lower directory in tree\n"
 6523      2E09 093A 
 6523      2043 6861 
 6523      6E67 6573 
 6523      2074 6F20 
 6526               	__c.2850:
 6527 069a 6364 20   		.ascii	"cd "
 6528 069d 3C64 6972 		.string	"<directory>\t\t: Changes current working directory to <directory>\n"
 6528      6563 746F 
 6528      7279 3E09 
 6528      093A 2043 
 6528      6861 6E67 
 6531               	__c.2848:
 6532 06de 6D64 203C 		.string	"md <directory>\t: Creates a directory called <directory>\n"
 6532      6469 7265 
 6532      6374 6F72 
 6532      793E 093A 
 6532      2043 7265 
 6535               	__c.2846:
 6536 0717 726D 203C 		.ascii	"rm <file>\t\t:"
 6536      6669 6C65 
 6536      3E09 093A 
 6537 0723 2044 656C 		.string	" Deletes <file>. Use wildcard to do a wildcard removal of files\n"
 6537      6574 6573 
 6537      203C 6669 
 6537      6C65 3E2E 
 6537      2055 7365 
 6540               	__c.2844:
 6541 0764 7772 6974 		.ascii	"write <file> <offset>\t: Writes text to <file>, starting fro"
 6541      6520 3C66 
 6541      696C 653E 
 6541      203C 6F66 
 6541      6673 6574 
 6542 079f 6D20 3C6F 		.ascii	"m <offset>. The text"
 6542      6666 7365 
 6542      743E 2E20 
 6542      5468 6520 
 6542      7465 7874 
 6543 07b3 2069 7320 		.string	" is read from the UART, line by line. Finish with an empty line\n"
 6543      7265 6164 
 6543      2066 726F 
 6543      6D20 7468 
 6543      6520 5541 
 6546               	__c.2842:
 6547 07f4 6170 7065 		.ascii	"append <file>\t\t: Appends text to end of <file>. The text i"
 6547      6E64 203C 
 6547      6669 6C65 
 6547      3E09 093A 
 6547      2041 7070 
 6548 082e 7320 7265 		.ascii	"s read from the UART in "
 6548      6164 2066 
 6548      726F 6D20 
 6548      7468 6520 
 6548      5541 5254 
 6549 0846 6120 7374 		.string	"a stream and is not echoed. Finish by sending Ctrl+z (ASCII 26)\n"
 6549      7265 616D 
 6549      2061 6E64 
 6549      2069 7320 
 6549      6E6F 7420 
 6552               	__c.2840:
 6553 0887 6E65 7720 		.string	"new <file>\t\t: Creates <file>\n"
 6553      3C66 696C 
 6553      653E 0909 
 6553      3A20 4372 
 6553      6561 7465 
 6556               	__c.2838:
 6557 08a5 4176 6169 		.string	"Available commands:\n"
 6557      6C61 626C 
 6557      6520 636F 
 6557      6D6D 616E 
 6557      6473 3A0A 
 6560               	__c.2836:
 6561 08ba 0A53 444C 		.string	"\nSDLogger v1.1\n"
 6561      6F67 6765 
 6561      7220 7631 
 6561      2E31 0A00 
 6564               	__c.2501:
 6565 08ca 7E00      		.string	"~"
 6568               	__c.2499:
 6569 08cc 6572 726F 		.string	"error writing to file\n"
 6569      7220 7772 
 6569      6974 696E 
 6569      6720 746F 
 6569      2066 696C 
 6572               	__c.2497:
 6573 08e3 6572 726F 		.string	"error writing to file\n"
 6573      7220 7772 
 6573      6974 696E 
 6573      6720 746F 
 6573      2066 696C 
 6576               	__c.2495:
 6577 08fa 6572 726F 		.string	"error writing to file\n"
 6577      7220 7772 
 6577      6974 696E 
 6577      6720 746F 
 6577      2066 696C 
 6580               	__c.2493:
 6581 0911 6572 726F 		.string	"error writing to file\n"
 6581      7220 7772 
 6581      6974 696E 
 6581      6720 746F 
 6581      2066 696C 
 6584               	__c.2490:
 6585 0928 6572 726F 		.string	"error writing to file\n"
 6585      7220 7772 
 6585      6974 696E 
 6585      6720 746F 
 6585      2066 696C 
 6588               	__c.2488:
 6589 093f 6572 726F 		.string	"error writing to file\n"
 6589      7220 7772 
 6589      6974 696E 
 6589      6720 746F 
 6589      2066 696C 
 6592               	__c.2486:
 6593 0956 6572 726F 		.string	"error writing to file\n"
 6593      7220 7772 
 6593      6974 696E 
 6593      6720 746F 
 6593      2066 696C 
 6596               	__c.2484:
 6597 096d 6572 726F 		.string	"error writing to file\n"
 6597      7220 7772 
 6597      6974 696E 
 6597      6720 746F 
 6597      2066 696C 
 6600               	__c.2472:
 6601 0984 6572 726F 		.string	"error writing to file\n"
 6601      7220 7772 
 6601      6974 696E 
 6601      6720 746F 
 6601      2066 696C 
 6604               	__c.2470:
 6605 099b 6572 726F 		.string	"error writing to file\n"
 6605      7220 7772 
 6605      6974 696E 
 6605      6720 746F 
 6605      2066 696C 
 6608               	__c.2468:
 6609 09b2 6572 726F 		.string	"error writing to file\n"
 6609      7220 7772 
 6609      6974 696E 
 6609      6720 746F 
 6609      2066 696C 
 6612               	__c.2466:
 6613 09c9 6572 726F 		.string	"error writing to file\n"
 6613      7220 7772 
 6613      6974 696E 
 6613      6720 746F 
 6613      2066 696C 
 6616               	__c.2458:
 6617 09e0 2165 7272 		.string	"!error seeking on "
 6617      6F72 2073 
 6617      6565 6B69 
 6617      6E67 206F 
 6617      6E20 00
 6620               	__c.2455:
 6621 09f3 2165 7272 		.string	"!error opening "
 6621      6F72 206F 
 6621      7065 6E69 
 6621      6E67 2000 
 6624               	__c.2354:
 6625 0a03 756E 6B6E 		.string	"unknown command: "
 6625      6F77 6E20 
 6625      636F 6D6D 
 6625      616E 643A 
 6625      2000 
 6628               	__c.2352:
 6629 0a15 6572 726F 		.string	"error syncing disk\n"
 6629      7220 7379 
 6629      6E63 696E 
 6629      6720 6469 
 6629      736B 0A00 
 6632               	__c.2350:
 6633 0a29 7379 6E63 		.string	"sync"
 6633      00
 6636               	__c.2348:
 6637 0a2e 6572 726F 		.string	"error creating directory: "
 6637      7220 6372 
 6637      6561 7469 
 6637      6E67 2064 
 6637      6972 6563 
 6640               	__c.2345:
 6641 0a49 6D64 00   		.string	"md"
 6644               	__c.2343:
 6645 0a4c 6170 7065 		.string	"append"
 6645      6E64 00
 6648               	__c.2340:
 6649 0a53 6572 726F 		.string	"error writing to file\n"
 6649      7220 7772 
 6649      6974 696E 
 6649      6720 746F 
 6649      2066 696C 
 6652               	__c.2336:
 6653 0a6a 6572 726F 		.string	"error seeking on "
 6653      7220 7365 
 6653      656B 696E 
 6653      6720 6F6E 
 6653      2000 
 6656               	__c.2333:
 6657 0a7c 6572 726F 		.string	"error opening "
 6657      7220 6F70 
 6657      656E 696E 
 6657      6720 00
 6660               	__c.2329:
 6661 0a8b 7772 6974 		.string	"write"
 6661      6500 
 6664               	__c.2327:
 6665 0a91 6572 726F 		.string	"error creating file: "
 6665      7220 6372 
 6665      6561 7469 
 6665      6E67 2066 
 6665      696C 653A 
 6668               	__c.2324:
 6669 0aa7 6E65 7700 		.string	"new"
 6672               	__c.2319:
 6673 0aab 6572 726F 		.string	"error deleting file: "
 6673      7220 6465 
 6673      6C65 7469 
 6673      6E67 2066 
 6673      696C 653A 
 6676               	__c.2316:
 6677 0ac1 726D 00   		.string	"rm"
 6680               	__c.2313:
 6681 0ac4 7369 7A65 		.string	"size"
 6681      00
 6684               	__c.2311:
 6685 0ac9 6572 726F 		.string	"error reading disk info\n"
 6685      7220 7265 
 6685      6164 696E 
 6685      6720 6469 
 6685      736B 2069 
 6688               	__c.2309:
 6689 0ae2 6469 736B 		.string	"disk"
 6689      00
 6692               	__c.2302:
 6693 0ae7 6572 726F 		.string	"error seeking on "
 6693      7220 7365 
 6693      656B 696E 
 6693      6720 6F6E 
 6693      2000 
 6696               	__c.2299:
 6697 0af9 6572 726F 		.string	"error opening "
 6697      7220 6F70 
 6697      656E 696E 
 6697      6720 00
 6700               	__c.2296:
 6701 0b08 7265 6164 		.string	"read"
 6701      00
 6704               	__c.2284:
 6705 0b0d 6572 726F 		.string	"error opening "
 6705      7220 6F70 
 6705      656E 696E 
 6705      6720 00
 6708               	__c.2281:
 6709 0b1c 6361 7400 		.string	"cat"
 6712               	__c.2271:
 6713 0b20 6C73 00   		.string	"ls"
 6716               	__c.2269:
 6717 0b23 6469 7265 		.string	"directory not found: "
 6717      6374 6F72 
 6717      7920 6E6F 
 6717      7420 666F 
 6717      756E 643A 
 6720               	__c.2265:
 6721 0b39 6364 00   		.string	"cd"
 6724               	__c.2263:
 6725 0b3c 7365 7400 		.string	"set"
 6728               	__c.2261:
 6729 0b40 6261 7564 		.string	"baud"
 6729      00
 6732               	__c.2259:
 6733 0b45 6865 6C70 		.string	"help"
 6733      00
 6736               	__c.2257:
 6737 0b4a 3F00      		.string	"?"
 6740               	__c.2255:
 6741 0b4c 4669 6C65 		.string	"File system initialized\n"
 6741      2073 7973 
 6741      7465 6D20 
 6741      696E 6974 
 6741      6961 6C69 
 6744               	__c.2253:
 6745 0b65 436C 6F73 		.string	"Closing down file system\n"
 6745      696E 6720 
 6745      646F 776E 
 6745      2066 696C 
 6745      6520 7379 
 6748               	__c.2251:
 6749 0b7f 696E 6974 		.string	"init"
 6749      00
 6752               	__c.2807:
 6753 0b84 6672 6565 		.string	"free:   "
 6753      3A20 2020 
 6753      00
 6756               	__c.2805:
 6757 0b8d 666F 726D 		.string	"format: "
 6757      6174 3A20 
 6757      00
 6760               	__c.2803:
 6761 0b96 7772 2E70 		.string	"wr.pr.: "
 6761      722E 3A20 
 6761      00
 6764               	__c.2801:
 6765 0b9f 636F 7079 		.string	"copy:   "
 6765      3A20 2020 
 6765      00
 6768               	__c.2799:
 6769 0ba8 4D42 0A00 		.string	"MB\n"
 6772               	__c.2797:
 6773 0bac 7369 7A65 		.string	"size:   "
 6773      3A20 2020 
 6773      00
 6776               	__c.2795:
 6777 0bb5 6461 7465 		.string	"date:   "
 6777      3A20 2020 
 6777      00
 6780               	__c.2793:
 6781 0bbe 7365 7269 		.string	"serial: 0x"
 6781      616C 3A20 
 6781      3078 00
 6784               	__c.2791:
 6785 0bc9 7265 763A 		.string	"rev:    "
 6785      2020 2020 
 6785      00
 6788               	__c.2789:
 6789 0bd2 7072 6F64 		.string	"prod:   "
 6789      3A20 2020 
 6789      00
 6792               	__c.2787:
 6793 0bdb 6F65 6D3A 		.string	"oem:    "
 6793      2020 2020 
 6793      00
 6796               	__c.2785:
 6797 0be4 6D61 6E75 		.string	"manuf:  0x"
 6797      663A 2020 
 6797      3078 00
 6800               	__c.2231:
 6801 0bef 2154 6F6F 		.string	"!Too many logs:2!"
 6801      206D 616E 
 6801      7920 6C6F 
 6801      6773 3A32 
 6801      2100 
 6804               	__c.2227:
 6805 0c01 2154 6F6F 		.string	"!Too many logs:1!"
 6805      206D 616E 
 6805      7920 6C6F 
 6805      6773 3A31 
 6805      2100 
 6808               	__c.2215:
 6809 0c13 4572 726F 		.string	"Error creating SEQLOG\n"
 6809      7220 6372 
 6809      6561 7469 
 6809      6E67 2053 
 6809      4551 4C4F 
 6812               	__c.2212:
 6813 0c2a 4372 6561 		.string	"Creating SEQLOG\n"
 6813      7469 6E67 
 6813      2053 4551 
 6813      4C4F 470A 
 6813      00
 6816               	__c.2085:
 6817 0c3b 6572 726F 		.string	"error opening config file"
 6817      7220 6F70 
 6817      656E 696E 
 6817      6720 636F 
 6817      6E66 6967 
 6820               	__c.2052:
 6821 0c55 3200      		.string	"2"
 6824               	__c.2050:
 6825 0c57 3100      		.string	"1"
 6826               		.lcomm cmd_arg,12
 6827               		.comm input_buffer,2048,1
 6828               		.comm general_buffer,25,1
 6829               		.comm read_spot,2,1
 6830               		.comm checked_spot,2,1
 6831               		.comm fs,2,1
 6832               		.comm partition,2,1
 6833               		.comm dd,2,1
 6834               		.comm setting_uart_speed,1,1
 6835               		.comm setting_system_mode,1,1
 6836               		.comm setting_escape_character,1,1
 6837               		.comm setting_max_escape_character,1,1
 7110               	.Letext0:
DEFINED SYMBOLS
                            *ABS*:00000000 main.c
C:/DOCUME~1/Magnus/LOCALS~1/Temp/ccBwvRoG.s:2      *ABS*:0000003f __SREG__
C:/DOCUME~1/Magnus/LOCALS~1/Temp/ccBwvRoG.s:3      *ABS*:0000003e __SP_H__
C:/DOCUME~1/Magnus/LOCALS~1/Temp/ccBwvRoG.s:4      *ABS*:0000003d __SP_L__
C:/DOCUME~1/Magnus/LOCALS~1/Temp/ccBwvRoG.s:5      *ABS*:00000034 __CCP__
C:/DOCUME~1/Magnus/LOCALS~1/Temp/ccBwvRoG.s:6      *ABS*:00000000 __tmp_reg__
C:/DOCUME~1/Magnus/LOCALS~1/Temp/ccBwvRoG.s:7      *ABS*:00000001 __zero_reg__
C:/DOCUME~1/Magnus/LOCALS~1/Temp/ccBwvRoG.s:18     .text:00000000 __vector_20
                            *COM*:00000002 read_spot
                            *COM*:00000800 input_buffer
C:/DOCUME~1/Magnus/LOCALS~1/Temp/ccBwvRoG.s:76     .text:0000006a set_default_settings
C:/DOCUME~1/Magnus/LOCALS~1/Temp/ccBwvRoG.s:166    .text:000000b0 read_system_settings
                            *COM*:00000001 setting_uart_speed
                            *COM*:00000001 setting_system_mode
                            *COM*:00000001 setting_escape_character
                            *COM*:00000001 setting_max_escape_character
C:/DOCUME~1/Magnus/LOCALS~1/Temp/ccBwvRoG.s:355    .text:00000166 EEPROM_write
C:/DOCUME~1/Magnus/LOCALS~1/Temp/ccBwvRoG.s:383    .text:00000176 EEPROM_read
C:/DOCUME~1/Magnus/LOCALS~1/Temp/ccBwvRoG.s:410    .text:00000184 delay_us
C:/DOCUME~1/Magnus/LOCALS~1/Temp/ccBwvRoG.s:463    .text:000001b4 delay_ms
C:/DOCUME~1/Magnus/LOCALS~1/Temp/ccBwvRoG.s:495    .text:000001d0 blink_error
C:/DOCUME~1/Magnus/LOCALS~1/Temp/ccBwvRoG.s:548    .text:0000020c check_emergency_reset
C:/DOCUME~1/Magnus/LOCALS~1/Temp/ccBwvRoG.s:617    .text:0000025c count_cmd_args
                             .bss:00000000 cmd_arg
C:/DOCUME~1/Magnus/LOCALS~1/Temp/ccBwvRoG.s:652    .text:0000027e add_cmd_arg
C:/DOCUME~1/Magnus/LOCALS~1/Temp/ccBwvRoG.s:710    .text:000002bc is_number
C:/DOCUME~1/Magnus/LOCALS~1/Temp/ccBwvRoG.s:760    .text:000002ea wildcmp
C:/DOCUME~1/Magnus/LOCALS~1/Temp/ccBwvRoG.s:868    .text:00000364 print_menu
C:/DOCUME~1/Magnus/LOCALS~1/Temp/ccBwvRoG.s:6560   .progmem.data:000008ba __c.2836
C:/DOCUME~1/Magnus/LOCALS~1/Temp/ccBwvRoG.s:6556   .progmem.data:000008a5 __c.2838
C:/DOCUME~1/Magnus/LOCALS~1/Temp/ccBwvRoG.s:6552   .progmem.data:00000887 __c.2840
C:/DOCUME~1/Magnus/LOCALS~1/Temp/ccBwvRoG.s:6546   .progmem.data:000007f4 __c.2842
C:/DOCUME~1/Magnus/LOCALS~1/Temp/ccBwvRoG.s:6540   .progmem.data:00000764 __c.2844
C:/DOCUME~1/Magnus/LOCALS~1/Temp/ccBwvRoG.s:6535   .progmem.data:00000717 __c.2846
C:/DOCUME~1/Magnus/LOCALS~1/Temp/ccBwvRoG.s:6531   .progmem.data:000006de __c.2848
C:/DOCUME~1/Magnus/LOCALS~1/Temp/ccBwvRoG.s:6526   .progmem.data:0000069a __c.2850
C:/DOCUME~1/Magnus/LOCALS~1/Temp/ccBwvRoG.s:6522   .progmem.data:0000066d __c.2852
C:/DOCUME~1/Magnus/LOCALS~1/Temp/ccBwvRoG.s:6517   .progmem.data:000005f5 __c.2854
C:/DOCUME~1/Magnus/LOCALS~1/Temp/ccBwvRoG.s:6513   .progmem.data:000005bb __c.2856
C:/DOCUME~1/Magnus/LOCALS~1/Temp/ccBwvRoG.s:6507   .progmem.data:00000521 __c.2858
C:/DOCUME~1/Magnus/LOCALS~1/Temp/ccBwvRoG.s:6503   .progmem.data:000004f2 __c.2860
C:/DOCUME~1/Magnus/LOCALS~1/Temp/ccBwvRoG.s:6498   .progmem.data:0000049c __c.2862
C:/DOCUME~1/Magnus/LOCALS~1/Temp/ccBwvRoG.s:6494   .progmem.data:00000468 __c.2864
C:/DOCUME~1/Magnus/LOCALS~1/Temp/ccBwvRoG.s:6490   .progmem.data:0000042d __c.2866
C:/DOCUME~1/Magnus/LOCALS~1/Temp/ccBwvRoG.s:6486   .progmem.data:00000424 __c.2868
C:/DOCUME~1/Magnus/LOCALS~1/Temp/ccBwvRoG.s:6482   .progmem.data:000003f8 __c.2870
C:/DOCUME~1/Magnus/LOCALS~1/Temp/ccBwvRoG.s:6478   .progmem.data:000003d2 __c.2872
C:/DOCUME~1/Magnus/LOCALS~1/Temp/ccBwvRoG.s:956    .text:000003fe too_many_arguments_error
C:/DOCUME~1/Magnus/LOCALS~1/Temp/ccBwvRoG.s:6178   .progmem.data:00000004 __c.3123
C:/DOCUME~1/Magnus/LOCALS~1/Temp/ccBwvRoG.s:6174   .progmem.data:00000000 __c.3125
C:/DOCUME~1/Magnus/LOCALS~1/Temp/ccBwvRoG.s:1033   .text:0000045c split_cmd_line_args
C:/DOCUME~1/Magnus/LOCALS~1/Temp/ccBwvRoG.s:1197   .text:00000516 get_cmd_arg
                            *COM*:00000019 general_buffer
C:/DOCUME~1/Magnus/LOCALS~1/Temp/ccBwvRoG.s:1261   .text:0000056c read_line
C:/DOCUME~1/Magnus/LOCALS~1/Temp/ccBwvRoG.s:1386   .text:0000060a read_buffer
C:/DOCUME~1/Magnus/LOCALS~1/Temp/ccBwvRoG.s:1509   .text:0000069c init_media
                            *COM*:00000002 partition
                            *COM*:00000002 fs
                            *COM*:00000002 dd
C:/DOCUME~1/Magnus/LOCALS~1/Temp/ccBwvRoG.s:1603   .text:00000756 find_file_in_dir
C:/DOCUME~1/Magnus/LOCALS~1/Temp/ccBwvRoG.s:1676   .text:000007b6 open_file_in_dir
C:/DOCUME~1/Magnus/LOCALS~1/Temp/ccBwvRoG.s:1741   .text:00000818 append_file
C:/DOCUME~1/Magnus/LOCALS~1/Temp/ccBwvRoG.s:6620   .progmem.data:000009f3 __c.2455
C:/DOCUME~1/Magnus/LOCALS~1/Temp/ccBwvRoG.s:6616   .progmem.data:000009e0 __c.2458
                            *COM*:00000002 checked_spot
C:/DOCUME~1/Magnus/LOCALS~1/Temp/ccBwvRoG.s:6612   .progmem.data:000009c9 __c.2466
C:/DOCUME~1/Magnus/LOCALS~1/Temp/ccBwvRoG.s:6608   .progmem.data:000009b2 __c.2468
C:/DOCUME~1/Magnus/LOCALS~1/Temp/ccBwvRoG.s:6604   .progmem.data:0000099b __c.2470
C:/DOCUME~1/Magnus/LOCALS~1/Temp/ccBwvRoG.s:6600   .progmem.data:00000984 __c.2472
C:/DOCUME~1/Magnus/LOCALS~1/Temp/ccBwvRoG.s:6596   .progmem.data:0000096d __c.2484
C:/DOCUME~1/Magnus/LOCALS~1/Temp/ccBwvRoG.s:6592   .progmem.data:00000956 __c.2486
C:/DOCUME~1/Magnus/LOCALS~1/Temp/ccBwvRoG.s:6588   .progmem.data:0000093f __c.2488
C:/DOCUME~1/Magnus/LOCALS~1/Temp/ccBwvRoG.s:6584   .progmem.data:00000928 __c.2490
C:/DOCUME~1/Magnus/LOCALS~1/Temp/ccBwvRoG.s:6580   .progmem.data:00000911 __c.2493
C:/DOCUME~1/Magnus/LOCALS~1/Temp/ccBwvRoG.s:6576   .progmem.data:000008fa __c.2495
C:/DOCUME~1/Magnus/LOCALS~1/Temp/ccBwvRoG.s:6572   .progmem.data:000008e3 __c.2497
C:/DOCUME~1/Magnus/LOCALS~1/Temp/ccBwvRoG.s:6568   .progmem.data:000008cc __c.2499
C:/DOCUME~1/Magnus/LOCALS~1/Temp/ccBwvRoG.s:6564   .progmem.data:000008ca __c.2501
C:/DOCUME~1/Magnus/LOCALS~1/Temp/ccBwvRoG.s:2418   .text:00000d0e newlog
C:/DOCUME~1/Magnus/LOCALS~1/Temp/ccBwvRoG.s:6804   .progmem.data:00000c01 __c.2227
C:/DOCUME~1/Magnus/LOCALS~1/Temp/ccBwvRoG.s:6800   .progmem.data:00000bef __c.2231
C:/DOCUME~1/Magnus/LOCALS~1/Temp/ccBwvRoG.s:2753   .text:00000eb4 seqlog
C:/DOCUME~1/Magnus/LOCALS~1/Temp/ccBwvRoG.s:6812   .progmem.data:00000c2a __c.2212
C:/DOCUME~1/Magnus/LOCALS~1/Temp/ccBwvRoG.s:6808   .progmem.data:00000c13 __c.2215
C:/DOCUME~1/Magnus/LOCALS~1/Temp/ccBwvRoG.s:2875   .text:00000f4e record_config_file
C:/DOCUME~1/Magnus/LOCALS~1/Temp/ccBwvRoG.s:3307   .text:00001210 system_menu
C:/DOCUME~1/Magnus/LOCALS~1/Temp/ccBwvRoG.s:6318   .progmem.data:0000021d __c.2976
C:/DOCUME~1/Magnus/LOCALS~1/Temp/ccBwvRoG.s:6314   .progmem.data:00000209 __c.2978
C:/DOCUME~1/Magnus/LOCALS~1/Temp/ccBwvRoG.s:6310   .progmem.data:00000200 __c.2980
C:/DOCUME~1/Magnus/LOCALS~1/Temp/ccBwvRoG.s:6306   .progmem.data:000001f4 __c.2982
C:/DOCUME~1/Magnus/LOCALS~1/Temp/ccBwvRoG.s:6302   .progmem.data:000001ec __c.2984
C:/DOCUME~1/Magnus/LOCALS~1/Temp/ccBwvRoG.s:6298   .progmem.data:000001ea __c.2986
C:/DOCUME~1/Magnus/LOCALS~1/Temp/ccBwvRoG.s:6294   .progmem.data:000001c4 __c.2988
C:/DOCUME~1/Magnus/LOCALS~1/Temp/ccBwvRoG.s:6290   .progmem.data:000001c0 __c.2990
C:/DOCUME~1/Magnus/LOCALS~1/Temp/ccBwvRoG.s:6286   .progmem.data:000001be __c.2992
C:/DOCUME~1/Magnus/LOCALS~1/Temp/ccBwvRoG.s:6282   .progmem.data:000001b2 __c.2994
C:/DOCUME~1/Magnus/LOCALS~1/Temp/ccBwvRoG.s:6278   .progmem.data:0000019d __c.2996
C:/DOCUME~1/Magnus/LOCALS~1/Temp/ccBwvRoG.s:6274   .progmem.data:00000185 __c.2998
C:/DOCUME~1/Magnus/LOCALS~1/Temp/ccBwvRoG.s:6270   .progmem.data:00000172 __c.3000
C:/DOCUME~1/Magnus/LOCALS~1/Temp/ccBwvRoG.s:6266   .progmem.data:00000158 __c.3002
C:/DOCUME~1/Magnus/LOCALS~1/Temp/ccBwvRoG.s:6262   .progmem.data:0000013f __c.3004
C:/DOCUME~1/Magnus/LOCALS~1/Temp/ccBwvRoG.s:6258   .progmem.data:0000011f __c.3006
C:/DOCUME~1/Magnus/LOCALS~1/Temp/ccBwvRoG.s:6254   .progmem.data:00000116 __c.3008
C:/DOCUME~1/Magnus/LOCALS~1/Temp/ccBwvRoG.s:6250   .progmem.data:00000114 __c.3012
C:/DOCUME~1/Magnus/LOCALS~1/Temp/ccBwvRoG.s:6246   .progmem.data:00000102 __c.3014
C:/DOCUME~1/Magnus/LOCALS~1/Temp/ccBwvRoG.s:6242   .progmem.data:00000100 __c.3016
C:/DOCUME~1/Magnus/LOCALS~1/Temp/ccBwvRoG.s:6238   .progmem.data:000000eb __c.3018
C:/DOCUME~1/Magnus/LOCALS~1/Temp/ccBwvRoG.s:6234   .progmem.data:000000e9 __c.3020
C:/DOCUME~1/Magnus/LOCALS~1/Temp/ccBwvRoG.s:6230   .progmem.data:000000d9 __c.3022
C:/DOCUME~1/Magnus/LOCALS~1/Temp/ccBwvRoG.s:6226   .progmem.data:000000d7 __c.3024
C:/DOCUME~1/Magnus/LOCALS~1/Temp/ccBwvRoG.s:6222   .progmem.data:000000b8 __c.3026
C:/DOCUME~1/Magnus/LOCALS~1/Temp/ccBwvRoG.s:6218   .progmem.data:000000b6 __c.3028
C:/DOCUME~1/Magnus/LOCALS~1/Temp/ccBwvRoG.s:6214   .progmem.data:00000097 __c.3030
C:/DOCUME~1/Magnus/LOCALS~1/Temp/ccBwvRoG.s:6210   .progmem.data:0000007f __c.3032
C:/DOCUME~1/Magnus/LOCALS~1/Temp/ccBwvRoG.s:6206   .progmem.data:0000007d __c.3034
C:/DOCUME~1/Magnus/LOCALS~1/Temp/ccBwvRoG.s:6202   .progmem.data:0000007b __c.3036
C:/DOCUME~1/Magnus/LOCALS~1/Temp/ccBwvRoG.s:6198   .progmem.data:0000004b __c.3039
C:/DOCUME~1/Magnus/LOCALS~1/Temp/ccBwvRoG.s:6194   .progmem.data:00000025 __c.3044
C:/DOCUME~1/Magnus/LOCALS~1/Temp/ccBwvRoG.s:6190   .progmem.data:00000023 __c.3046
C:/DOCUME~1/Magnus/LOCALS~1/Temp/ccBwvRoG.s:6186   .progmem.data:00000021 __c.3048
C:/DOCUME~1/Magnus/LOCALS~1/Temp/ccBwvRoG.s:6182   .progmem.data:00000018 __c.3050
C:/DOCUME~1/Magnus/LOCALS~1/Temp/ccBwvRoG.s:3735   .text:0000147c baud_menu
C:/DOCUME~1/Magnus/LOCALS~1/Temp/ccBwvRoG.s:6474   .progmem.data:000003bc __c.2879
C:/DOCUME~1/Magnus/LOCALS~1/Temp/ccBwvRoG.s:6470   .progmem.data:000003b2 __c.2881
C:/DOCUME~1/Magnus/LOCALS~1/Temp/ccBwvRoG.s:6466   .progmem.data:000003af __c.2883
C:/DOCUME~1/Magnus/LOCALS~1/Temp/ccBwvRoG.s:6462   .progmem.data:000003ac __c.2885
C:/DOCUME~1/Magnus/LOCALS~1/Temp/ccBwvRoG.s:6458   .progmem.data:000003a9 __c.2887
C:/DOCUME~1/Magnus/LOCALS~1/Temp/ccBwvRoG.s:6454   .progmem.data:000003a5 __c.2889
C:/DOCUME~1/Magnus/LOCALS~1/Temp/ccBwvRoG.s:6450   .progmem.data:000003a1 __c.2891
C:/DOCUME~1/Magnus/LOCALS~1/Temp/ccBwvRoG.s:6446   .progmem.data:0000039d __c.2893
C:/DOCUME~1/Magnus/LOCALS~1/Temp/ccBwvRoG.s:6442   .progmem.data:00000398 __c.2895
C:/DOCUME~1/Magnus/LOCALS~1/Temp/ccBwvRoG.s:6438   .progmem.data:00000393 __c.2897
C:/DOCUME~1/Magnus/LOCALS~1/Temp/ccBwvRoG.s:6434   .progmem.data:0000038b __c.2899
C:/DOCUME~1/Magnus/LOCALS~1/Temp/ccBwvRoG.s:6430   .progmem.data:0000037f __c.2901
C:/DOCUME~1/Magnus/LOCALS~1/Temp/ccBwvRoG.s:6426   .progmem.data:00000372 __c.2903
C:/DOCUME~1/Magnus/LOCALS~1/Temp/ccBwvRoG.s:6422   .progmem.data:00000365 __c.2905
C:/DOCUME~1/Magnus/LOCALS~1/Temp/ccBwvRoG.s:6418   .progmem.data:00000358 __c.2907
C:/DOCUME~1/Magnus/LOCALS~1/Temp/ccBwvRoG.s:6414   .progmem.data:0000034a __c.2909
C:/DOCUME~1/Magnus/LOCALS~1/Temp/ccBwvRoG.s:6410   .progmem.data:0000033c __c.2911
C:/DOCUME~1/Magnus/LOCALS~1/Temp/ccBwvRoG.s:6406   .progmem.data:0000032e __c.2913
C:/DOCUME~1/Magnus/LOCALS~1/Temp/ccBwvRoG.s:6402   .progmem.data:0000031f __c.2915
C:/DOCUME~1/Magnus/LOCALS~1/Temp/ccBwvRoG.s:6398   .progmem.data:00000310 __c.2917
C:/DOCUME~1/Magnus/LOCALS~1/Temp/ccBwvRoG.s:6394   .progmem.data:00000307 __c.2919
C:/DOCUME~1/Magnus/LOCALS~1/Temp/ccBwvRoG.s:6390   .progmem.data:00000305 __c.2923
C:/DOCUME~1/Magnus/LOCALS~1/Temp/ccBwvRoG.s:6386   .progmem.data:000002ef __c.2925
C:/DOCUME~1/Magnus/LOCALS~1/Temp/ccBwvRoG.s:6382   .progmem.data:000002ed __c.2927
C:/DOCUME~1/Magnus/LOCALS~1/Temp/ccBwvRoG.s:6378   .progmem.data:000002d7 __c.2929
C:/DOCUME~1/Magnus/LOCALS~1/Temp/ccBwvRoG.s:6374   .progmem.data:000002d5 __c.2931
C:/DOCUME~1/Magnus/LOCALS~1/Temp/ccBwvRoG.s:6370   .progmem.data:000002bf __c.2933
C:/DOCUME~1/Magnus/LOCALS~1/Temp/ccBwvRoG.s:6366   .progmem.data:000002bd __c.2935
C:/DOCUME~1/Magnus/LOCALS~1/Temp/ccBwvRoG.s:6362   .progmem.data:000002a6 __c.2937
C:/DOCUME~1/Magnus/LOCALS~1/Temp/ccBwvRoG.s:6358   .progmem.data:000002a4 __c.2939
C:/DOCUME~1/Magnus/LOCALS~1/Temp/ccBwvRoG.s:6354   .progmem.data:0000028d __c.2941
C:/DOCUME~1/Magnus/LOCALS~1/Temp/ccBwvRoG.s:6350   .progmem.data:0000028b __c.2943
C:/DOCUME~1/Magnus/LOCALS~1/Temp/ccBwvRoG.s:6346   .progmem.data:00000274 __c.2945
C:/DOCUME~1/Magnus/LOCALS~1/Temp/ccBwvRoG.s:6342   .progmem.data:00000272 __c.2947
C:/DOCUME~1/Magnus/LOCALS~1/Temp/ccBwvRoG.s:6338   .progmem.data:0000025a __c.2949
C:/DOCUME~1/Magnus/LOCALS~1/Temp/ccBwvRoG.s:6334   .progmem.data:00000258 __c.2951
C:/DOCUME~1/Magnus/LOCALS~1/Temp/ccBwvRoG.s:6330   .progmem.data:00000240 __c.2953
C:/DOCUME~1/Magnus/LOCALS~1/Temp/ccBwvRoG.s:6326   .progmem.data:0000023e __c.2955
C:/DOCUME~1/Magnus/LOCALS~1/Temp/ccBwvRoG.s:6322   .progmem.data:00000234 __c.2957
C:/DOCUME~1/Magnus/LOCALS~1/Temp/ccBwvRoG.s:4170   .text:000016dc command_shell
C:/DOCUME~1/Magnus/LOCALS~1/Temp/ccBwvRoG.s:6748   .progmem.data:00000b7f __c.2251
C:/DOCUME~1/Magnus/LOCALS~1/Temp/ccBwvRoG.s:6744   .progmem.data:00000b65 __c.2253
C:/DOCUME~1/Magnus/LOCALS~1/Temp/ccBwvRoG.s:6740   .progmem.data:00000b4c __c.2255
C:/DOCUME~1/Magnus/LOCALS~1/Temp/ccBwvRoG.s:6736   .progmem.data:00000b4a __c.2257
C:/DOCUME~1/Magnus/LOCALS~1/Temp/ccBwvRoG.s:6732   .progmem.data:00000b45 __c.2259
C:/DOCUME~1/Magnus/LOCALS~1/Temp/ccBwvRoG.s:6728   .progmem.data:00000b40 __c.2261
C:/DOCUME~1/Magnus/LOCALS~1/Temp/ccBwvRoG.s:6724   .progmem.data:00000b3c __c.2263
C:/DOCUME~1/Magnus/LOCALS~1/Temp/ccBwvRoG.s:6720   .progmem.data:00000b39 __c.2265
C:/DOCUME~1/Magnus/LOCALS~1/Temp/ccBwvRoG.s:6716   .progmem.data:00000b23 __c.2269
C:/DOCUME~1/Magnus/LOCALS~1/Temp/ccBwvRoG.s:6712   .progmem.data:00000b20 __c.2271
C:/DOCUME~1/Magnus/LOCALS~1/Temp/ccBwvRoG.s:6708   .progmem.data:00000b1c __c.2281
C:/DOCUME~1/Magnus/LOCALS~1/Temp/ccBwvRoG.s:6704   .progmem.data:00000b0d __c.2284
C:/DOCUME~1/Magnus/LOCALS~1/Temp/ccBwvRoG.s:6700   .progmem.data:00000b08 __c.2296
C:/DOCUME~1/Magnus/LOCALS~1/Temp/ccBwvRoG.s:6696   .progmem.data:00000af9 __c.2299
C:/DOCUME~1/Magnus/LOCALS~1/Temp/ccBwvRoG.s:6692   .progmem.data:00000ae7 __c.2302
C:/DOCUME~1/Magnus/LOCALS~1/Temp/ccBwvRoG.s:6688   .progmem.data:00000ae2 __c.2309
C:/DOCUME~1/Magnus/LOCALS~1/Temp/ccBwvRoG.s:6796   .progmem.data:00000be4 __c.2785
C:/DOCUME~1/Magnus/LOCALS~1/Temp/ccBwvRoG.s:6792   .progmem.data:00000bdb __c.2787
C:/DOCUME~1/Magnus/LOCALS~1/Temp/ccBwvRoG.s:6788   .progmem.data:00000bd2 __c.2789
C:/DOCUME~1/Magnus/LOCALS~1/Temp/ccBwvRoG.s:6784   .progmem.data:00000bc9 __c.2791
C:/DOCUME~1/Magnus/LOCALS~1/Temp/ccBwvRoG.s:6780   .progmem.data:00000bbe __c.2793
C:/DOCUME~1/Magnus/LOCALS~1/Temp/ccBwvRoG.s:6776   .progmem.data:00000bb5 __c.2795
C:/DOCUME~1/Magnus/LOCALS~1/Temp/ccBwvRoG.s:6772   .progmem.data:00000bac __c.2797
C:/DOCUME~1/Magnus/LOCALS~1/Temp/ccBwvRoG.s:6768   .progmem.data:00000ba8 __c.2799
C:/DOCUME~1/Magnus/LOCALS~1/Temp/ccBwvRoG.s:6764   .progmem.data:00000b9f __c.2801
C:/DOCUME~1/Magnus/LOCALS~1/Temp/ccBwvRoG.s:6760   .progmem.data:00000b96 __c.2803
C:/DOCUME~1/Magnus/LOCALS~1/Temp/ccBwvRoG.s:6756   .progmem.data:00000b8d __c.2805
C:/DOCUME~1/Magnus/LOCALS~1/Temp/ccBwvRoG.s:6752   .progmem.data:00000b84 __c.2807
C:/DOCUME~1/Magnus/LOCALS~1/Temp/ccBwvRoG.s:6684   .progmem.data:00000ac9 __c.2311
C:/DOCUME~1/Magnus/LOCALS~1/Temp/ccBwvRoG.s:6680   .progmem.data:00000ac4 __c.2313
C:/DOCUME~1/Magnus/LOCALS~1/Temp/ccBwvRoG.s:6676   .progmem.data:00000ac1 __c.2316
C:/DOCUME~1/Magnus/LOCALS~1/Temp/ccBwvRoG.s:6672   .progmem.data:00000aab __c.2319
C:/DOCUME~1/Magnus/LOCALS~1/Temp/ccBwvRoG.s:6668   .progmem.data:00000aa7 __c.2324
C:/DOCUME~1/Magnus/LOCALS~1/Temp/ccBwvRoG.s:6664   .progmem.data:00000a91 __c.2327
C:/DOCUME~1/Magnus/LOCALS~1/Temp/ccBwvRoG.s:6660   .progmem.data:00000a8b __c.2329
C:/DOCUME~1/Magnus/LOCALS~1/Temp/ccBwvRoG.s:6656   .progmem.data:00000a7c __c.2333
C:/DOCUME~1/Magnus/LOCALS~1/Temp/ccBwvRoG.s:6652   .progmem.data:00000a6a __c.2336
C:/DOCUME~1/Magnus/LOCALS~1/Temp/ccBwvRoG.s:6648   .progmem.data:00000a53 __c.2340
C:/DOCUME~1/Magnus/LOCALS~1/Temp/ccBwvRoG.s:6644   .progmem.data:00000a4c __c.2343
C:/DOCUME~1/Magnus/LOCALS~1/Temp/ccBwvRoG.s:6640   .progmem.data:00000a49 __c.2345
C:/DOCUME~1/Magnus/LOCALS~1/Temp/ccBwvRoG.s:6636   .progmem.data:00000a2e __c.2348
C:/DOCUME~1/Magnus/LOCALS~1/Temp/ccBwvRoG.s:6632   .progmem.data:00000a29 __c.2350
C:/DOCUME~1/Magnus/LOCALS~1/Temp/ccBwvRoG.s:6628   .progmem.data:00000a15 __c.2352
C:/DOCUME~1/Magnus/LOCALS~1/Temp/ccBwvRoG.s:6624   .progmem.data:00000a03 __c.2354
C:/DOCUME~1/Magnus/LOCALS~1/Temp/ccBwvRoG.s:5612   .text:00001fe4 read_config_file
C:/DOCUME~1/Magnus/LOCALS~1/Temp/ccBwvRoG.s:6816   .progmem.data:00000c3b __c.2085
C:/DOCUME~1/Magnus/LOCALS~1/Temp/ccBwvRoG.s:6056   .text:00002272 ioinit
C:/DOCUME~1/Magnus/LOCALS~1/Temp/ccBwvRoG.s:6824   .progmem.data:00000c57 __c.2050
C:/DOCUME~1/Magnus/LOCALS~1/Temp/ccBwvRoG.s:6820   .progmem.data:00000c55 __c.2052
C:/DOCUME~1/Magnus/LOCALS~1/Temp/ccBwvRoG.s:6141   .text:000022f0 main

UNDEFINED SYMBOLS
uart_puts_p
uart_putw_dec
uart_puts
uart_putc
strncpy
memset
uart_getc
sd_raw_init
fat_clear_handles
sd_raw_read
sd_raw_read_interval
sd_raw_write
sd_raw_write_interval
partition_open
fat_open
fat_get_dir_entry_of_path
fat_open_dir
strcmp
fat_reset_dir
fat_read_dir
fat_open_file
fat_seek_file
fat_close_file
fat_write_file
sd_raw_sync
sprintf
fat_create_file
strcpy
fat_delete_file
strcat
uart_putdw_dec
strcmp_P
fat_close
partition_close
strncmp_P
fat_close_dir
uart_putdw_hex
uart_putc_hex
fat_read_file
__mulsi3
sd_raw_get_info
__lshrdi3
fat_get_fs_free
fat_get_fs_size
fat_create_dir
atoi
uart_init
__do_copy_data
__do_clear_bss
